ARM GAS  C:\Users\danst\AppData\Local\Temp\cczkfCFF.s 			page 1


   1              		.cpu cortex-m7
   2              		.eabi_attribute 28, 1
   3              		.eabi_attribute 20, 1
   4              		.eabi_attribute 21, 1
   5              		.eabi_attribute 23, 3
   6              		.eabi_attribute 24, 1
   7              		.eabi_attribute 25, 1
   8              		.eabi_attribute 26, 1
   9              		.eabi_attribute 30, 2
  10              		.eabi_attribute 34, 1
  11              		.eabi_attribute 18, 4
  12              		.file	"2Cats1Bag.cpp"
  13              		.text
  14              	.Ltext0:
  15              		.cfi_sections	.debug_frame
  16              		.section	.text._ZN5daisy6SwitchD2Ev,"axG",%progbits,_ZN5daisy6SwitchD5Ev,comdat
  17              		.align	1
  18              		.p2align 2,,3
  19              		.weak	_ZN5daisy6SwitchD2Ev
  20              		.arch armv7e-m
  21              		.syntax unified
  22              		.thumb
  23              		.thumb_func
  24              		.fpu fpv5-d16
  26              	_ZN5daisy6SwitchD2Ev:
  27              	.LVL0:
  28              	.LFB1570:
  29              		.file 1 "../../libDaisy//src/hid/switch.h"
   1:../../libDaisy//src/hid/switch.h **** #pragma once
   2:../../libDaisy//src/hid/switch.h **** #ifndef DSY_SWITCH_H
   3:../../libDaisy//src/hid/switch.h **** #define DSY_SWITCH_H
   4:../../libDaisy//src/hid/switch.h **** #include "daisy_core.h"
   5:../../libDaisy//src/hid/switch.h **** #include "per/gpio.h"
   6:../../libDaisy//src/hid/switch.h **** #include "sys/system.h"
   7:../../libDaisy//src/hid/switch.h **** 
   8:../../libDaisy//src/hid/switch.h **** namespace daisy
   9:../../libDaisy//src/hid/switch.h **** {
  10:../../libDaisy//src/hid/switch.h **** /** 
  11:../../libDaisy//src/hid/switch.h ****     Generic Class for handling momentary/latching switches \n 
  12:../../libDaisy//src/hid/switch.h ****     Inspired/influenced by Mutable Instruments (pichenettes) Switch classes
  13:../../libDaisy//src/hid/switch.h ****     @author Stephen Hensley
  14:../../libDaisy//src/hid/switch.h ****     @date December 2019
  15:../../libDaisy//src/hid/switch.h ****     @ingroup controls
  16:../../libDaisy//src/hid/switch.h **** */
  17:../../libDaisy//src/hid/switch.h **** class Switch
  18:../../libDaisy//src/hid/switch.h **** {
  19:../../libDaisy//src/hid/switch.h ****   public:
  20:../../libDaisy//src/hid/switch.h ****     /** Specifies the expected behavior of the switch */
  21:../../libDaisy//src/hid/switch.h ****     enum Type
  22:../../libDaisy//src/hid/switch.h ****     {
  23:../../libDaisy//src/hid/switch.h ****         TYPE_TOGGLE,    /**< & */
  24:../../libDaisy//src/hid/switch.h ****         TYPE_MOMENTARY, /**< & */
  25:../../libDaisy//src/hid/switch.h ****     };
  26:../../libDaisy//src/hid/switch.h ****     /** Specifies whether the pressed is HIGH or LOW. */
  27:../../libDaisy//src/hid/switch.h ****     enum Polarity
  28:../../libDaisy//src/hid/switch.h ****     {
  29:../../libDaisy//src/hid/switch.h ****         POLARITY_NORMAL,   /**< & */
ARM GAS  C:\Users\danst\AppData\Local\Temp\cczkfCFF.s 			page 2


  30:../../libDaisy//src/hid/switch.h ****         POLARITY_INVERTED, /**< & */
  31:../../libDaisy//src/hid/switch.h ****     };
  32:../../libDaisy//src/hid/switch.h **** 
  33:../../libDaisy//src/hid/switch.h ****     /** Specifies whether to use built-in Pull Up/Down resistors to hold button at a given state wh
  34:../../libDaisy//src/hid/switch.h ****     enum Pull
  35:../../libDaisy//src/hid/switch.h ****     {
  36:../../libDaisy//src/hid/switch.h ****         PULL_UP,   /**< & */
  37:../../libDaisy//src/hid/switch.h ****         PULL_DOWN, /**< & */
  38:../../libDaisy//src/hid/switch.h ****         PULL_NONE, /**< & */
  39:../../libDaisy//src/hid/switch.h ****     };
  40:../../libDaisy//src/hid/switch.h **** 
  41:../../libDaisy//src/hid/switch.h ****     Switch() {}
  42:../../libDaisy//src/hid/switch.h ****     ~Switch() {}
  30              		.loc 1 42 5 view -0
  31              		.cfi_startproc
  32              		@ args = 0, pretend = 0, frame = 0
  33              		@ frame_needed = 0, uses_anonymous_args = 0
  34              		@ link register save eliminated.
  35              		.loc 1 42 16 is_stmt 0 view .LVU1
  36 0000 7047     		bx	lr
  37              		.cfi_endproc
  38              	.LFE1570:
  40              		.weak	_ZN5daisy6SwitchD1Ev
  41              		.thumb_set _ZN5daisy6SwitchD1Ev,_ZN5daisy6SwitchD2Ev
  42 0002 00BF     		.section	.text._ZN5daisy9DaisySeedD2Ev,"axG",%progbits,_ZN5daisy9DaisySeedD5Ev,comdat
  43              		.align	1
  44              		.p2align 2,,3
  45              		.weak	_ZN5daisy9DaisySeedD2Ev
  46              		.syntax unified
  47              		.thumb
  48              		.thumb_func
  49              		.fpu fpv5-d16
  51              	_ZN5daisy9DaisySeedD2Ev:
  52              	.LVL1:
  53              	.LFB2167:
  54              		.file 2 "../../libDaisy//src/daisy_seed.h"
   1:../../libDaisy//src/daisy_seed.h **** #pragma once
   2:../../libDaisy//src/daisy_seed.h **** #ifndef DSY_SEED_H
   3:../../libDaisy//src/daisy_seed.h **** #define DSY_SEED_H
   4:../../libDaisy//src/daisy_seed.h **** 
   5:../../libDaisy//src/daisy_seed.h **** #include "daisy.h"
   6:../../libDaisy//src/daisy_seed.h **** 
   7:../../libDaisy//src/daisy_seed.h **** //Uncomment this out if you're still using the rev2 hardware
   8:../../libDaisy//src/daisy_seed.h **** //#define SEED_REV2
   9:../../libDaisy//src/daisy_seed.h **** 
  10:../../libDaisy//src/daisy_seed.h **** namespace daisy
  11:../../libDaisy//src/daisy_seed.h **** {
  12:../../libDaisy//src/daisy_seed.h **** /**
  13:../../libDaisy//src/daisy_seed.h ****    @brief This is the higher-level interface for the Daisy board. \n 
  14:../../libDaisy//src/daisy_seed.h ****     All basic peripheral configuration/initialization is setup here. \n
  15:../../libDaisy//src/daisy_seed.h **** 
  16:../../libDaisy//src/daisy_seed.h ****    @ingroup boards
  17:../../libDaisy//src/daisy_seed.h **** */
  18:../../libDaisy//src/daisy_seed.h **** class DaisySeed
  19:../../libDaisy//src/daisy_seed.h **** {
  20:../../libDaisy//src/daisy_seed.h ****   public:
  21:../../libDaisy//src/daisy_seed.h ****     DaisySeed() {}
ARM GAS  C:\Users\danst\AppData\Local\Temp\cczkfCFF.s 			page 3


  22:../../libDaisy//src/daisy_seed.h ****     ~DaisySeed() {}
  55              		.loc 2 22 5 is_stmt 1 view -0
  56              		.cfi_startproc
  57              		@ args = 0, pretend = 0, frame = 0
  58              		@ frame_needed = 0, uses_anonymous_args = 0
  59              		@ link register save eliminated.
  60              	.LBB345:
  61              	.LBI345:
  62              		.file 3 "../../libDaisy//src/sys/system.h"
   1:../../libDaisy//src/sys/system.h **** #ifndef DSY_SYSTEM_H
   2:../../libDaisy//src/sys/system.h **** #define DSY_SYSTEM_H
   3:../../libDaisy//src/sys/system.h **** 
   4:../../libDaisy//src/sys/system.h **** #ifndef UNIT_TEST // for unit tests, a dummy implementation is provided below
   5:../../libDaisy//src/sys/system.h **** 
   6:../../libDaisy//src/sys/system.h **** #include <cstdint>
   7:../../libDaisy//src/sys/system.h **** #include "per/tim.h"
   8:../../libDaisy//src/sys/system.h **** 
   9:../../libDaisy//src/sys/system.h **** namespace daisy
  10:../../libDaisy//src/sys/system.h **** {
  11:../../libDaisy//src/sys/system.h **** /** A handle for interacting with the Core System. 
  12:../../libDaisy//src/sys/system.h ****  ** This includes the Clock tree, MPU, global DMA initialization,
  13:../../libDaisy//src/sys/system.h ****  ** cache handling, and any other necessary global initiailzation
  14:../../libDaisy//src/sys/system.h ****  **
  15:../../libDaisy//src/sys/system.h ****  ** @author shensley
  16:../../libDaisy//src/sys/system.h ****  ** @ingroup system
  17:../../libDaisy//src/sys/system.h ****  */
  18:../../libDaisy//src/sys/system.h **** class System
  19:../../libDaisy//src/sys/system.h **** {
  20:../../libDaisy//src/sys/system.h ****   public:
  21:../../libDaisy//src/sys/system.h ****     /** Contains settings for initializing the System */
  22:../../libDaisy//src/sys/system.h ****     struct Config
  23:../../libDaisy//src/sys/system.h ****     {
  24:../../libDaisy//src/sys/system.h ****         /** Specifies the system clock frequency that feeds APB/AHB clocks, etc. */
  25:../../libDaisy//src/sys/system.h ****         enum class SysClkFreq
  26:../../libDaisy//src/sys/system.h ****         {
  27:../../libDaisy//src/sys/system.h ****             FREQ_400MHZ,
  28:../../libDaisy//src/sys/system.h ****             FREQ_480MHZ,
  29:../../libDaisy//src/sys/system.h ****         };
  30:../../libDaisy//src/sys/system.h **** 
  31:../../libDaisy//src/sys/system.h ****         /** Method to call on the struct to set to defaults
  32:../../libDaisy//src/sys/system.h ****          ** CPU Freq set to 400MHz
  33:../../libDaisy//src/sys/system.h ****          ** Cache Enabled 
  34:../../libDaisy//src/sys/system.h ****          ** */
  35:../../libDaisy//src/sys/system.h ****         void Defaults()
  36:../../libDaisy//src/sys/system.h ****         {
  37:../../libDaisy//src/sys/system.h ****             cpu_freq    = SysClkFreq::FREQ_400MHZ;
  38:../../libDaisy//src/sys/system.h ****             use_dcache  = true;
  39:../../libDaisy//src/sys/system.h ****             use_icache  = true;
  40:../../libDaisy//src/sys/system.h ****             skip_clocks = false;
  41:../../libDaisy//src/sys/system.h ****         }
  42:../../libDaisy//src/sys/system.h **** 
  43:../../libDaisy//src/sys/system.h ****         /** Method to call on the struct to set to boost mode:
  44:../../libDaisy//src/sys/system.h ****          ** CPU Freq set to 480MHz
  45:../../libDaisy//src/sys/system.h ****          ** Cache Enabled 
  46:../../libDaisy//src/sys/system.h ****          ** */
  47:../../libDaisy//src/sys/system.h ****         void Boost()
  48:../../libDaisy//src/sys/system.h ****         {
ARM GAS  C:\Users\danst\AppData\Local\Temp\cczkfCFF.s 			page 4


  49:../../libDaisy//src/sys/system.h ****             cpu_freq    = SysClkFreq::FREQ_480MHZ;
  50:../../libDaisy//src/sys/system.h ****             use_dcache  = true;
  51:../../libDaisy//src/sys/system.h ****             use_icache  = true;
  52:../../libDaisy//src/sys/system.h ****             skip_clocks = false;
  53:../../libDaisy//src/sys/system.h ****         }
  54:../../libDaisy//src/sys/system.h **** 
  55:../../libDaisy//src/sys/system.h ****         SysClkFreq cpu_freq;
  56:../../libDaisy//src/sys/system.h ****         bool       use_dcache;
  57:../../libDaisy//src/sys/system.h ****         bool       use_icache;
  58:../../libDaisy//src/sys/system.h ****         bool       skip_clocks;
  59:../../libDaisy//src/sys/system.h ****     };
  60:../../libDaisy//src/sys/system.h **** 
  61:../../libDaisy//src/sys/system.h ****     /** Describes the different regions of memory available to the Daisy
  62:../../libDaisy//src/sys/system.h ****      * 
  63:../../libDaisy//src/sys/system.h ****      */
  64:../../libDaisy//src/sys/system.h ****     enum MemoryRegion
  65:../../libDaisy//src/sys/system.h ****     {
  66:../../libDaisy//src/sys/system.h ****         INTERNAL_FLASH = 0,
  67:../../libDaisy//src/sys/system.h ****         ITCMRAM,
  68:../../libDaisy//src/sys/system.h ****         DTCMRAM,
  69:../../libDaisy//src/sys/system.h ****         SRAM_D1,
  70:../../libDaisy//src/sys/system.h ****         SRAM_D2,
  71:../../libDaisy//src/sys/system.h ****         SRAM_D3,
  72:../../libDaisy//src/sys/system.h ****         SDRAM,
  73:../../libDaisy//src/sys/system.h ****         QSPI,
  74:../../libDaisy//src/sys/system.h ****         INVALID_ADDRESS,
  75:../../libDaisy//src/sys/system.h ****     };
  76:../../libDaisy//src/sys/system.h **** 
  77:../../libDaisy//src/sys/system.h ****     System() {}
  78:../../libDaisy//src/sys/system.h ****     ~System() {}
  63              		.loc 3 78 5 view .LVU3
  64              		.loc 3 78 5 is_stmt 0 view .LVU4
  65              	.LBE345:
  66              	.LBB346:
  67              	.LBI346:
  68              		.file 4 "../../libDaisy//src/hid/usb.h"
   1:../../libDaisy//src/hid/usb.h **** #pragma once
   2:../../libDaisy//src/hid/usb.h **** #ifndef DSY_HID_USB_H
   3:../../libDaisy//src/hid/usb.h **** #define DSY_HID_USB_H
   4:../../libDaisy//src/hid/usb.h **** #include <stdint.h>
   5:../../libDaisy//src/hid/usb.h **** #include <stdlib.h>
   6:../../libDaisy//src/hid/usb.h **** 
   7:../../libDaisy//src/hid/usb.h **** namespace daisy
   8:../../libDaisy//src/hid/usb.h **** /** @addtogroup human_interface
   9:../../libDaisy//src/hid/usb.h ****     @{
  10:../../libDaisy//src/hid/usb.h **** */
  11:../../libDaisy//src/hid/usb.h **** 
  12:../../libDaisy//src/hid/usb.h **** {
  13:../../libDaisy//src/hid/usb.h **** /** 
  14:../../libDaisy//src/hid/usb.h ****     @brief Interface for initializing and using the USB Peripherals on the daisy
  15:../../libDaisy//src/hid/usb.h ****     @author Stephen Hensley
  16:../../libDaisy//src/hid/usb.h ****     @date December 2019
  17:../../libDaisy//src/hid/usb.h **** */
  18:../../libDaisy//src/hid/usb.h **** class UsbHandle
  19:../../libDaisy//src/hid/usb.h **** {
  20:../../libDaisy//src/hid/usb.h ****   public:
  21:../../libDaisy//src/hid/usb.h ****     /** Return values for USBHandle Functions */
ARM GAS  C:\Users\danst\AppData\Local\Temp\cczkfCFF.s 			page 5


  22:../../libDaisy//src/hid/usb.h ****     enum class Result
  23:../../libDaisy//src/hid/usb.h ****     {
  24:../../libDaisy//src/hid/usb.h ****         OK,
  25:../../libDaisy//src/hid/usb.h ****         ERR,
  26:../../libDaisy//src/hid/usb.h ****     };
  27:../../libDaisy//src/hid/usb.h **** 
  28:../../libDaisy//src/hid/usb.h ****     /** Specified which of the two USB Peripherals to initialize. */
  29:../../libDaisy//src/hid/usb.h ****     enum UsbPeriph
  30:../../libDaisy//src/hid/usb.h ****     {
  31:../../libDaisy//src/hid/usb.h ****         FS_INTERNAL, /**< Internal pin */
  32:../../libDaisy//src/hid/usb.h ****         FS_EXTERNAL, /**< FS External D+ pin is Pin 38 (GPIO32). FS External D- pin is Pin 37 (GPIO
  33:../../libDaisy//src/hid/usb.h ****         FS_BOTH,     /**< Both */
  34:../../libDaisy//src/hid/usb.h ****     };
  35:../../libDaisy//src/hid/usb.h **** 
  36:../../libDaisy//src/hid/usb.h **** 
  37:../../libDaisy//src/hid/usb.h ****     /** Function called upon reception of a buffer */
  38:../../libDaisy//src/hid/usb.h ****     typedef void (*ReceiveCallback)(uint8_t* buff, uint32_t* len);
  39:../../libDaisy//src/hid/usb.h **** 
  40:../../libDaisy//src/hid/usb.h ****     UsbHandle() {}
  41:../../libDaisy//src/hid/usb.h **** 
  42:../../libDaisy//src/hid/usb.h ****     ~UsbHandle() {}
  69              		.loc 4 42 5 is_stmt 1 view .LVU5
  70              		.loc 4 42 5 is_stmt 0 view .LVU6
  71              	.LBE346:
  72              	.LBB347:
  73              	.LBI347:
  74              		.file 5 "../../libDaisy//src/per/adc.h"
   1:../../libDaisy//src/per/adc.h **** #pragma once
   2:../../libDaisy//src/per/adc.h **** #ifndef DSY_ADC_H
   3:../../libDaisy//src/per/adc.h **** #define DSY_ADC_H /**< Macro */
   4:../../libDaisy//src/per/adc.h **** #include <stdint.h>
   5:../../libDaisy//src/per/adc.h **** #include <stdlib.h>
   6:../../libDaisy//src/per/adc.h **** #include "daisy_core.h"
   7:../../libDaisy//src/per/adc.h **** #include "per/gpio.h"
   8:../../libDaisy//src/per/adc.h **** 
   9:../../libDaisy//src/per/adc.h **** #define DSY_ADC_MAX_CHANNELS 16 /**< Maximum number of ADC channels */
  10:../../libDaisy//src/per/adc.h **** 
  11:../../libDaisy//src/per/adc.h **** namespace daisy
  12:../../libDaisy//src/per/adc.h **** {
  13:../../libDaisy//src/per/adc.h **** /** @addtogroup per_analog
  14:../../libDaisy//src/per/adc.h ****     @{
  15:../../libDaisy//src/per/adc.h **** */
  16:../../libDaisy//src/per/adc.h **** 
  17:../../libDaisy//src/per/adc.h **** /* While there may not be many configuration options here,
  18:../../libDaisy//src/per/adc.h **** using a struct like this allows us to add more configuration
  19:../../libDaisy//src/per/adc.h **** later without breaking existing functionality.
  20:../../libDaisy//src/per/adc.h **** */
  21:../../libDaisy//src/per/adc.h **** 
  22:../../libDaisy//src/per/adc.h **** /** @brief   Configuration Structure for an ADC Channel 
  23:../../libDaisy//src/per/adc.h ****  *  @details This can be used to configure a a single input, 
  24:../../libDaisy//src/per/adc.h ****  *           or a multiplexed input, allowing up to 8 inputs on 
  25:../../libDaisy//src/per/adc.h ****  *           one channel.
  26:../../libDaisy//src/per/adc.h ****  *  @note    Sharing data lines to multiple muxes _is_ possible, but
  27:../../libDaisy//src/per/adc.h ****  *           each channel sharing data lines must be set to the maximum
  28:../../libDaisy//src/per/adc.h ****  *           number of channels, even if some multiplexers have fewer
  29:../../libDaisy//src/per/adc.h ****  *           inputs connected.
  30:../../libDaisy//src/per/adc.h **** */
ARM GAS  C:\Users\danst\AppData\Local\Temp\cczkfCFF.s 			page 6


  31:../../libDaisy//src/per/adc.h **** struct AdcChannelConfig
  32:../../libDaisy//src/per/adc.h **** {
  33:../../libDaisy//src/per/adc.h ****     /** Which pin to use for multiplexing */
  34:../../libDaisy//src/per/adc.h ****     enum MuxPin
  35:../../libDaisy//src/per/adc.h ****     {
  36:../../libDaisy//src/per/adc.h ****         MUX_SEL_0,    /**< & */
  37:../../libDaisy//src/per/adc.h ****         MUX_SEL_1,    /**< & */
  38:../../libDaisy//src/per/adc.h ****         MUX_SEL_2,    /**< & */
  39:../../libDaisy//src/per/adc.h ****         MUX_SEL_LAST, /**< & */
  40:../../libDaisy//src/per/adc.h ****     };
  41:../../libDaisy//src/per/adc.h **** 
  42:../../libDaisy//src/per/adc.h ****     /** Initializes a single ADC pin as an ADC. 
  43:../../libDaisy//src/per/adc.h ****     \param pin Pin to init.
  44:../../libDaisy//src/per/adc.h ****      */
  45:../../libDaisy//src/per/adc.h ****     void InitSingle(dsy_gpio_pin pin);
  46:../../libDaisy//src/per/adc.h **** 
  47:../../libDaisy//src/per/adc.h ****     /** 
  48:../../libDaisy//src/per/adc.h ****     Initializes a single ADC pin as a Multiplexed ADC.
  49:../../libDaisy//src/per/adc.h ****     Requires a CD405X Multiplexer connected to the pin.
  50:../../libDaisy//src/per/adc.h ****     You only need to supply the mux pins that are required,
  51:../../libDaisy//src/per/adc.h ****     e.g. a 4052 mux would only require mux_0 and mux_1.
  52:../../libDaisy//src/per/adc.h ****     Internal Callbacks handle the pin addressing.
  53:../../libDaisy//src/per/adc.h ****     \param mux_channels must be 1-8
  54:../../libDaisy//src/per/adc.h ****     \param mux_0 First mux pin
  55:../../libDaisy//src/per/adc.h ****     \param mux_1 Second mux pin
  56:../../libDaisy//src/per/adc.h ****     \param mux_2 Third mux pin
  57:../../libDaisy//src/per/adc.h ****     \param adc_pin &
  58:../../libDaisy//src/per/adc.h ****     */
  59:../../libDaisy//src/per/adc.h ****     void InitMux(dsy_gpio_pin adc_pin,
  60:../../libDaisy//src/per/adc.h ****                  size_t       mux_channels,
  61:../../libDaisy//src/per/adc.h ****                  dsy_gpio_pin mux_0,
  62:../../libDaisy//src/per/adc.h ****                  dsy_gpio_pin mux_1 = {DSY_GPIOX, 0},
  63:../../libDaisy//src/per/adc.h ****                  dsy_gpio_pin mux_2 = {DSY_GPIOX, 0});
  64:../../libDaisy//src/per/adc.h **** 
  65:../../libDaisy//src/per/adc.h ****     dsy_gpio pin_;                   /**< & */
  66:../../libDaisy//src/per/adc.h ****     dsy_gpio mux_pin_[MUX_SEL_LAST]; /**< & */
  67:../../libDaisy//src/per/adc.h ****     uint8_t  mux_channels_;          /**< & */
  68:../../libDaisy//src/per/adc.h **** };
  69:../../libDaisy//src/per/adc.h **** 
  70:../../libDaisy//src/per/adc.h **** /**
  71:../../libDaisy//src/per/adc.h ****    @brief Handler for analog to digital conversion
  72:../../libDaisy//src/per/adc.h **** */
  73:../../libDaisy//src/per/adc.h **** class AdcHandle
  74:../../libDaisy//src/per/adc.h **** {
  75:../../libDaisy//src/per/adc.h ****   public:
  76:../../libDaisy//src/per/adc.h ****     /** Supported oversampling amounts */
  77:../../libDaisy//src/per/adc.h ****     enum OverSampling
  78:../../libDaisy//src/per/adc.h ****     {
  79:../../libDaisy//src/per/adc.h ****         OVS_NONE, /**< & */
  80:../../libDaisy//src/per/adc.h ****         OVS_4,    /**< & */
  81:../../libDaisy//src/per/adc.h ****         OVS_8,    /**< & */
  82:../../libDaisy//src/per/adc.h ****         OVS_16,   /**< & */
  83:../../libDaisy//src/per/adc.h ****         OVS_32,   /**< & */
  84:../../libDaisy//src/per/adc.h ****         OVS_64,   /**< & */
  85:../../libDaisy//src/per/adc.h ****         OVS_128,  /**< & */
  86:../../libDaisy//src/per/adc.h ****         OVS_256,  /**< & */
  87:../../libDaisy//src/per/adc.h ****         OVS_512,  /**< & */
ARM GAS  C:\Users\danst\AppData\Local\Temp\cczkfCFF.s 			page 7


  88:../../libDaisy//src/per/adc.h ****         OVS_1024, /**< & */
  89:../../libDaisy//src/per/adc.h ****         OVS_LAST, /**< & */
  90:../../libDaisy//src/per/adc.h ****     };
  91:../../libDaisy//src/per/adc.h **** 
  92:../../libDaisy//src/per/adc.h ****     AdcHandle() {}
  93:../../libDaisy//src/per/adc.h ****     ~AdcHandle() {}
  75              		.loc 5 93 5 is_stmt 1 view .LVU7
  76              		.loc 5 93 5 is_stmt 0 view .LVU8
  77              	.LBE347:
  78              	.LBB348:
  79              	.LBI348:
  80              		.file 6 "../../libDaisy//src/hid/audio.h"
   1:../../libDaisy//src/hid/audio.h **** #ifndef DSY_AUDIO_H
   2:../../libDaisy//src/hid/audio.h **** #define DSY_AUDIO_H /**< & */
   3:../../libDaisy//src/hid/audio.h **** 
   4:../../libDaisy//src/hid/audio.h **** #include "per/sai.h"
   5:../../libDaisy//src/hid/audio.h **** 
   6:../../libDaisy//src/hid/audio.h **** namespace daisy
   7:../../libDaisy//src/hid/audio.h **** {
   8:../../libDaisy//src/hid/audio.h **** /** @brief Audio Engine Handle
   9:../../libDaisy//src/hid/audio.h ****  *  @ingroup audio 
  10:../../libDaisy//src/hid/audio.h ****  *  @details This class allows for higher level access to an audio engine.
  11:../../libDaisy//src/hid/audio.h ****  *           If you're using a SOM like the DaisySeed or DaisyPatchSM (or any 
  12:../../libDaisy//src/hid/audio.h ****  *            board that includes one of those objects) then the intialization
  13:../../libDaisy//src/hid/audio.h ****  *            is already taken  care of.
  14:../../libDaisy//src/hid/audio.h ****  *           If you're setting up your own custom hardware, or need to make changes
  15:../../libDaisy//src/hid/audio.h ****  *           you will have to take the following steps:
  16:../../libDaisy//src/hid/audio.h ****  *             1. Create and Initialize an SaiHandle or two depending on your requirements
  17:../../libDaisy//src/hid/audio.h ****  *             2. Initialize the Audio Handle with the desired settings and the Initialized SaiHand
  18:../../libDaisy//src/hid/audio.h ****  *             3. If the connected codec requires special configuration or initialization, do so
  19:../../libDaisy//src/hid/audio.h ****  *             4. Write a callback method using either the AudioCallback or the InterleavingAudioCa
  20:../../libDaisy//src/hid/audio.h ****  *             5. Start the Audio using one of the StartAudio function
  21:../../libDaisy//src/hid/audio.h ****  */
  22:../../libDaisy//src/hid/audio.h **** class AudioHandle
  23:../../libDaisy//src/hid/audio.h **** {
  24:../../libDaisy//src/hid/audio.h ****   public:
  25:../../libDaisy//src/hid/audio.h ****     /** Manually configurable details about the Audio Engine */
  26:../../libDaisy//src/hid/audio.h ****     /** TODO: Figure out how to get samplerate in here. */
  27:../../libDaisy//src/hid/audio.h ****     struct Config
  28:../../libDaisy//src/hid/audio.h ****     {
  29:../../libDaisy//src/hid/audio.h ****         size_t                        blocksize;
  30:../../libDaisy//src/hid/audio.h ****         SaiHandle::Config::SampleRate samplerate;
  31:../../libDaisy//src/hid/audio.h ****         float                         postgain;
  32:../../libDaisy//src/hid/audio.h ****     };
  33:../../libDaisy//src/hid/audio.h **** 
  34:../../libDaisy//src/hid/audio.h ****     enum class Result
  35:../../libDaisy//src/hid/audio.h ****     {
  36:../../libDaisy//src/hid/audio.h ****         OK,
  37:../../libDaisy//src/hid/audio.h ****         ERR,
  38:../../libDaisy//src/hid/audio.h ****     };
  39:../../libDaisy//src/hid/audio.h **** 
  40:../../libDaisy//src/hid/audio.h ****     /** Non-Interleaving input buffer
  41:../../libDaisy//src/hid/audio.h ****      * Buffer arranged by float[chn][sample] 
  42:../../libDaisy//src/hid/audio.h ****      * const so that the user can't modify the input
  43:../../libDaisy//src/hid/audio.h ****      */
  44:../../libDaisy//src/hid/audio.h ****     typedef const float* const* InputBuffer;
  45:../../libDaisy//src/hid/audio.h **** 
ARM GAS  C:\Users\danst\AppData\Local\Temp\cczkfCFF.s 			page 8


  46:../../libDaisy//src/hid/audio.h ****     /** Non-Interleaving output buffer
  47:../../libDaisy//src/hid/audio.h ****      * Arranged by float[chn][sample] 
  48:../../libDaisy//src/hid/audio.h ****      */
  49:../../libDaisy//src/hid/audio.h ****     typedef float** OutputBuffer;
  50:../../libDaisy//src/hid/audio.h **** 
  51:../../libDaisy//src/hid/audio.h ****     /** Type for a Non-Interleaving audio callback 
  52:../../libDaisy//src/hid/audio.h ****      * Non-Interleaving audio callbacks in daisy will be of this type
  53:../../libDaisy//src/hid/audio.h ****      */
  54:../../libDaisy//src/hid/audio.h ****     typedef void (*AudioCallback)(InputBuffer  in,
  55:../../libDaisy//src/hid/audio.h ****                                   OutputBuffer out,
  56:../../libDaisy//src/hid/audio.h ****                                   size_t       size);
  57:../../libDaisy//src/hid/audio.h **** 
  58:../../libDaisy//src/hid/audio.h ****     /** Interleaving Input buffer
  59:../../libDaisy//src/hid/audio.h ****      ** audio is prepared as { L0, R0, L1, R1, . . . LN, RN }]
  60:../../libDaisy//src/hid/audio.h ****      ** this is const, as the user shouldn't modify it
  61:../../libDaisy//src/hid/audio.h ****     */
  62:../../libDaisy//src/hid/audio.h ****     typedef const float* InterleavingInputBuffer;
  63:../../libDaisy//src/hid/audio.h **** 
  64:../../libDaisy//src/hid/audio.h ****     /** Interleaving Output buffer 
  65:../../libDaisy//src/hid/audio.h ****      ** audio is prepared as { L0, R0, L1, R1, . . . LN, RN }
  66:../../libDaisy//src/hid/audio.h ****     */
  67:../../libDaisy//src/hid/audio.h ****     typedef float* InterleavingOutputBuffer;
  68:../../libDaisy//src/hid/audio.h **** 
  69:../../libDaisy//src/hid/audio.h ****     /** Interleaving Audio Callback 
  70:../../libDaisy//src/hid/audio.h ****      * Interleaving audio callbacks in daisy must be of this type
  71:../../libDaisy//src/hid/audio.h ****      */
  72:../../libDaisy//src/hid/audio.h ****     typedef void (*InterleavingAudioCallback)(InterleavingInputBuffer  in,
  73:../../libDaisy//src/hid/audio.h ****                                               InterleavingOutputBuffer out,
  74:../../libDaisy//src/hid/audio.h ****                                               size_t                   size);
  75:../../libDaisy//src/hid/audio.h **** 
  76:../../libDaisy//src/hid/audio.h ****     AudioHandle() : pimpl_(nullptr) {}
  77:../../libDaisy//src/hid/audio.h ****     ~AudioHandle() {}
  81              		.loc 6 77 5 is_stmt 1 view .LVU9
  82              		.loc 6 77 5 is_stmt 0 view .LVU10
  83              	.LBE348:
  84              		.loc 2 22 19 view .LVU11
  85 0000 7047     		bx	lr
  86              		.cfi_endproc
  87              	.LFE2167:
  89              		.weak	_ZN5daisy9DaisySeedD1Ev
  90              		.thumb_set _ZN5daisy9DaisySeedD1Ev,_ZN5daisy9DaisySeedD2Ev
  91 0002 00BF     		.section	.text._ZN7daisysp10OscillatorD2Ev,"axG",%progbits,_ZN7daisysp10OscillatorD5Ev,comdat
  92              		.align	1
  93              		.p2align 2,,3
  94              		.weak	_ZN7daisysp10OscillatorD2Ev
  95              		.syntax unified
  96              		.thumb
  97              		.thumb_func
  98              		.fpu fpv5-d16
 100              	_ZN7daisysp10OscillatorD2Ev:
 101              	.LVL2:
 102              	.LFB3857:
 103              		.file 7 "../../DaisySP//Source/Synthesis/oscillator.h"
   1:../../DaisySP//Source/Synthesis/oscillator.h **** #pragma once
   2:../../DaisySP//Source/Synthesis/oscillator.h **** #ifndef DSY_OSCILLATOR_H
   3:../../DaisySP//Source/Synthesis/oscillator.h **** #define DSY_OSCILLATOR_H
   4:../../DaisySP//Source/Synthesis/oscillator.h **** #include <stdint.h>
ARM GAS  C:\Users\danst\AppData\Local\Temp\cczkfCFF.s 			page 9


   5:../../DaisySP//Source/Synthesis/oscillator.h **** #include "Utility/dsp.h"
   6:../../DaisySP//Source/Synthesis/oscillator.h **** #ifdef __cplusplus
   7:../../DaisySP//Source/Synthesis/oscillator.h **** 
   8:../../DaisySP//Source/Synthesis/oscillator.h **** namespace daisysp
   9:../../DaisySP//Source/Synthesis/oscillator.h **** {
  10:../../DaisySP//Source/Synthesis/oscillator.h **** /** Synthesis of several waveforms, including polyBLEP bandlimited waveforms.
  11:../../DaisySP//Source/Synthesis/oscillator.h **** */
  12:../../DaisySP//Source/Synthesis/oscillator.h **** class Oscillator
  13:../../DaisySP//Source/Synthesis/oscillator.h **** {
  14:../../DaisySP//Source/Synthesis/oscillator.h ****   public:
  15:../../DaisySP//Source/Synthesis/oscillator.h ****     Oscillator() {}
  16:../../DaisySP//Source/Synthesis/oscillator.h ****     ~Oscillator() {}
 104              		.loc 7 16 5 is_stmt 1 view -0
 105              		.cfi_startproc
 106              		@ args = 0, pretend = 0, frame = 0
 107              		@ frame_needed = 0, uses_anonymous_args = 0
 108              		@ link register save eliminated.
 109              		.loc 7 16 20 is_stmt 0 view .LVU13
 110 0000 7047     		bx	lr
 111              		.cfi_endproc
 112              	.LFE3857:
 114              		.weak	_ZN7daisysp10OscillatorD1Ev
 115              		.thumb_set _ZN7daisysp10OscillatorD1Ev,_ZN7daisysp10OscillatorD2Ev
 116              		.section	.text._ZN7daisysp23VariableShapeOscillatorD2Ev,"axG",%progbits,_ZN7daisysp23VariableShape
 117              		.align	1
 118              		.p2align 2,,3
 119              		.weak	_ZN7daisysp23VariableShapeOscillatorD2Ev
 120              		.syntax unified
 121              		.thumb
 122              		.thumb_func
 123              		.fpu fpv5-d16
 125              	_ZN7daisysp23VariableShapeOscillatorD2Ev:
 126              	.LVL3:
 127              	.LFB4331:
 128              		.file 8 "../../DaisySP//Source/Synthesis/variableshapeosc.h"
   1:../../DaisySP//Source/Synthesis/variableshapeosc.h **** #pragma once
   2:../../DaisySP//Source/Synthesis/variableshapeosc.h **** #ifndef DSY_VARIABLESHAPEOSCILLATOR_H
   3:../../DaisySP//Source/Synthesis/variableshapeosc.h **** #define DSY_VARIABLESHAPEOSCILLATOR_H
   4:../../DaisySP//Source/Synthesis/variableshapeosc.h **** 
   5:../../DaisySP//Source/Synthesis/variableshapeosc.h **** #include <stdint.h>
   6:../../DaisySP//Source/Synthesis/variableshapeosc.h **** #ifdef __cplusplus
   7:../../DaisySP//Source/Synthesis/variableshapeosc.h **** 
   8:../../DaisySP//Source/Synthesis/variableshapeosc.h **** /** @file variableshapeosc.h */
   9:../../DaisySP//Source/Synthesis/variableshapeosc.h **** 
  10:../../DaisySP//Source/Synthesis/variableshapeosc.h **** namespace daisysp
  11:../../DaisySP//Source/Synthesis/variableshapeosc.h **** {
  12:../../DaisySP//Source/Synthesis/variableshapeosc.h **** /**         
  13:../../DaisySP//Source/Synthesis/variableshapeosc.h ****        @brief Variable Waveshape Oscillator. 
  14:../../DaisySP//Source/Synthesis/variableshapeosc.h ****        @author Ben Sergentanis
  15:../../DaisySP//Source/Synthesis/variableshapeosc.h ****        @date Dec 2020 
  16:../../DaisySP//Source/Synthesis/variableshapeosc.h ****        Continuously variable waveform. \n \n
  17:../../DaisySP//Source/Synthesis/variableshapeosc.h ****        Ported from pichenettes/eurorack/plaits/dsp/oscillator/variable_shape_oscillator.h \n 
  18:../../DaisySP//Source/Synthesis/variableshapeosc.h ****        \n to an independent module. \n
  19:../../DaisySP//Source/Synthesis/variableshapeosc.h ****        Original code written by Emilie Gillet in 2016. \n
  20:../../DaisySP//Source/Synthesis/variableshapeosc.h **** */
  21:../../DaisySP//Source/Synthesis/variableshapeosc.h **** class VariableShapeOscillator
  22:../../DaisySP//Source/Synthesis/variableshapeosc.h **** {
ARM GAS  C:\Users\danst\AppData\Local\Temp\cczkfCFF.s 			page 10


  23:../../DaisySP//Source/Synthesis/variableshapeosc.h ****   public:
  24:../../DaisySP//Source/Synthesis/variableshapeosc.h ****     VariableShapeOscillator() {}
  25:../../DaisySP//Source/Synthesis/variableshapeosc.h ****     ~VariableShapeOscillator() {}
 129              		.loc 8 25 5 is_stmt 1 view -0
 130              		.cfi_startproc
 131              		@ args = 0, pretend = 0, frame = 0
 132              		@ frame_needed = 0, uses_anonymous_args = 0
 133              		@ link register save eliminated.
 134              		.loc 8 25 33 is_stmt 0 view .LVU15
 135 0000 7047     		bx	lr
 136              		.cfi_endproc
 137              	.LFE4331:
 139              		.weak	_ZN7daisysp23VariableShapeOscillatorD1Ev
 140              		.thumb_set _ZN7daisysp23VariableShapeOscillatorD1Ev,_ZN7daisysp23VariableShapeOscillatorD2Ev
 141              		.section	.text._ZN7daisysp10WavefolderD2Ev,"axG",%progbits,_ZN7daisysp10WavefolderD5Ev,comdat
 142              		.align	1
 143              		.p2align 2,,3
 144              		.weak	_ZN7daisysp10WavefolderD2Ev
 145              		.syntax unified
 146              		.thumb
 147              		.thumb_func
 148              		.fpu fpv5-d16
 150              	_ZN7daisysp10WavefolderD2Ev:
 151              	.LVL4:
 152              	.LFB4423:
 153              		.file 9 "wavefolder.h"
   1:wavefolder.h  **** #pragma once
   2:wavefolder.h  **** #ifndef DSY_WAVEFOLDER_H
   3:wavefolder.h  **** #define DSY_WAVEFOLDER_H
   4:wavefolder.h  **** 
   5:wavefolder.h  **** #include <stdint.h>
   6:wavefolder.h  **** #include "Utility/dsp.h"
   7:wavefolder.h  **** #ifdef __cplusplus
   8:wavefolder.h  **** 
   9:wavefolder.h  **** /** @file Wavefolder.h */
  10:wavefolder.h  **** 
  11:wavefolder.h  **** namespace daisysp
  12:wavefolder.h  **** {
  13:wavefolder.h  **** /**  
  14:wavefolder.h  ****        @brief Wavefolder
  15:wavefolder.h  ****        @date August 2022
  16:wavefolder.h  **** */
  17:wavefolder.h  **** class Wavefolder {
  18:wavefolder.h  ****     public:
  19:wavefolder.h  ****         Wavefolder(){}
  20:wavefolder.h  ****         ~Wavefolder(){}
 154              		.loc 9 20 9 is_stmt 1 view -0
 155              		.cfi_startproc
 156              		@ args = 0, pretend = 0, frame = 0
 157              		@ frame_needed = 0, uses_anonymous_args = 0
 158              		@ link register save eliminated.
 159              		.loc 9 20 23 is_stmt 0 view .LVU17
 160 0000 7047     		bx	lr
 161              		.cfi_endproc
 162              	.LFE4423:
 164              		.weak	_ZN7daisysp10WavefolderD1Ev
 165              		.thumb_set _ZN7daisysp10WavefolderD1Ev,_ZN7daisysp10WavefolderD2Ev
ARM GAS  C:\Users\danst\AppData\Local\Temp\cczkfCFF.s 			page 11


 166              		.section	.text._ZN5daisy11MidiHandlerINS_16MidiUsbTransportEED2Ev,"axG",%progbits,_ZN5daisy11MidiH
 167              		.align	1
 168              		.p2align 2,,3
 169              		.weak	_ZN5daisy11MidiHandlerINS_16MidiUsbTransportEED2Ev
 170              		.syntax unified
 171              		.thumb
 172              		.thumb_func
 173              		.fpu fpv5-d16
 175              	_ZN5daisy11MidiHandlerINS_16MidiUsbTransportEED2Ev:
 176              	.LVL5:
 177              	.LFB5010:
 178              		.file 10 "../../libDaisy//src/hid/midi.h"
   1:../../libDaisy//src/hid/midi.h **** #pragma once
   2:../../libDaisy//src/hid/midi.h **** #ifndef DSY_MIDI_H
   3:../../libDaisy//src/hid/midi.h **** #define DSY_MIDI_H
   4:../../libDaisy//src/hid/midi.h **** 
   5:../../libDaisy//src/hid/midi.h **** // TODO: make this adjustable
   6:../../libDaisy//src/hid/midi.h **** #define SYSEX_BUFFER_LEN 128
   7:../../libDaisy//src/hid/midi.h **** 
   8:../../libDaisy//src/hid/midi.h **** #include <stdint.h>
   9:../../libDaisy//src/hid/midi.h **** #include <stdlib.h>
  10:../../libDaisy//src/hid/midi.h **** #include "per/uart.h"
  11:../../libDaisy//src/hid/midi.h **** #include "util/ringbuffer.h"
  12:../../libDaisy//src/hid/midi.h **** #include "hid/MidiEvent.h"
  13:../../libDaisy//src/hid/midi.h **** #include "hid/usb_midi.h"
  14:../../libDaisy//src/hid/midi.h **** #include "sys/system.h"
  15:../../libDaisy//src/hid/midi.h **** 
  16:../../libDaisy//src/hid/midi.h **** namespace daisy
  17:../../libDaisy//src/hid/midi.h **** {
  18:../../libDaisy//src/hid/midi.h **** /** @brief   Transport layer for sending and receiving MIDI data over UART 
  19:../../libDaisy//src/hid/midi.h ****  *  @details This is the mode of communication used for TRS and DIN MIDI
  20:../../libDaisy//src/hid/midi.h ****  *  @ingroup midi
  21:../../libDaisy//src/hid/midi.h **** */
  22:../../libDaisy//src/hid/midi.h **** class MidiUartTransport
  23:../../libDaisy//src/hid/midi.h **** {
  24:../../libDaisy//src/hid/midi.h ****   public:
  25:../../libDaisy//src/hid/midi.h ****     MidiUartTransport() {}
  26:../../libDaisy//src/hid/midi.h ****     ~MidiUartTransport() {}
  27:../../libDaisy//src/hid/midi.h **** 
  28:../../libDaisy//src/hid/midi.h ****     struct Config
  29:../../libDaisy//src/hid/midi.h ****     {
  30:../../libDaisy//src/hid/midi.h ****         UartHandler::Config::Peripheral periph;
  31:../../libDaisy//src/hid/midi.h ****         dsy_gpio_pin                    rx;
  32:../../libDaisy//src/hid/midi.h ****         dsy_gpio_pin                    tx;
  33:../../libDaisy//src/hid/midi.h **** 
  34:../../libDaisy//src/hid/midi.h ****         Config()
  35:../../libDaisy//src/hid/midi.h ****         {
  36:../../libDaisy//src/hid/midi.h ****             periph = UartHandler::Config::Peripheral::USART_1;
  37:../../libDaisy//src/hid/midi.h ****             rx     = {DSY_GPIOB, 7};
  38:../../libDaisy//src/hid/midi.h ****             tx     = {DSY_GPIOB, 6};
  39:../../libDaisy//src/hid/midi.h ****         }
  40:../../libDaisy//src/hid/midi.h ****     };
  41:../../libDaisy//src/hid/midi.h **** 
  42:../../libDaisy//src/hid/midi.h ****     inline void Init(Config config)
  43:../../libDaisy//src/hid/midi.h ****     {
  44:../../libDaisy//src/hid/midi.h ****         UartHandler::Config uart_config;
  45:../../libDaisy//src/hid/midi.h **** 
ARM GAS  C:\Users\danst\AppData\Local\Temp\cczkfCFF.s 			page 12


  46:../../libDaisy//src/hid/midi.h ****         //defaults
  47:../../libDaisy//src/hid/midi.h ****         uart_config.baudrate   = 31250;
  48:../../libDaisy//src/hid/midi.h ****         uart_config.stopbits   = UartHandler::Config::StopBits::BITS_1;
  49:../../libDaisy//src/hid/midi.h ****         uart_config.parity     = UartHandler::Config::Parity::NONE;
  50:../../libDaisy//src/hid/midi.h ****         uart_config.mode       = UartHandler::Config::Mode::TX_RX;
  51:../../libDaisy//src/hid/midi.h ****         uart_config.wordlength = UartHandler::Config::WordLength::BITS_8;
  52:../../libDaisy//src/hid/midi.h **** 
  53:../../libDaisy//src/hid/midi.h ****         //user settings
  54:../../libDaisy//src/hid/midi.h ****         uart_config.periph        = config.periph;
  55:../../libDaisy//src/hid/midi.h ****         uart_config.pin_config.rx = config.rx;
  56:../../libDaisy//src/hid/midi.h ****         uart_config.pin_config.tx = config.tx;
  57:../../libDaisy//src/hid/midi.h **** 
  58:../../libDaisy//src/hid/midi.h ****         uart_.Init(uart_config);
  59:../../libDaisy//src/hid/midi.h ****     }
  60:../../libDaisy//src/hid/midi.h **** 
  61:../../libDaisy//src/hid/midi.h ****     inline void    StartRx() { uart_.StartRx(); }
  62:../../libDaisy//src/hid/midi.h ****     inline size_t  Readable() { return uart_.Readable(); }
  63:../../libDaisy//src/hid/midi.h ****     inline uint8_t Rx() { return uart_.PopRx(); }
  64:../../libDaisy//src/hid/midi.h ****     inline bool    RxActive() { return uart_.RxActive(); }
  65:../../libDaisy//src/hid/midi.h ****     inline void    FlushRx() { uart_.FlushRx(); }
  66:../../libDaisy//src/hid/midi.h ****     inline void    Tx(uint8_t* buff, size_t size) { uart_.PollTx(buff, size); }
  67:../../libDaisy//src/hid/midi.h **** 
  68:../../libDaisy//src/hid/midi.h ****   private:
  69:../../libDaisy//src/hid/midi.h ****     UartHandler uart_;
  70:../../libDaisy//src/hid/midi.h **** };
  71:../../libDaisy//src/hid/midi.h **** 
  72:../../libDaisy//src/hid/midi.h **** /** 
  73:../../libDaisy//src/hid/midi.h ****     @brief Simple MIDI Handler \n 
  74:../../libDaisy//src/hid/midi.h ****     Parses bytes from an input into valid MidiEvents. \n 
  75:../../libDaisy//src/hid/midi.h ****     The MidiEvents fill a FIFO queue that the user can pop messages from.
  76:../../libDaisy//src/hid/midi.h ****     @author shensley
  77:../../libDaisy//src/hid/midi.h ****     @date March 2020
  78:../../libDaisy//src/hid/midi.h ****     @ingroup midi
  79:../../libDaisy//src/hid/midi.h **** */
  80:../../libDaisy//src/hid/midi.h **** template <typename Transport>
  81:../../libDaisy//src/hid/midi.h **** class MidiHandler
  82:../../libDaisy//src/hid/midi.h **** {
  83:../../libDaisy//src/hid/midi.h ****   public:
  84:../../libDaisy//src/hid/midi.h ****     MidiHandler() {}
  85:../../libDaisy//src/hid/midi.h ****     ~MidiHandler() {}
 179              		.loc 10 85 5 is_stmt 1 view -0
 180              		.cfi_startproc
 181              		@ args = 0, pretend = 0, frame = 0
 182              		@ frame_needed = 0, uses_anonymous_args = 0
 183              		@ link register save eliminated.
 184              	.LBB349:
 185              	.LBI349:
 186              		.file 11 "../../libDaisy//src/hid/usb_midi.h"
   1:../../libDaisy//src/hid/usb_midi.h **** #pragma once
   2:../../libDaisy//src/hid/usb_midi.h **** #ifndef __DSY_MIDIUSBTRANSPORT_H__
   3:../../libDaisy//src/hid/usb_midi.h **** #define __DSY_MIDIUSBTRANSPORT_H__
   4:../../libDaisy//src/hid/usb_midi.h **** 
   5:../../libDaisy//src/hid/usb_midi.h **** #include "hid/usb.h"
   6:../../libDaisy//src/hid/usb_midi.h **** #include "sys/system.h"
   7:../../libDaisy//src/hid/usb_midi.h **** #include "util/ringbuffer.h"
   8:../../libDaisy//src/hid/usb_midi.h **** 
   9:../../libDaisy//src/hid/usb_midi.h **** namespace daisy
ARM GAS  C:\Users\danst\AppData\Local\Temp\cczkfCFF.s 			page 13


  10:../../libDaisy//src/hid/usb_midi.h **** {
  11:../../libDaisy//src/hid/usb_midi.h **** /** @brief USB Transport for MIDI 
  12:../../libDaisy//src/hid/usb_midi.h ****  *  @ingroup midi
  13:../../libDaisy//src/hid/usb_midi.h ****  */
  14:../../libDaisy//src/hid/usb_midi.h **** class MidiUsbTransport
  15:../../libDaisy//src/hid/usb_midi.h **** {
  16:../../libDaisy//src/hid/usb_midi.h ****   public:
  17:../../libDaisy//src/hid/usb_midi.h ****     // MidiUsbTransport() {}
  18:../../libDaisy//src/hid/usb_midi.h ****     ~MidiUsbTransport() {}
 187              		.loc 11 18 5 view .LVU19
 188              		.loc 11 18 5 is_stmt 0 view .LVU20
 189              	.LBE349:
 190              		.loc 10 85 21 view .LVU21
 191 0000 7047     		bx	lr
 192              		.cfi_endproc
 193              	.LFE5010:
 195              		.weak	_ZN5daisy11MidiHandlerINS_16MidiUsbTransportEED1Ev
 196              		.thumb_set _ZN5daisy11MidiHandlerINS_16MidiUsbTransportEED1Ev,_ZN5daisy11MidiHandlerINS_16MidiUsbT
 197 0002 00BF     		.section	.text._Z13AudioCallbackPKPKfPPfj,"ax",%progbits
 198              		.align	1
 199              		.p2align 2,,3
 200              		.global	_Z13AudioCallbackPKPKfPPfj
 201              		.syntax unified
 202              		.thumb
 203              		.thumb_func
 204              		.fpu fpv5-d16
 206              	_Z13AudioCallbackPKPKfPPfj:
 207              	.LVL6:
 208              	.LFB4425:
 209              		.file 12 "2Cats1Bag.cpp"
   1:2Cats1Bag.cpp **** #include "daisy_seed.h"
   2:2Cats1Bag.cpp **** #include "daisysp.h"
   3:2Cats1Bag.cpp **** #include "wavefolder.h"
   4:2Cats1Bag.cpp **** 
   5:2Cats1Bag.cpp **** using namespace daisy;
   6:2Cats1Bag.cpp **** using namespace daisysp;
   7:2Cats1Bag.cpp **** 
   8:2Cats1Bag.cpp **** DaisySeed hw;
   9:2Cats1Bag.cpp **** MidiUsbHandler midi;
  10:2Cats1Bag.cpp **** Oscillator modulator;
  11:2Cats1Bag.cpp **** VariableShapeOscillator primary;
  12:2Cats1Bag.cpp **** Wavefolder fold;
  13:2Cats1Bag.cpp **** float modulatorFrequencyModAmountAdjust, 
  14:2Cats1Bag.cpp **** 	modulatorCoarsePitchAdjust, 
  15:2Cats1Bag.cpp **** 	modulatorFinePitchAdjust, 
  16:2Cats1Bag.cpp **** 	modulatorFrequency, 
  17:2Cats1Bag.cpp **** 	
  18:2Cats1Bag.cpp **** 	primaryCoarsePitchAdjust, 
  19:2Cats1Bag.cpp **** 	primaryFinePitchAdjust, 
  20:2Cats1Bag.cpp **** 	primaryFrequency, 
  21:2Cats1Bag.cpp **** 	primaryWaveshapeAdjust,
  22:2Cats1Bag.cpp **** 	
  23:2Cats1Bag.cpp **** 	folderTimbreAdjust,
  24:2Cats1Bag.cpp **** 	folderSymmetryAdjust,
  25:2Cats1Bag.cpp **** 
  26:2Cats1Bag.cpp **** 	twoSemitonesRatio = 0.059463 * 2.0;
  27:2Cats1Bag.cpp **** 
ARM GAS  C:\Users\danst\AppData\Local\Temp\cczkfCFF.s 			page 14


  28:2Cats1Bag.cpp **** int primaryMidiNote = 24,
  29:2Cats1Bag.cpp **** 	modulatorMidiNote = 24;
  30:2Cats1Bag.cpp **** 
  31:2Cats1Bag.cpp **** enum AdcChannel {
  32:2Cats1Bag.cpp **** 	primaryCoarsePitchKnob,
  33:2Cats1Bag.cpp **** 	primaryFinePitchKnob,
  34:2Cats1Bag.cpp **** 	primaryWaveshapeKnob,
  35:2Cats1Bag.cpp **** 	
  36:2Cats1Bag.cpp **** 	modulatorCoarsePitchKnob,
  37:2Cats1Bag.cpp **** 	modulatorFinePitchKnob,
  38:2Cats1Bag.cpp **** 	modulatorFrequencyModKnob,
  39:2Cats1Bag.cpp **** 	// modulatorAmpKnob,
  40:2Cats1Bag.cpp **** 	// modulatorTimbreKnob,
  41:2Cats1Bag.cpp **** 
  42:2Cats1Bag.cpp **** 	folderTimbreKnob,
  43:2Cats1Bag.cpp **** 	folderSymmetryKnob,
  44:2Cats1Bag.cpp **** 
  45:2Cats1Bag.cpp **** 	NUM_ADC_CHANNELS
  46:2Cats1Bag.cpp **** };
  47:2Cats1Bag.cpp **** 
  48:2Cats1Bag.cpp **** Switch primaryWaveSelectButton, 
  49:2Cats1Bag.cpp **** 	modulatorWaveSelectButton, 
  50:2Cats1Bag.cpp **** 	modulatorRangeSelectButton;
  51:2Cats1Bag.cpp **** 
  52:2Cats1Bag.cpp **** void AudioCallback(
  53:2Cats1Bag.cpp **** 	AudioHandle::InputBuffer in,
  54:2Cats1Bag.cpp ****     AudioHandle::OutputBuffer out,
  55:2Cats1Bag.cpp ****     size_t size
  56:2Cats1Bag.cpp **** ){
 210              		.loc 12 56 2 is_stmt 1 view -0
 211              		.cfi_startproc
 212              		@ args = 0, pretend = 0, frame = 0
 213              		@ frame_needed = 0, uses_anonymous_args = 0
  57:2Cats1Bag.cpp **** 	for( size_t i = 0; i < size; i++ ){
 214              		.loc 12 57 2 view .LVU23
 215              	.LBB350:
 216              		.loc 12 57 23 view .LVU24
 217 0000 002A     		cmp	r2, #0
 218 0002 51D0     		beq	.L16
 219              	.LBE350:
  56:2Cats1Bag.cpp **** 	for( size_t i = 0; i < size; i++ ){
 220              		.loc 12 56 2 is_stmt 0 view .LVU25
 221 0004 2DE9F843 		push	{r3, r4, r5, r6, r7, r8, r9, lr}
 222              		.cfi_def_cfa_offset 32
 223              		.cfi_offset 3, -32
 224              		.cfi_offset 4, -28
 225              		.cfi_offset 5, -24
 226              		.cfi_offset 6, -20
 227              		.cfi_offset 7, -16
 228              		.cfi_offset 8, -12
 229              		.cfi_offset 9, -8
 230              		.cfi_offset 14, -4
 231 0008 8946     		mov	r9, r1
 232 000a 1546     		mov	r5, r2
 233              	.LBB372:
 234              		.loc 12 57 14 view .LVU26
 235 000c 0024     		movs	r4, #0
ARM GAS  C:\Users\danst\AppData\Local\Temp\cczkfCFF.s 			page 15


 236 000e DFF8B080 		ldr	r8, .L19+20
 237 0012 264F     		ldr	r7, .L19
 238 0014 264E     		ldr	r6, .L19+4
 239              	.LBE372:
  56:2Cats1Bag.cpp **** 	for( size_t i = 0; i < size; i++ ){
 240              		.loc 12 56 2 view .LVU27
 241 0016 2DED028B 		vpush.64	{d8}
 242              		.cfi_def_cfa_offset 40
 243              		.cfi_offset 80, -40
 244              		.cfi_offset 81, -36
 245              	.LVL7:
 246              	.L10:
 247              	.LBB373:
 248              	.LBB351:
  58:2Cats1Bag.cpp **** 		float modulatorSignal = modulator.Process();
 249              		.loc 12 58 3 is_stmt 1 discriminator 2 view .LVU28
 250              		.loc 12 58 44 is_stmt 0 discriminator 2 view .LVU29
 251 001a 2648     		ldr	r0, .L19+8
 252 001c FFF7FEFF 		bl	_ZN7daisysp10Oscillator7ProcessEv
 253              	.LVL8:
 254 0020 B0EE408A 		vmov.f32	s16, s0
 255              	.LVL9:
  59:2Cats1Bag.cpp **** 		float adjustedModulatorSignal = modulatorSignal * modulatorFrequencyModAmountAdjust * 10.0;
 256              		.loc 12 59 3 is_stmt 1 discriminator 2 view .LVU30
  60:2Cats1Bag.cpp **** 		primary.SetSyncFreq( primaryFrequency * ( adjustedModulatorSignal + 1.0 ) );
 257              		.loc 12 60 3 discriminator 2 view .LVU31
  59:2Cats1Bag.cpp **** 		float adjustedModulatorSignal = modulatorSignal * modulatorFrequencyModAmountAdjust * 10.0;
 258              		.loc 12 59 51 is_stmt 0 discriminator 2 view .LVU32
 259 0024 D8ED007A 		vldr.32	s15, [r8]
  59:2Cats1Bag.cpp **** 		float adjustedModulatorSignal = modulatorSignal * modulatorFrequencyModAmountAdjust * 10.0;
 260              		.loc 12 59 9 discriminator 2 view .LVU33
 261 0028 F2EE045A 		vmov.f32	s11, #1.0e+1
 262              		.loc 12 60 69 discriminator 2 view .LVU34
 263 002c B7EE006B 		vmov.f64	d6, #1.0e+0
 264              		.loc 12 60 24 discriminator 2 view .LVU35
 265 0030 97ED000A 		vldr.32	s0, [r7]
 266              	.LVL10:
  59:2Cats1Bag.cpp **** 		float adjustedModulatorSignal = modulatorSignal * modulatorFrequencyModAmountAdjust * 10.0;
 267              		.loc 12 59 51 discriminator 2 view .LVU36
 268 0034 28EE277A 		vmul.f32	s14, s16, s15
 269              		.loc 12 60 22 discriminator 2 view .LVU37
 270 0038 1F48     		ldr	r0, .L19+12
 271              		.loc 12 60 24 discriminator 2 view .LVU38
 272 003a B7EEC00A 		vcvt.f64.f32	d0, s0
  59:2Cats1Bag.cpp **** 		float adjustedModulatorSignal = modulatorSignal * modulatorFrequencyModAmountAdjust * 10.0;
 273              		.loc 12 59 9 discriminator 2 view .LVU39
 274 003e 27EE257A 		vmul.f32	s14, s14, s11
 275              	.LVL11:
 276              		.loc 12 60 45 discriminator 2 view .LVU40
 277 0042 B7EEC77A 		vcvt.f64.f32	d7, s14
 278              	.LVL12:
 279              		.loc 12 60 69 discriminator 2 view .LVU41
 280 0046 37EE067B 		vadd.f64	d7, d7, d6
 281              		.loc 12 60 41 discriminator 2 view .LVU42
 282 004a 27EE000B 		vmul.f64	d0, d7, d0
 283              		.loc 12 60 22 discriminator 2 view .LVU43
 284 004e B7EEC00B 		vcvt.f32.f64	s0, d0
ARM GAS  C:\Users\danst\AppData\Local\Temp\cczkfCFF.s 			page 16


 285 0052 FFF7FEFF 		bl	_ZN7daisysp23VariableShapeOscillator11SetSyncFreqEf
 286              	.LVL13:
  61:2Cats1Bag.cpp **** 
  62:2Cats1Bag.cpp **** 
  63:2Cats1Bag.cpp **** 		// TODO: FOLD!
  64:2Cats1Bag.cpp **** 		/*
  65:2Cats1Bag.cpp **** 		Symmetry  Adds an offset to the input so the top half of the wave starts folding earlier.
  66:2Cats1Bag.cpp **** 		Harmonics - A square wave has all odd harmonics. A saw wave has all harmonics. Subtract a square 
  67:2Cats1Bag.cpp **** 		a saw wave and you get all even harmonics. You can add odd harmonics to a signal by clipping the 
  68:2Cats1Bag.cpp **** 		tops and bottoms of the input (making it more square). So if you clip the input you are 
  69:2Cats1Bag.cpp **** 		emphasizing odd harmonics, and if you take that clipped signal and subtract it from the input 
  70:2Cats1Bag.cpp **** 		you get an emphasis on even harmonics.  
  71:2Cats1Bag.cpp **** 		Chebyshev distortion might be useful to look into. It is doing similar things, emphasizing certai
  72:2Cats1Bag.cpp **** 		http://www.endino.com/archive/arch2.html
  73:2Cats1Bag.cpp **** 		*/
  74:2Cats1Bag.cpp **** 		
  75:2Cats1Bag.cpp **** 		// MAYBE WE NEED TO INCREASE VOLUME INTO THE FOLDER? nope.
  76:2Cats1Bag.cpp **** 		// finalSignal = finalSignal * ( 1.0 +  ( folderTimbreAdjust * 10.0 ) );
  77:2Cats1Bag.cpp **** 		
  78:2Cats1Bag.cpp **** 		
  79:2Cats1Bag.cpp **** 		float finalSignal = primary.Process();
 287              		.loc 12 79 3 is_stmt 1 discriminator 2 view .LVU44
 288              		.loc 12 79 38 is_stmt 0 discriminator 2 view .LVU45
 289 0056 1848     		ldr	r0, .L19+12
 290 0058 FFF7FEFF 		bl	_ZN7daisysp23VariableShapeOscillator7ProcessEv
 291              	.LVL14:
  80:2Cats1Bag.cpp **** 		finalSignal = finalSignal + fmap( folderSymmetryAdjust, -1.0, 1.0 );
 292              		.loc 12 80 3 is_stmt 1 discriminator 2 view .LVU46
 293              	.LBB352:
 294              	.LBI352:
 295              		.file 13 "../../DaisySP//Source/Utility/dsp.h"
   1:../../DaisySP//Source/Utility/dsp.h **** /** Helpful defines, functions, and other utilities for use in/with daisysp modules.
   2:../../DaisySP//Source/Utility/dsp.h **** */
   3:../../DaisySP//Source/Utility/dsp.h **** #pragma once
   4:../../DaisySP//Source/Utility/dsp.h **** #ifndef DSY_CORE_DSP
   5:../../DaisySP//Source/Utility/dsp.h **** #define DSY_CORE_DSP
   6:../../DaisySP//Source/Utility/dsp.h **** #include <cassert>
   7:../../DaisySP//Source/Utility/dsp.h **** #include <cstdint>
   8:../../DaisySP//Source/Utility/dsp.h **** #include <random>
   9:../../DaisySP//Source/Utility/dsp.h **** #include <cmath>
  10:../../DaisySP//Source/Utility/dsp.h **** 
  11:../../DaisySP//Source/Utility/dsp.h **** /** PIs
  12:../../DaisySP//Source/Utility/dsp.h **** */
  13:../../DaisySP//Source/Utility/dsp.h **** #define PI_F 3.1415927410125732421875f
  14:../../DaisySP//Source/Utility/dsp.h **** #define TWOPI_F (2.0f * PI_F)
  15:../../DaisySP//Source/Utility/dsp.h **** #define HALFPI_F (PI_F * 0.5f)
  16:../../DaisySP//Source/Utility/dsp.h **** #define DSY_MIN(in, mn) (in < mn ? in : mn)
  17:../../DaisySP//Source/Utility/dsp.h **** #define DSY_MAX(in, mx) (in > mx ? in : mx)
  18:../../DaisySP//Source/Utility/dsp.h **** #define DSY_CLAMP(in, mn, mx) (DSY_MIN(DSY_MAX(in, mn), mx))
  19:../../DaisySP//Source/Utility/dsp.h **** #define DSY_COUNTOF(_arr) (sizeof(_arr) / sizeof(_arr[0]))
  20:../../DaisySP//Source/Utility/dsp.h **** 
  21:../../DaisySP//Source/Utility/dsp.h **** namespace daisysp
  22:../../DaisySP//Source/Utility/dsp.h **** {
  23:../../DaisySP//Source/Utility/dsp.h **** //Avoids division for random floats. e.g. rand() * kRandFrac
  24:../../DaisySP//Source/Utility/dsp.h **** static constexpr float kRandFrac = 1.f / (float)RAND_MAX;
  25:../../DaisySP//Source/Utility/dsp.h **** 
  26:../../DaisySP//Source/Utility/dsp.h **** //Convert from semitones to other units. e.g. 2 ^ (kOneTwelfth * x)
ARM GAS  C:\Users\danst\AppData\Local\Temp\cczkfCFF.s 			page 17


  27:../../DaisySP//Source/Utility/dsp.h **** static constexpr float kOneTwelfth = 1.f / 12.f;
  28:../../DaisySP//Source/Utility/dsp.h **** 
  29:../../DaisySP//Source/Utility/dsp.h **** /** efficient floating point min/max
  30:../../DaisySP//Source/Utility/dsp.h **** c/o stephen mccaul
  31:../../DaisySP//Source/Utility/dsp.h **** */
  32:../../DaisySP//Source/Utility/dsp.h **** inline float fmax(float a, float b)
  33:../../DaisySP//Source/Utility/dsp.h **** {
  34:../../DaisySP//Source/Utility/dsp.h ****     float r;
  35:../../DaisySP//Source/Utility/dsp.h **** #ifdef __arm__
  36:../../DaisySP//Source/Utility/dsp.h ****     asm("vmaxnm.f32 %[d], %[n], %[m]" : [d] "=t"(r) : [n] "t"(a), [m] "t"(b) :);
  37:../../DaisySP//Source/Utility/dsp.h **** #else
  38:../../DaisySP//Source/Utility/dsp.h ****     r = (a > b) ? a : b;
  39:../../DaisySP//Source/Utility/dsp.h **** #endif // __arm__
  40:../../DaisySP//Source/Utility/dsp.h ****     return r;
  41:../../DaisySP//Source/Utility/dsp.h **** }
  42:../../DaisySP//Source/Utility/dsp.h **** 
  43:../../DaisySP//Source/Utility/dsp.h **** inline float fmin(float a, float b)
  44:../../DaisySP//Source/Utility/dsp.h **** {
  45:../../DaisySP//Source/Utility/dsp.h ****     float r;
  46:../../DaisySP//Source/Utility/dsp.h **** #ifdef __arm__
  47:../../DaisySP//Source/Utility/dsp.h ****     asm("vminnm.f32 %[d], %[n], %[m]" : [d] "=t"(r) : [n] "t"(a), [m] "t"(b) :);
  48:../../DaisySP//Source/Utility/dsp.h **** #else
  49:../../DaisySP//Source/Utility/dsp.h ****     r = (a < b) ? a : b;
  50:../../DaisySP//Source/Utility/dsp.h **** #endif // __arm__
  51:../../DaisySP//Source/Utility/dsp.h ****     return r;
  52:../../DaisySP//Source/Utility/dsp.h **** }
  53:../../DaisySP//Source/Utility/dsp.h **** 
  54:../../DaisySP//Source/Utility/dsp.h **** /** quick fp clamp
  55:../../DaisySP//Source/Utility/dsp.h **** */
  56:../../DaisySP//Source/Utility/dsp.h **** inline float fclamp(float in, float min, float max)
  57:../../DaisySP//Source/Utility/dsp.h **** {
  58:../../DaisySP//Source/Utility/dsp.h ****     return fmin(fmax(in, min), max);
  59:../../DaisySP//Source/Utility/dsp.h **** }
  60:../../DaisySP//Source/Utility/dsp.h **** 
  61:../../DaisySP//Source/Utility/dsp.h **** /** From Musicdsp.org "Fast power and root estimates for 32bit floats)
  62:../../DaisySP//Source/Utility/dsp.h **** Original code by Stefan Stenzel
  63:../../DaisySP//Source/Utility/dsp.h **** These are approximations
  64:../../DaisySP//Source/Utility/dsp.h **** */
  65:../../DaisySP//Source/Utility/dsp.h **** inline float fastpower(float f, int n)
  66:../../DaisySP//Source/Utility/dsp.h **** {
  67:../../DaisySP//Source/Utility/dsp.h ****     long *lp, l;
  68:../../DaisySP//Source/Utility/dsp.h ****     lp = (long *)(&f);
  69:../../DaisySP//Source/Utility/dsp.h ****     l  = *lp;
  70:../../DaisySP//Source/Utility/dsp.h ****     l -= 0x3F800000;
  71:../../DaisySP//Source/Utility/dsp.h ****     l <<= (n - 1);
  72:../../DaisySP//Source/Utility/dsp.h ****     l += 0x3F800000;
  73:../../DaisySP//Source/Utility/dsp.h ****     *lp = l;
  74:../../DaisySP//Source/Utility/dsp.h ****     return f;
  75:../../DaisySP//Source/Utility/dsp.h **** }
  76:../../DaisySP//Source/Utility/dsp.h **** 
  77:../../DaisySP//Source/Utility/dsp.h **** inline float fastroot(float f, int n)
  78:../../DaisySP//Source/Utility/dsp.h **** {
  79:../../DaisySP//Source/Utility/dsp.h ****     long *lp, l;
  80:../../DaisySP//Source/Utility/dsp.h ****     lp = (long *)(&f);
  81:../../DaisySP//Source/Utility/dsp.h ****     l  = *lp;
  82:../../DaisySP//Source/Utility/dsp.h ****     l -= 0x3F800000;
  83:../../DaisySP//Source/Utility/dsp.h ****     l >>= (n = 1);
ARM GAS  C:\Users\danst\AppData\Local\Temp\cczkfCFF.s 			page 18


  84:../../DaisySP//Source/Utility/dsp.h ****     l += 0x3F800000;
  85:../../DaisySP//Source/Utility/dsp.h ****     *lp = l;
  86:../../DaisySP//Source/Utility/dsp.h ****     return f;
  87:../../DaisySP//Source/Utility/dsp.h **** }
  88:../../DaisySP//Source/Utility/dsp.h **** 
  89:../../DaisySP//Source/Utility/dsp.h **** /** From http://openaudio.blogspot.com/2017/02/faster-log10-and-pow.html
  90:../../DaisySP//Source/Utility/dsp.h **** No approximation, pow10f(x) gives a 90% speed increase over powf(10.f, x)
  91:../../DaisySP//Source/Utility/dsp.h **** */
  92:../../DaisySP//Source/Utility/dsp.h **** inline float pow10f(float f)
  93:../../DaisySP//Source/Utility/dsp.h **** {
  94:../../DaisySP//Source/Utility/dsp.h ****     return expf(2.302585092994046f * f);
  95:../../DaisySP//Source/Utility/dsp.h **** }
  96:../../DaisySP//Source/Utility/dsp.h **** 
  97:../../DaisySP//Source/Utility/dsp.h **** /* Original code for fastlog2f by Dr. Paul Beckmann from the ARM community forum, adapted from the 
  98:../../DaisySP//Source/Utility/dsp.h **** About 25% performance increase over std::log10f
  99:../../DaisySP//Source/Utility/dsp.h **** */
 100:../../DaisySP//Source/Utility/dsp.h **** inline float fastlog2f(float f)
 101:../../DaisySP//Source/Utility/dsp.h **** {
 102:../../DaisySP//Source/Utility/dsp.h ****     float frac;
 103:../../DaisySP//Source/Utility/dsp.h ****     int   exp;
 104:../../DaisySP//Source/Utility/dsp.h ****     frac = frexpf(fabsf(f), &exp);
 105:../../DaisySP//Source/Utility/dsp.h ****     f    = 1.23149591368684f;
 106:../../DaisySP//Source/Utility/dsp.h ****     f *= frac;
 107:../../DaisySP//Source/Utility/dsp.h ****     f += -4.11852516267426f;
 108:../../DaisySP//Source/Utility/dsp.h ****     f *= frac;
 109:../../DaisySP//Source/Utility/dsp.h ****     f += 6.02197014179219f;
 110:../../DaisySP//Source/Utility/dsp.h ****     f *= frac;
 111:../../DaisySP//Source/Utility/dsp.h ****     f += -3.13396450166353f;
 112:../../DaisySP//Source/Utility/dsp.h ****     f += exp;
 113:../../DaisySP//Source/Utility/dsp.h ****     return (f);
 114:../../DaisySP//Source/Utility/dsp.h **** }
 115:../../DaisySP//Source/Utility/dsp.h **** 
 116:../../DaisySP//Source/Utility/dsp.h **** inline float fastlog10f(float f)
 117:../../DaisySP//Source/Utility/dsp.h **** {
 118:../../DaisySP//Source/Utility/dsp.h ****     return fastlog2f(f) * 0.3010299956639812f;
 119:../../DaisySP//Source/Utility/dsp.h **** }
 120:../../DaisySP//Source/Utility/dsp.h **** 
 121:../../DaisySP//Source/Utility/dsp.h **** /** Midi to frequency helper
 122:../../DaisySP//Source/Utility/dsp.h **** */
 123:../../DaisySP//Source/Utility/dsp.h **** inline float mtof(float m)
 124:../../DaisySP//Source/Utility/dsp.h **** {
 125:../../DaisySP//Source/Utility/dsp.h ****     return powf(2, (m - 69.0f) / 12.0f) * 440.0f;
 126:../../DaisySP//Source/Utility/dsp.h **** }
 127:../../DaisySP//Source/Utility/dsp.h **** 
 128:../../DaisySP//Source/Utility/dsp.h **** 
 129:../../DaisySP//Source/Utility/dsp.h **** /** one pole lpf
 130:../../DaisySP//Source/Utility/dsp.h **** out is passed by reference, and must be retained between
 131:../../DaisySP//Source/Utility/dsp.h **** calls to properly filter the signal
 132:../../DaisySP//Source/Utility/dsp.h **** coeff can be calculated:
 133:../../DaisySP//Source/Utility/dsp.h **** coeff = 1.0 / (time * sample_rate) ; where time is in seconds
 134:../../DaisySP//Source/Utility/dsp.h **** */
 135:../../DaisySP//Source/Utility/dsp.h **** inline void fonepole(float &out, float in, float coeff)
 136:../../DaisySP//Source/Utility/dsp.h **** {
 137:../../DaisySP//Source/Utility/dsp.h ****     out += coeff * (in - out);
 138:../../DaisySP//Source/Utility/dsp.h **** }
 139:../../DaisySP//Source/Utility/dsp.h **** 
 140:../../DaisySP//Source/Utility/dsp.h **** /** Curves to use with the fmap function */
ARM GAS  C:\Users\danst\AppData\Local\Temp\cczkfCFF.s 			page 19


 141:../../DaisySP//Source/Utility/dsp.h **** enum class Mapping
 142:../../DaisySP//Source/Utility/dsp.h **** {
 143:../../DaisySP//Source/Utility/dsp.h ****     LINEAR,
 144:../../DaisySP//Source/Utility/dsp.h ****     EXP,
 145:../../DaisySP//Source/Utility/dsp.h ****     LOG,
 146:../../DaisySP//Source/Utility/dsp.h **** };
 147:../../DaisySP//Source/Utility/dsp.h **** 
 148:../../DaisySP//Source/Utility/dsp.h **** /** Maps a float between a specified range, using a specified curve. 
 149:../../DaisySP//Source/Utility/dsp.h ****  * 
 150:../../DaisySP//Source/Utility/dsp.h ****  *  \param in a value between 0 to 1 that will be mapped to the new range.
 151:../../DaisySP//Source/Utility/dsp.h ****  *  \param min the new minimum value
 152:../../DaisySP//Source/Utility/dsp.h ****  *  \param max the new maxmimum value
 153:../../DaisySP//Source/Utility/dsp.h ****  *  \param curve a Mapping Value to adjust the response curve of the transformation
 154:../../DaisySP//Source/Utility/dsp.h ****  *               defaults to Linear. @see Mapping
 155:../../DaisySP//Source/Utility/dsp.h ****  * 
 156:../../DaisySP//Source/Utility/dsp.h ****  *  When using the log curve min and max, must be greater than zero.
 157:../../DaisySP//Source/Utility/dsp.h ****  * 
 158:../../DaisySP//Source/Utility/dsp.h ****  *  \retval returns the transformed float within the new range.
 159:../../DaisySP//Source/Utility/dsp.h **** */
 160:../../DaisySP//Source/Utility/dsp.h **** inline float
 161:../../DaisySP//Source/Utility/dsp.h **** fmap(float in, float min, float max, Mapping curve = Mapping::LINEAR)
 296              		.loc 13 161 1 discriminator 2 view .LVU47
 297              	.LBE352:
 298              	.LBE351:
 299              	.LBE373:
 162:../../DaisySP//Source/Utility/dsp.h **** {
 163:../../DaisySP//Source/Utility/dsp.h ****     switch(curve)
 300              		.loc 13 163 5 discriminator 2 view .LVU48
 301              	.LBB374:
 302              	.LBB368:
 303              	.LBB365:
 304              	.LBB353:
 164:../../DaisySP//Source/Utility/dsp.h ****     {
 165:../../DaisySP//Source/Utility/dsp.h ****         case Mapping::EXP:
 166:../../DaisySP//Source/Utility/dsp.h ****             return fclamp(min + (in * in) * (max - min), min, max);
 167:../../DaisySP//Source/Utility/dsp.h ****         case Mapping::LOG:
 168:../../DaisySP//Source/Utility/dsp.h ****         {
 169:../../DaisySP//Source/Utility/dsp.h ****             const float a = 1.f / log10f(max / min);
 170:../../DaisySP//Source/Utility/dsp.h ****             return fclamp(min * powf(10, in / a), min, max);
 171:../../DaisySP//Source/Utility/dsp.h ****         }
 172:../../DaisySP//Source/Utility/dsp.h ****         case Mapping::LINEAR:
 305              		.loc 13 172 9 discriminator 2 view .LVU49
 173:../../DaisySP//Source/Utility/dsp.h ****         default: return fclamp(min + in * (max - min), min, max);
 306              		.loc 13 173 9 discriminator 2 view .LVU50
 307              		.loc 13 173 18 discriminator 2 view .LVU51
 308              		.loc 13 173 31 is_stmt 0 discriminator 2 view .LVU52
 309 005c BFEE007A 		vmov.f32	s14, #-1.0e+0
 310 0060 B0EE006A 		vmov.f32	s12, #2.0e+0
 311 0064 D6ED005A 		vldr.32	s11, [r6]
 312              	.LBB354:
 313              	.LBB355:
 314              	.LBB356:
  47:../../DaisySP//Source/Utility/dsp.h **** #else
 315              		.loc 13 47 5 discriminator 2 view .LVU53
 316 0068 F7EE006A 		vmov.f32	s13, #1.0e+0
 317              	.LBE356:
 318              	.LBE355:
ARM GAS  C:\Users\danst\AppData\Local\Temp\cczkfCFF.s 			page 20


 319              	.LBE354:
 320              	.LBE353:
 321              	.LBE365:
  81:2Cats1Bag.cpp **** 		finalSignal = fold.Process( finalSignal );
 322              		.loc 12 81 29 discriminator 2 view .LVU54
 323 006c 1348     		ldr	r0, .L19+16
 324              	.LBB366:
 325              	.LBB363:
 326              		.loc 13 173 31 discriminator 2 view .LVU55
 327 006e F0EE477A 		vmov.f32	s15, s14
 328 0072 E5EE867A 		vfma.f32	s15, s11, s12
 329              	.LVL15:
 330              	.LBB361:
 331              	.LBI354:
  56:../../DaisySP//Source/Utility/dsp.h **** {
 332              		.loc 13 56 14 is_stmt 1 discriminator 2 view .LVU56
 333              	.LBE361:
 334              	.LBE363:
 335              	.LBE366:
 336              	.LBE368:
 337              	.LBE374:
  58:../../DaisySP//Source/Utility/dsp.h **** }
 338              		.loc 13 58 5 discriminator 2 view .LVU57
 339              	.LBB375:
 340              	.LBB369:
 341              	.LBB367:
 342              	.LBB364:
 343              	.LBB362:
 344              	.LBB358:
 345              	.LBI358:
  32:../../DaisySP//Source/Utility/dsp.h **** {
 346              		.loc 13 32 14 discriminator 2 view .LVU58
 347              	.LBB359:
  34:../../DaisySP//Source/Utility/dsp.h **** #ifdef __arm__
 348              		.loc 13 34 5 discriminator 2 view .LVU59
  36:../../DaisySP//Source/Utility/dsp.h **** #else
 349              		.loc 13 36 5 discriminator 2 view .LVU60
 350              		.syntax unified
 351              	@ 36 "../../DaisySP//Source/Utility/dsp.h" 1
 352 0076 C7FE877A 		vmaxnm.f32 s15, s15, s14
 353              	@ 0 "" 2
 354              	.LVL16:
  40:../../DaisySP//Source/Utility/dsp.h **** }
 355              		.loc 13 40 5 discriminator 2 view .LVU61
  40:../../DaisySP//Source/Utility/dsp.h **** }
 356              		.loc 13 40 5 is_stmt 0 discriminator 2 view .LVU62
 357              		.thumb
 358              		.syntax unified
 359              	.LBE359:
 360              	.LBE358:
 361              	.LBB360:
 362              	.LBI355:
  43:../../DaisySP//Source/Utility/dsp.h **** {
 363              		.loc 13 43 14 is_stmt 1 discriminator 2 view .LVU63
 364              	.LBB357:
  45:../../DaisySP//Source/Utility/dsp.h **** #ifdef __arm__
 365              		.loc 13 45 5 discriminator 2 view .LVU64
ARM GAS  C:\Users\danst\AppData\Local\Temp\cczkfCFF.s 			page 21


  47:../../DaisySP//Source/Utility/dsp.h **** #else
 366              		.loc 13 47 5 discriminator 2 view .LVU65
 367              		.syntax unified
 368              	@ 47 "../../DaisySP//Source/Utility/dsp.h" 1
 369 007a C7FEE67A 		vminnm.f32 s15, s15, s13
 370              	@ 0 "" 2
 371              	.LVL17:
  51:../../DaisySP//Source/Utility/dsp.h **** }
 372              		.loc 13 51 5 discriminator 2 view .LVU66
  51:../../DaisySP//Source/Utility/dsp.h **** }
 373              		.loc 13 51 5 is_stmt 0 discriminator 2 view .LVU67
 374              		.thumb
 375              		.syntax unified
 376              	.LBE357:
 377              	.LBE360:
 378              	.LBE362:
 379              	.LBE364:
 380              	.LBE367:
 381              		.loc 12 81 3 is_stmt 1 discriminator 2 view .LVU68
 382              		.loc 12 81 29 is_stmt 0 discriminator 2 view .LVU69
 383 007e 30EE270A 		vadd.f32	s0, s0, s15
 384              	.LVL18:
 385              		.loc 12 81 29 discriminator 2 view .LVU70
 386 0082 FFF7FEFF 		bl	_ZN7daisysp10Wavefolder7ProcessEf
 387              	.LVL19:
  82:2Cats1Bag.cpp **** 		out[0][i] = modulatorSignal;
 388              		.loc 12 82 3 is_stmt 1 discriminator 2 view .LVU71
  83:2Cats1Bag.cpp ****         out[1][i] = finalSignal;
 389              		.loc 12 83 19 is_stmt 0 discriminator 2 view .LVU72
 390 0086 D9E90003 		ldrd	r0, r3, [r9]
  82:2Cats1Bag.cpp **** 		out[0][i] = modulatorSignal;
 391              		.loc 12 82 13 discriminator 2 view .LVU73
 392 008a 00EB8400 		add	r0, r0, r4, lsl #2
 393              		.loc 12 83 19 discriminator 2 view .LVU74
 394 008e 03EB8403 		add	r3, r3, r4, lsl #2
 395              	.LBE369:
  57:2Cats1Bag.cpp **** 		float modulatorSignal = modulator.Process();
 396              		.loc 12 57 2 discriminator 2 view .LVU75
 397 0092 0134     		adds	r4, r4, #1
 398              	.LVL20:
 399              	.LBB370:
  82:2Cats1Bag.cpp **** 		out[0][i] = modulatorSignal;
 400              		.loc 12 82 13 discriminator 2 view .LVU76
 401 0094 80ED008A 		vstr.32	s16, [r0]
 402              		.loc 12 83 9 is_stmt 1 discriminator 2 view .LVU77
 403              	.LBE370:
  57:2Cats1Bag.cpp **** 		float modulatorSignal = modulator.Process();
 404              		.loc 12 57 23 is_stmt 0 discriminator 2 view .LVU78
 405 0098 A542     		cmp	r5, r4
 406              	.LBB371:
 407              		.loc 12 83 19 discriminator 2 view .LVU79
 408 009a 83ED000A 		vstr.32	s0, [r3]
 409              	.LBE371:
  57:2Cats1Bag.cpp **** 		float modulatorSignal = modulator.Process();
 410              		.loc 12 57 2 is_stmt 1 discriminator 2 view .LVU80
 411              	.LVL21:
  57:2Cats1Bag.cpp **** 		float modulatorSignal = modulator.Process();
ARM GAS  C:\Users\danst\AppData\Local\Temp\cczkfCFF.s 			page 22


 412              		.loc 12 57 23 discriminator 2 view .LVU81
 413 009e BCD1     		bne	.L10
 414              	.LBE375:
  84:2Cats1Bag.cpp **** 	}
  85:2Cats1Bag.cpp **** }
 415              		.loc 12 85 1 is_stmt 0 view .LVU82
 416 00a0 BDEC028B 		vldm	sp!, {d8}
 417              		.cfi_restore 80
 418              		.cfi_restore 81
 419              		.cfi_def_cfa_offset 32
 420              	.LVL22:
 421              		.loc 12 85 1 view .LVU83
 422 00a4 BDE8F883 		pop	{r3, r4, r5, r6, r7, r8, r9, pc}
 423              	.LVL23:
 424              	.L16:
 425              		.cfi_def_cfa_offset 0
 426              		.cfi_restore 3
 427              		.cfi_restore 4
 428              		.cfi_restore 5
 429              		.cfi_restore 6
 430              		.cfi_restore 7
 431              		.cfi_restore 8
 432              		.cfi_restore 9
 433              		.cfi_restore 14
 434              		.loc 12 85 1 view .LVU84
 435 00a8 7047     		bx	lr
 436              	.L20:
 437 00aa 00BF     		.align	2
 438              	.L19:
 439 00ac 00000000 		.word	.LANCHOR2
 440 00b0 00000000 		.word	.LANCHOR4
 441 00b4 00000000 		.word	.LANCHOR0
 442 00b8 00000000 		.word	.LANCHOR3
 443 00bc 00000000 		.word	.LANCHOR5
 444 00c0 00000000 		.word	.LANCHOR1
 445              		.cfi_endproc
 446              	.LFE4425:
 448              		.section	.text._Z11handleKnobsv,"ax",%progbits
 449              		.align	1
 450              		.p2align 2,,3
 451              		.global	_Z11handleKnobsv
 452              		.syntax unified
 453              		.thumb
 454              		.thumb_func
 455              		.fpu fpv5-d16
 457              	_Z11handleKnobsv:
 458              	.LFB4427:
  86:2Cats1Bag.cpp **** 
  87:2Cats1Bag.cpp **** void handleMidi(){
  88:2Cats1Bag.cpp **** 	// GET MIDI NOTE NUMBER
  89:2Cats1Bag.cpp **** 	midi.Listen();
  90:2Cats1Bag.cpp **** 	while( midi.HasEvents() ){
  91:2Cats1Bag.cpp **** 		auto midiEvent = midi.PopEvent();
  92:2Cats1Bag.cpp **** 		if( midiEvent.type == NoteOn ){
  93:2Cats1Bag.cpp **** 			auto noteMessage = midiEvent.AsNoteOn();
  94:2Cats1Bag.cpp **** 			if( noteMessage.velocity != 0 ){
  95:2Cats1Bag.cpp **** 				switch( noteMessage.channel ){
ARM GAS  C:\Users\danst\AppData\Local\Temp\cczkfCFF.s 			page 23


  96:2Cats1Bag.cpp **** 					case 0:
  97:2Cats1Bag.cpp **** 						modulatorMidiNote = noteMessage.note;
  98:2Cats1Bag.cpp **** 						break;
  99:2Cats1Bag.cpp **** 					default: 
 100:2Cats1Bag.cpp **** 						primaryMidiNote = noteMessage.note;
 101:2Cats1Bag.cpp **** 				}
 102:2Cats1Bag.cpp **** 			}			
 103:2Cats1Bag.cpp **** 			// TODO: ADD CC CONTROLS FOR KNOBS AND STUFF
 104:2Cats1Bag.cpp **** 		}
 105:2Cats1Bag.cpp **** 	}
 106:2Cats1Bag.cpp **** }
 107:2Cats1Bag.cpp **** 
 108:2Cats1Bag.cpp **** void handleKnobs(){
 459              		.loc 12 108 19 is_stmt 1 view -0
 460              		.cfi_startproc
 461              		@ args = 0, pretend = 0, frame = 0
 462              		@ frame_needed = 0, uses_anonymous_args = 0
 109:2Cats1Bag.cpp **** 	// GET KNOB POSITIONS
 110:2Cats1Bag.cpp **** 	modulatorCoarsePitchAdjust = hw.adc.GetFloat( modulatorCoarsePitchKnob );
 463              		.loc 12 110 2 view .LVU86
 108:2Cats1Bag.cpp **** 	// GET KNOB POSITIONS
 464              		.loc 12 108 19 is_stmt 0 view .LVU87
 465 0000 10B5     		push	{r4, lr}
 466              		.cfi_def_cfa_offset 8
 467              		.cfi_offset 4, -8
 468              		.cfi_offset 14, -4
 469              		.loc 12 110 46 view .LVU88
 470 0002 1D4C     		ldr	r4, .L23
 471 0004 0321     		movs	r1, #3
 472 0006 2046     		mov	r0, r4
 473 0008 FFF7FEFF 		bl	_ZNK5daisy9AdcHandle8GetFloatEh
 474              	.LVL24:
 475              		.loc 12 110 29 view .LVU89
 476 000c 1B4B     		ldr	r3, .L23+4
 111:2Cats1Bag.cpp **** 	modulatorFinePitchAdjust = hw.adc.GetFloat( modulatorFinePitchKnob );
 477              		.loc 12 111 44 view .LVU90
 478 000e 0421     		movs	r1, #4
 479 0010 2046     		mov	r0, r4
 110:2Cats1Bag.cpp **** 	modulatorFinePitchAdjust = hw.adc.GetFloat( modulatorFinePitchKnob );
 480              		.loc 12 110 29 view .LVU91
 481 0012 83ED000A 		vstr.32	s0, [r3]
 482              		.loc 12 111 2 is_stmt 1 view .LVU92
 483              		.loc 12 111 44 is_stmt 0 view .LVU93
 484 0016 FFF7FEFF 		bl	_ZNK5daisy9AdcHandle8GetFloatEh
 485              	.LVL25:
 486              		.loc 12 111 27 view .LVU94
 487 001a 194B     		ldr	r3, .L23+8
 112:2Cats1Bag.cpp **** 	modulatorFrequencyModAmountAdjust = hw.adc.GetFloat( modulatorFrequencyModKnob );
 488              		.loc 12 112 53 view .LVU95
 489 001c 0521     		movs	r1, #5
 490 001e 2046     		mov	r0, r4
 111:2Cats1Bag.cpp **** 	modulatorFinePitchAdjust = hw.adc.GetFloat( modulatorFinePitchKnob );
 491              		.loc 12 111 27 view .LVU96
 492 0020 83ED000A 		vstr.32	s0, [r3]
 493              		.loc 12 112 2 is_stmt 1 view .LVU97
 494              		.loc 12 112 53 is_stmt 0 view .LVU98
 495 0024 FFF7FEFF 		bl	_ZNK5daisy9AdcHandle8GetFloatEh
ARM GAS  C:\Users\danst\AppData\Local\Temp\cczkfCFF.s 			page 24


 496              	.LVL26:
 497              		.loc 12 112 36 view .LVU99
 498 0028 164B     		ldr	r3, .L23+12
 113:2Cats1Bag.cpp **** 
 114:2Cats1Bag.cpp **** 	primaryCoarsePitchAdjust = hw.adc.GetFloat( primaryCoarsePitchKnob );
 499              		.loc 12 114 44 view .LVU100
 500 002a 0021     		movs	r1, #0
 501 002c 2046     		mov	r0, r4
 112:2Cats1Bag.cpp **** 	modulatorFrequencyModAmountAdjust = hw.adc.GetFloat( modulatorFrequencyModKnob );
 502              		.loc 12 112 36 view .LVU101
 503 002e 83ED000A 		vstr.32	s0, [r3]
 504              		.loc 12 114 2 is_stmt 1 view .LVU102
 505              		.loc 12 114 44 is_stmt 0 view .LVU103
 506 0032 FFF7FEFF 		bl	_ZNK5daisy9AdcHandle8GetFloatEh
 507              	.LVL27:
 508              		.loc 12 114 27 view .LVU104
 509 0036 144B     		ldr	r3, .L23+16
 115:2Cats1Bag.cpp **** 	primaryFinePitchAdjust = hw.adc.GetFloat( primaryFinePitchKnob );
 510              		.loc 12 115 42 view .LVU105
 511 0038 0121     		movs	r1, #1
 512 003a 2046     		mov	r0, r4
 114:2Cats1Bag.cpp **** 	primaryFinePitchAdjust = hw.adc.GetFloat( primaryFinePitchKnob );
 513              		.loc 12 114 27 view .LVU106
 514 003c 83ED000A 		vstr.32	s0, [r3]
 515              		.loc 12 115 2 is_stmt 1 view .LVU107
 516              		.loc 12 115 42 is_stmt 0 view .LVU108
 517 0040 FFF7FEFF 		bl	_ZNK5daisy9AdcHandle8GetFloatEh
 518              	.LVL28:
 519              		.loc 12 115 25 view .LVU109
 520 0044 114B     		ldr	r3, .L23+20
 116:2Cats1Bag.cpp **** 	primaryWaveshapeAdjust = hw.adc.GetFloat( primaryWaveshapeKnob );
 521              		.loc 12 116 42 view .LVU110
 522 0046 0221     		movs	r1, #2
 523 0048 2046     		mov	r0, r4
 115:2Cats1Bag.cpp **** 	primaryFinePitchAdjust = hw.adc.GetFloat( primaryFinePitchKnob );
 524              		.loc 12 115 25 view .LVU111
 525 004a 83ED000A 		vstr.32	s0, [r3]
 526              		.loc 12 116 2 is_stmt 1 view .LVU112
 527              		.loc 12 116 42 is_stmt 0 view .LVU113
 528 004e FFF7FEFF 		bl	_ZNK5daisy9AdcHandle8GetFloatEh
 529              	.LVL29:
 530              		.loc 12 116 25 view .LVU114
 531 0052 0F4B     		ldr	r3, .L23+24
 117:2Cats1Bag.cpp **** 
 118:2Cats1Bag.cpp **** 	folderTimbreAdjust = hw.adc.GetFloat( folderTimbreKnob );
 532              		.loc 12 118 38 view .LVU115
 533 0054 0621     		movs	r1, #6
 534 0056 2046     		mov	r0, r4
 116:2Cats1Bag.cpp **** 	primaryWaveshapeAdjust = hw.adc.GetFloat( primaryWaveshapeKnob );
 535              		.loc 12 116 25 view .LVU116
 536 0058 83ED000A 		vstr.32	s0, [r3]
 537              		.loc 12 118 2 is_stmt 1 view .LVU117
 538              		.loc 12 118 38 is_stmt 0 view .LVU118
 539 005c FFF7FEFF 		bl	_ZNK5daisy9AdcHandle8GetFloatEh
 540              	.LVL30:
 541              		.loc 12 118 21 view .LVU119
 542 0060 0C4B     		ldr	r3, .L23+28
ARM GAS  C:\Users\danst\AppData\Local\Temp\cczkfCFF.s 			page 25


 119:2Cats1Bag.cpp **** 	folderSymmetryAdjust = hw.adc.GetFloat( folderSymmetryKnob );
 543              		.loc 12 119 40 view .LVU120
 544 0062 0721     		movs	r1, #7
 545 0064 2046     		mov	r0, r4
 118:2Cats1Bag.cpp **** 	folderSymmetryAdjust = hw.adc.GetFloat( folderSymmetryKnob );
 546              		.loc 12 118 21 view .LVU121
 547 0066 83ED000A 		vstr.32	s0, [r3]
 548              		.loc 12 119 2 is_stmt 1 view .LVU122
 549              		.loc 12 119 40 is_stmt 0 view .LVU123
 550 006a FFF7FEFF 		bl	_ZNK5daisy9AdcHandle8GetFloatEh
 551              	.LVL31:
 552              		.loc 12 119 23 view .LVU124
 553 006e 0A4B     		ldr	r3, .L23+32
 554 0070 83ED000A 		vstr.32	s0, [r3]
 120:2Cats1Bag.cpp **** 	
 121:2Cats1Bag.cpp **** }
 555              		.loc 12 121 1 view .LVU125
 556 0074 10BD     		pop	{r4, pc}
 557              	.L24:
 558 0076 00BF     		.align	2
 559              	.L23:
 560 0078 18000000 		.word	.LANCHOR6+24
 561 007c 00000000 		.word	.LANCHOR7
 562 0080 00000000 		.word	.LANCHOR8
 563 0084 00000000 		.word	.LANCHOR1
 564 0088 00000000 		.word	.LANCHOR9
 565 008c 00000000 		.word	.LANCHOR10
 566 0090 00000000 		.word	.LANCHOR11
 567 0094 00000000 		.word	.LANCHOR12
 568 0098 00000000 		.word	.LANCHOR4
 569              		.cfi_endproc
 570              	.LFE4427:
 572              		.section	.text._Z19setPrimaryFrequencyv,"ax",%progbits
 573              		.align	1
 574              		.p2align 2,,3
 575              		.global	_Z19setPrimaryFrequencyv
 576              		.syntax unified
 577              		.thumb
 578              		.thumb_func
 579              		.fpu fpv5-d16
 581              	_Z19setPrimaryFrequencyv:
 582              	.LFB4428:
 122:2Cats1Bag.cpp **** 
 123:2Cats1Bag.cpp **** void setPrimaryFrequency(){  // CALCULATE AND SET PRIMARY FREQUENCY
 583              		.loc 12 123 27 is_stmt 1 view -0
 584              		.cfi_startproc
 585              		@ args = 0, pretend = 0, frame = 0
 586              		@ frame_needed = 0, uses_anonymous_args = 0
 124:2Cats1Bag.cpp **** 		primaryFrequency = mtof( primaryMidiNote ); // GET FREQUENCY FROM MIDI NOTE
 587              		.loc 12 124 3 view .LVU127
 588              	.LVL32:
 589              	.LBB392:
 590              	.LBI392:
 123:../../DaisySP//Source/Utility/dsp.h **** {
 591              		.loc 13 123 14 view .LVU128
 592              	.LBB393:
 125:../../DaisySP//Source/Utility/dsp.h **** }
ARM GAS  C:\Users\danst\AppData\Local\Temp\cczkfCFF.s 			page 26


 593              		.loc 13 125 5 view .LVU129
 594              	.LBE393:
 595              	.LBE392:
 123:2Cats1Bag.cpp **** 		primaryFrequency = mtof( primaryMidiNote ); // GET FREQUENCY FROM MIDI NOTE
 596              		.loc 12 123 27 is_stmt 0 view .LVU130
 597 0000 08B5     		push	{r3, lr}
 598              		.cfi_def_cfa_offset 8
 599              		.cfi_offset 3, -8
 600              		.cfi_offset 14, -4
 601              		.loc 12 124 26 view .LVU131
 602 0002 224B     		ldr	r3, .L27
 603              	.LBB397:
 604              	.LBB394:
 125:../../DaisySP//Source/Utility/dsp.h **** }
 605              		.loc 13 125 16 view .LVU132
 606 0004 F2EE080A 		vmov.f32	s1, #1.2e+1
 125:../../DaisySP//Source/Utility/dsp.h **** }
 607              		.loc 13 125 23 view .LVU133
 608 0008 9FED217A 		vldr.32	s14, .L27+4
 125:../../DaisySP//Source/Utility/dsp.h **** }
 609              		.loc 13 125 16 view .LVU134
 610 000c B0EE000A 		vmov.f32	s0, #2.0e+0
 611              	.LBE394:
 612              	.LBE397:
 613              		.loc 12 124 26 view .LVU135
 614 0010 D3ED007A 		vldr.32	s15, [r3]	@ int
 615 0014 F8EEE77A 		vcvt.f32.s32	s15, s15
 616              	.LVL33:
 617              	.LBB398:
 618              	.LBB395:
 125:../../DaisySP//Source/Utility/dsp.h **** }
 619              		.loc 13 125 23 view .LVU136
 620 0018 77EEC77A 		vsub.f32	s15, s15, s14
 621              	.LVL34:
 125:../../DaisySP//Source/Utility/dsp.h **** }
 622              		.loc 13 125 16 view .LVU137
 623 001c C7EEA00A 		vdiv.f32	s1, s15, s1
 624 0020 FFF7FEFF 		bl	powf
 625              	.LVL35:
 125:../../DaisySP//Source/Utility/dsp.h **** }
 626              		.loc 13 125 43 view .LVU138
 627 0024 DFED1B6A 		vldr.32	s13, .L27+8
 628              	.LBE395:
 629              	.LBE398:
 125:2Cats1Bag.cpp **** 		primaryFrequency = fmap( // COARSE ADJUST THE FREQUENCY UP OR DOWN BY 2 OCTAVES 
 630              		.loc 12 125 26 view .LVU139
 631 0028 1B4A     		ldr	r2, .L27+12
 126:2Cats1Bag.cpp **** 			primaryCoarsePitchAdjust, 
 127:2Cats1Bag.cpp **** 			primaryFrequency / 4.0, 
 128:2Cats1Bag.cpp **** 			primaryFrequency * 4.0
 129:2Cats1Bag.cpp **** 		);
 130:2Cats1Bag.cpp **** 		primaryFrequency = fmap( // FINE ADJUST THE FREQUENCY UP OR DOWN BY 2 SEMITONES
 131:2Cats1Bag.cpp **** 			primaryFinePitchAdjust, 
 132:2Cats1Bag.cpp **** 			primaryFrequency - ( primaryFrequency * twoSemitonesRatio ), 
 632              		.loc 12 132 42 view .LVU140
 633 002a 1C4B     		ldr	r3, .L27+16
 634              	.LBB399:
ARM GAS  C:\Users\danst\AppData\Local\Temp\cczkfCFF.s 			page 27


 635              	.LBB400:
 636              		.loc 13 173 31 view .LVU141
 637 002c 92ED005A 		vldr.32	s10, [r2]
 638              	.LBE400:
 639              	.LBE399:
 640              	.LBB409:
 641              	.LBB396:
 125:../../DaisySP//Source/Utility/dsp.h **** }
 642              		.loc 13 125 43 view .LVU142
 643 0030 20EE260A 		vmul.f32	s0, s0, s13
 125:../../DaisySP//Source/Utility/dsp.h **** }
 644              		.loc 13 125 43 view .LVU143
 645              	.LBE396:
 646              	.LBE409:
 125:2Cats1Bag.cpp **** 		primaryFrequency = fmap( // COARSE ADJUST THE FREQUENCY UP OR DOWN BY 2 OCTAVES 
 647              		.loc 12 125 3 is_stmt 1 view .LVU144
 648              		.loc 12 132 42 is_stmt 0 view .LVU145
 649 0034 D3ED006A 		vldr.32	s13, [r3]
 125:2Cats1Bag.cpp **** 		primaryFrequency = fmap( // COARSE ADJUST THE FREQUENCY UP OR DOWN BY 2 OCTAVES 
 650              		.loc 12 125 26 view .LVU146
 651 0038 B5EE007A 		vmov.f32	s14, #2.5e-1
 130:2Cats1Bag.cpp **** 			primaryFinePitchAdjust, 
 652              		.loc 12 130 26 view .LVU147
 653 003c 184A     		ldr	r2, .L27+20
 125:2Cats1Bag.cpp **** 			primaryCoarsePitchAdjust, 
 654              		.loc 12 125 26 view .LVU148
 655 003e F1EE007A 		vmov.f32	s15, #4.0e+0
 130:2Cats1Bag.cpp **** 			primaryFinePitchAdjust, 
 656              		.loc 12 130 20 view .LVU149
 657 0042 184B     		ldr	r3, .L27+24
 130:2Cats1Bag.cpp **** 			primaryFinePitchAdjust, 
 658              		.loc 12 130 26 view .LVU150
 659 0044 92ED006A 		vldr.32	s12, [r2]
 125:2Cats1Bag.cpp **** 			primaryCoarsePitchAdjust, 
 660              		.loc 12 125 26 view .LVU151
 661 0048 20EE077A 		vmul.f32	s14, s0, s14
 662 004c 60EE277A 		vmul.f32	s15, s0, s15
 663              	.LVL36:
 664              	.LBB410:
 665              	.LBI399:
 161:../../DaisySP//Source/Utility/dsp.h **** {
 666              		.loc 13 161 1 is_stmt 1 view .LVU152
 667              	.LBE410:
 163:../../DaisySP//Source/Utility/dsp.h ****     {
 668              		.loc 13 163 5 view .LVU153
 669              	.LBB411:
 670              	.LBB407:
 172:../../DaisySP//Source/Utility/dsp.h ****         default: return fclamp(min + in * (max - min), min, max);
 671              		.loc 13 172 9 view .LVU154
 672              		.loc 13 173 9 view .LVU155
 673              		.loc 13 173 18 view .LVU156
 674              		.loc 13 173 31 is_stmt 0 view .LVU157
 675 0050 B0EE470A 		vmov.f32	s0, s14
 676              		.loc 13 173 48 view .LVU158
 677 0054 77EEC75A 		vsub.f32	s11, s15, s14
 678              		.loc 13 173 31 view .LVU159
 679 0058 A5EE250A 		vfma.f32	s0, s10, s11
ARM GAS  C:\Users\danst\AppData\Local\Temp\cczkfCFF.s 			page 28


 680              	.LVL37:
 681              	.LBB401:
 682              	.LBI401:
  56:../../DaisySP//Source/Utility/dsp.h **** {
 683              		.loc 13 56 14 is_stmt 1 view .LVU160
 684              	.LBE401:
 685              	.LBE407:
 686              	.LBE411:
  58:../../DaisySP//Source/Utility/dsp.h **** }
 687              		.loc 13 58 5 view .LVU161
 688              	.LBB412:
 689              	.LBB408:
 690              	.LBB406:
 691              	.LBB402:
 692              	.LBI402:
  32:../../DaisySP//Source/Utility/dsp.h **** {
 693              		.loc 13 32 14 view .LVU162
 694              	.LBB403:
  34:../../DaisySP//Source/Utility/dsp.h **** #ifdef __arm__
 695              		.loc 13 34 5 view .LVU163
  36:../../DaisySP//Source/Utility/dsp.h **** #else
 696              		.loc 13 36 5 view .LVU164
 697              		.syntax unified
 698              	@ 36 "../../DaisySP//Source/Utility/dsp.h" 1
 699 005c 80FE070A 		vmaxnm.f32 s0, s0, s14
 700              	@ 0 "" 2
 701              	.LVL38:
  40:../../DaisySP//Source/Utility/dsp.h **** }
 702              		.loc 13 40 5 view .LVU165
  40:../../DaisySP//Source/Utility/dsp.h **** }
 703              		.loc 13 40 5 is_stmt 0 view .LVU166
 704              		.thumb
 705              		.syntax unified
 706              	.LBE403:
 707              	.LBE402:
 708              	.LBB404:
 709              	.LBI404:
  43:../../DaisySP//Source/Utility/dsp.h **** {
 710              		.loc 13 43 14 is_stmt 1 view .LVU167
 711              	.LBB405:
  45:../../DaisySP//Source/Utility/dsp.h **** #ifdef __arm__
 712              		.loc 13 45 5 view .LVU168
  47:../../DaisySP//Source/Utility/dsp.h **** #else
 713              		.loc 13 47 5 view .LVU169
 714              		.syntax unified
 715              	@ 47 "../../DaisySP//Source/Utility/dsp.h" 1
 716 0060 80FE670A 		vminnm.f32 s0, s0, s15
 717              	@ 0 "" 2
 718              	.LVL39:
  51:../../DaisySP//Source/Utility/dsp.h **** }
 719              		.loc 13 51 5 view .LVU170
  51:../../DaisySP//Source/Utility/dsp.h **** }
 720              		.loc 13 51 5 is_stmt 0 view .LVU171
 721              		.thumb
 722              		.syntax unified
 723              	.LBE405:
 724              	.LBE404:
ARM GAS  C:\Users\danst\AppData\Local\Temp\cczkfCFF.s 			page 29


 725              	.LBE406:
 726              	.LBE408:
 727              	.LBE412:
 130:2Cats1Bag.cpp **** 			primaryFinePitchAdjust, 
 728              		.loc 12 130 3 is_stmt 1 view .LVU172
 130:2Cats1Bag.cpp **** 			primaryFinePitchAdjust, 
 729              		.loc 12 130 26 is_stmt 0 view .LVU173
 730 0064 B0EE407A 		vmov.f32	s14, s0
 731 0068 A6EEC07A 		vfms.f32	s14, s13, s0
 732 006c A6EE800A 		vfma.f32	s0, s13, s0
 733              	.LVL40:
 734              	.LBB413:
 735              	.LBI413:
 161:../../DaisySP//Source/Utility/dsp.h **** {
 736              		.loc 13 161 1 is_stmt 1 view .LVU174
 737              	.LBE413:
 163:../../DaisySP//Source/Utility/dsp.h ****     {
 738              		.loc 13 163 5 view .LVU175
 739              	.LBB422:
 740              	.LBB414:
 172:../../DaisySP//Source/Utility/dsp.h ****         default: return fclamp(min + in * (max - min), min, max);
 741              		.loc 13 172 9 view .LVU176
 742              		.loc 13 173 9 view .LVU177
 743              		.loc 13 173 18 view .LVU178
 744              		.loc 13 173 31 is_stmt 0 view .LVU179
 745 0070 F0EE477A 		vmov.f32	s15, s14
 746              		.loc 13 173 48 view .LVU180
 747 0074 70EE476A 		vsub.f32	s13, s0, s14
 748              		.loc 13 173 31 view .LVU181
 749 0078 E6EE267A 		vfma.f32	s15, s12, s13
 750              	.LVL41:
 751              	.LBB415:
 752              	.LBI415:
  56:../../DaisySP//Source/Utility/dsp.h **** {
 753              		.loc 13 56 14 is_stmt 1 view .LVU182
 754              	.LBE415:
 755              	.LBE414:
 756              	.LBE422:
  58:../../DaisySP//Source/Utility/dsp.h **** }
 757              		.loc 13 58 5 view .LVU183
 758              	.LBB423:
 759              	.LBB421:
 760              	.LBB420:
 761              	.LBB416:
 762              	.LBI416:
  32:../../DaisySP//Source/Utility/dsp.h **** {
 763              		.loc 13 32 14 view .LVU184
 764              	.LBB417:
  34:../../DaisySP//Source/Utility/dsp.h **** #ifdef __arm__
 765              		.loc 13 34 5 view .LVU185
  36:../../DaisySP//Source/Utility/dsp.h **** #else
 766              		.loc 13 36 5 view .LVU186
 767              		.syntax unified
 768              	@ 36 "../../DaisySP//Source/Utility/dsp.h" 1
 769 007c C7FE877A 		vmaxnm.f32 s15, s15, s14
 770              	@ 0 "" 2
 771              	.LVL42:
ARM GAS  C:\Users\danst\AppData\Local\Temp\cczkfCFF.s 			page 30


  40:../../DaisySP//Source/Utility/dsp.h **** }
 772              		.loc 13 40 5 view .LVU187
  40:../../DaisySP//Source/Utility/dsp.h **** }
 773              		.loc 13 40 5 is_stmt 0 view .LVU188
 774              		.thumb
 775              		.syntax unified
 776              	.LBE417:
 777              	.LBE416:
 778              	.LBB418:
 779              	.LBI418:
  43:../../DaisySP//Source/Utility/dsp.h **** {
 780              		.loc 13 43 14 is_stmt 1 view .LVU189
 781              	.LBB419:
  45:../../DaisySP//Source/Utility/dsp.h **** #ifdef __arm__
 782              		.loc 13 45 5 view .LVU190
  47:../../DaisySP//Source/Utility/dsp.h **** #else
 783              		.loc 13 47 5 view .LVU191
 784              		.syntax unified
 785              	@ 47 "../../DaisySP//Source/Utility/dsp.h" 1
 786 0080 87FEC00A 		vminnm.f32 s0, s15, s0
 787              	@ 0 "" 2
 788              	.LVL43:
  51:../../DaisySP//Source/Utility/dsp.h **** }
 789              		.loc 13 51 5 view .LVU192
  51:../../DaisySP//Source/Utility/dsp.h **** }
 790              		.loc 13 51 5 is_stmt 0 view .LVU193
 791              		.thumb
 792              		.syntax unified
 793              	.LBE419:
 794              	.LBE418:
 795              	.LBE420:
 796              	.LBE421:
 797              	.LBE423:
 130:2Cats1Bag.cpp **** 			primaryFinePitchAdjust, 
 798              		.loc 12 130 20 view .LVU194
 799 0084 83ED000A 		vstr.32	s0, [r3]
 133:2Cats1Bag.cpp **** 			primaryFrequency + ( primaryFrequency * twoSemitonesRatio )
 134:2Cats1Bag.cpp **** 		);
 135:2Cats1Bag.cpp **** }
 800              		.loc 12 135 1 view .LVU195
 801 0088 08BD     		pop	{r3, pc}
 802              	.L28:
 803 008a 00BF     		.align	2
 804              	.L27:
 805 008c 00000000 		.word	.LANCHOR13
 806 0090 00008A42 		.word	1116340224
 807 0094 0000DC43 		.word	1138491392
 808 0098 00000000 		.word	.LANCHOR9
 809 009c 00000000 		.word	.LANCHOR14
 810 00a0 00000000 		.word	.LANCHOR10
 811 00a4 00000000 		.word	.LANCHOR2
 812              		.cfi_endproc
 813              	.LFE4428:
 815              		.section	.text._Z21setModulatorFrequencyv,"ax",%progbits
 816              		.align	1
 817              		.p2align 2,,3
 818              		.global	_Z21setModulatorFrequencyv
ARM GAS  C:\Users\danst\AppData\Local\Temp\cczkfCFF.s 			page 31


 819              		.syntax unified
 820              		.thumb
 821              		.thumb_func
 822              		.fpu fpv5-d16
 824              	_Z21setModulatorFrequencyv:
 825              	.LFB4429:
 136:2Cats1Bag.cpp **** 
 137:2Cats1Bag.cpp **** void setModulatorFrequency(){ // CALCULATE AND SET MODULATOR FREQUENCY
 826              		.loc 12 137 29 is_stmt 1 view -0
 827              		.cfi_startproc
 828              		@ args = 0, pretend = 0, frame = 0
 829              		@ frame_needed = 0, uses_anonymous_args = 0
 138:2Cats1Bag.cpp **** 		if( !modulatorRangeSelectButton.Pressed() ){ // SET FREQUENCY COARSE KNOB RANGE TO 0.05 - 10 HZ
 830              		.loc 12 138 3 view .LVU197
 831              	.LVL44:
 832              	.LBB451:
 833              	.LBI451:
  43:../../libDaisy//src/hid/switch.h **** 
  44:../../libDaisy//src/hid/switch.h ****     /** 
  45:../../libDaisy//src/hid/switch.h ****     Initializes the switch object with a given port/pin combo.
  46:../../libDaisy//src/hid/switch.h ****     \param pin port/pin object to tell the switch which hardware pin to use.
  47:../../libDaisy//src/hid/switch.h ****     \param update_rate Does nothing. Backwards compatibility until next breaking update.
  48:../../libDaisy//src/hid/switch.h ****     \param t switch type -- Default: TYPE_MOMENTARY
  49:../../libDaisy//src/hid/switch.h ****     \param pol switch polarity -- Default: POLARITY_INVERTED
  50:../../libDaisy//src/hid/switch.h ****     \param pu switch pull up/down -- Default: PULL_UP
  51:../../libDaisy//src/hid/switch.h ****     */
  52:../../libDaisy//src/hid/switch.h ****     void
  53:../../libDaisy//src/hid/switch.h ****     Init(dsy_gpio_pin pin, float update_rate, Type t, Polarity pol, Pull pu);
  54:../../libDaisy//src/hid/switch.h **** 
  55:../../libDaisy//src/hid/switch.h ****     /**
  56:../../libDaisy//src/hid/switch.h ****        Simplified Init.
  57:../../libDaisy//src/hid/switch.h ****        \param pin port/pin object to tell the switch which hardware pin to use.
  58:../../libDaisy//src/hid/switch.h ****        \param update_rate Left for backwards compatibility until next breaking change.
  59:../../libDaisy//src/hid/switch.h ****     */
  60:../../libDaisy//src/hid/switch.h ****     void Init(dsy_gpio_pin pin, float update_rate = 0.f);
  61:../../libDaisy//src/hid/switch.h **** 
  62:../../libDaisy//src/hid/switch.h ****     /** 
  63:../../libDaisy//src/hid/switch.h ****     Called at update_rate to debounce and handle timing for the switch.
  64:../../libDaisy//src/hid/switch.h ****     In order for events not to be missed, its important that the Edge/Pressed checks
  65:../../libDaisy//src/hid/switch.h ****     be made at the same rate as the debounce function is being called.
  66:../../libDaisy//src/hid/switch.h ****     */
  67:../../libDaisy//src/hid/switch.h ****     void Debounce();
  68:../../libDaisy//src/hid/switch.h **** 
  69:../../libDaisy//src/hid/switch.h ****     /** \return true if a button was just pressed. */
  70:../../libDaisy//src/hid/switch.h ****     inline bool RisingEdge() const { return updated_ ? state_ == 0x7f : false; }
  71:../../libDaisy//src/hid/switch.h **** 
  72:../../libDaisy//src/hid/switch.h ****     /** \return true if the button was just released */
  73:../../libDaisy//src/hid/switch.h ****     inline bool FallingEdge() const
  74:../../libDaisy//src/hid/switch.h ****     {
  75:../../libDaisy//src/hid/switch.h ****         return updated_ ? state_ == 0x80 : false;
  76:../../libDaisy//src/hid/switch.h ****     }
  77:../../libDaisy//src/hid/switch.h **** 
  78:../../libDaisy//src/hid/switch.h ****     /** \return true if the button is held down (or if the toggle is on) */
  79:../../libDaisy//src/hid/switch.h ****     inline bool Pressed() const { return state_ == 0xff; }
 834              		.loc 1 79 17 view .LVU198
 835              	.LBB452:
 836              		.loc 1 79 35 view .LVU199
ARM GAS  C:\Users\danst\AppData\Local\Temp\cczkfCFF.s 			page 32


 837              		.loc 1 79 42 is_stmt 0 view .LVU200
 838 0000 314B     		ldr	r3, .L33
 839              	.LBE452:
 840              	.LBE451:
 137:2Cats1Bag.cpp **** 		if( !modulatorRangeSelectButton.Pressed() ){ // SET FREQUENCY COARSE KNOB RANGE TO 0.05 - 10 HZ
 841              		.loc 12 137 29 view .LVU201
 842 0002 10B5     		push	{r4, lr}
 843              		.cfi_def_cfa_offset 8
 844              		.cfi_offset 4, -8
 845              		.cfi_offset 14, -4
 846              		.loc 12 138 3 view .LVU202
 847 0004 9B7A     		ldrb	r3, [r3, #10]	@ zero_extendqisi2
 848 0006 FF2B     		cmp	r3, #255
 849 0008 32D0     		beq	.L30
 139:2Cats1Bag.cpp **** 			// IGNORE MIDI NOTE IN FOR LFO-Y STUFF (??)
 140:2Cats1Bag.cpp **** 			modulatorFrequency = fmap( modulatorCoarsePitchAdjust, 0.05, 10 );		
 850              		.loc 12 140 4 is_stmt 1 view .LVU203
 851              	.LVL45:
 852              	.LBB453:
 853              	.LBI453:
 161:../../DaisySP//Source/Utility/dsp.h **** {
 854              		.loc 13 161 1 view .LVU204
 855              	.LBE453:
 163:../../DaisySP//Source/Utility/dsp.h ****     {
 856              		.loc 13 163 5 view .LVU205
 857              	.LBB466:
 858              	.LBB454:
 172:../../DaisySP//Source/Utility/dsp.h ****         default: return fclamp(min + in * (max - min), min, max);
 859              		.loc 13 172 9 view .LVU206
 860              		.loc 13 173 9 view .LVU207
 861              		.loc 13 173 18 view .LVU208
 862              		.loc 13 173 31 is_stmt 0 view .LVU209
 863 000a DFED307A 		vldr.32	s15, .L33+4
 864              	.LBB455:
 865              	.LBB456:
 866              	.LBB457:
  47:../../DaisySP//Source/Utility/dsp.h **** #else
 867              		.loc 13 47 5 view .LVU210
 868 000e B2EE047A 		vmov.f32	s14, #1.0e+1
 869              	.LBE457:
 870              	.LBE456:
 871              	.LBE455:
 872              	.LBE454:
 873              	.LBE466:
 874              		.loc 12 140 29 view .LVU211
 875 0012 2F4B     		ldr	r3, .L33+8
 876              	.LBB467:
 877              	.LBB464:
 878              		.loc 13 173 31 view .LVU212
 879 0014 B0EE670A 		vmov.f32	s0, s15
 880 0018 DFED2E6A 		vldr.32	s13, .L33+12
 881 001c 93ED006A 		vldr.32	s12, [r3]
 882 0020 A6EE260A 		vfma.f32	s0, s12, s13
 883              	.LVL46:
 884              	.LBB462:
 885              	.LBI455:
  56:../../DaisySP//Source/Utility/dsp.h **** {
ARM GAS  C:\Users\danst\AppData\Local\Temp\cczkfCFF.s 			page 33


 886              		.loc 13 56 14 is_stmt 1 view .LVU213
 887              	.LBE462:
 888              	.LBE464:
 889              	.LBE467:
  58:../../DaisySP//Source/Utility/dsp.h **** }
 890              		.loc 13 58 5 view .LVU214
 891              	.LBB468:
 892              	.LBB465:
 893              	.LBB463:
 894              	.LBB459:
 895              	.LBI459:
  32:../../DaisySP//Source/Utility/dsp.h **** {
 896              		.loc 13 32 14 view .LVU215
 897              	.LBB460:
  34:../../DaisySP//Source/Utility/dsp.h **** #ifdef __arm__
 898              		.loc 13 34 5 view .LVU216
  36:../../DaisySP//Source/Utility/dsp.h **** #else
 899              		.loc 13 36 5 view .LVU217
 900              		.syntax unified
 901              	@ 36 "../../DaisySP//Source/Utility/dsp.h" 1
 902 0024 80FE270A 		vmaxnm.f32 s0, s0, s15
 903              	@ 0 "" 2
 904              	.LVL47:
  40:../../DaisySP//Source/Utility/dsp.h **** }
 905              		.loc 13 40 5 view .LVU218
  40:../../DaisySP//Source/Utility/dsp.h **** }
 906              		.loc 13 40 5 is_stmt 0 view .LVU219
 907              		.thumb
 908              		.syntax unified
 909              	.LBE460:
 910              	.LBE459:
 911              	.LBB461:
 912              	.LBI456:
  43:../../DaisySP//Source/Utility/dsp.h **** {
 913              		.loc 13 43 14 is_stmt 1 view .LVU220
 914              	.LBB458:
  45:../../DaisySP//Source/Utility/dsp.h **** #ifdef __arm__
 915              		.loc 13 45 5 view .LVU221
  47:../../DaisySP//Source/Utility/dsp.h **** #else
 916              		.loc 13 47 5 view .LVU222
 917              		.syntax unified
 918              	@ 47 "../../DaisySP//Source/Utility/dsp.h" 1
 919 0028 80FE470A 		vminnm.f32 s0, s0, s14
 920              	@ 0 "" 2
 921              	.LVL48:
  51:../../DaisySP//Source/Utility/dsp.h **** }
 922              		.loc 13 51 5 view .LVU223
 923              		.thumb
 924              		.syntax unified
 925              	.L31:
  51:../../DaisySP//Source/Utility/dsp.h **** }
 926              		.loc 13 51 5 is_stmt 0 view .LVU224
 927              	.LBE458:
 928              	.LBE461:
 929              	.LBE463:
 930              	.LBE465:
 931              	.LBE468:
ARM GAS  C:\Users\danst\AppData\Local\Temp\cczkfCFF.s 			page 34


 141:2Cats1Bag.cpp **** 		} else { // SET FREQUENCY TO MIDI NOTE AND COARSE KNOBS
 142:2Cats1Bag.cpp **** 			modulatorFrequency = mtof( modulatorMidiNote ); // GET FREQUENCY FROM MIDI NOTE
 143:2Cats1Bag.cpp **** 			modulatorFrequency = fmap( // COARSE ADJUST THE FREQUENCY BY +/- 2 OCTAVES 
 144:2Cats1Bag.cpp **** 				modulatorCoarsePitchAdjust, 
 145:2Cats1Bag.cpp **** 				modulatorFrequency / 4.0, 
 146:2Cats1Bag.cpp **** 				modulatorFrequency * 4.0
 147:2Cats1Bag.cpp **** 			);
 148:2Cats1Bag.cpp **** 		}
 149:2Cats1Bag.cpp **** 		modulatorFrequency = fmap( // FINE ADJUST THE FREQUENCY BY +/- 2 SEMITONES
 932              		.loc 12 149 3 is_stmt 1 view .LVU225
 150:2Cats1Bag.cpp **** 			modulatorFinePitchAdjust, 
 151:2Cats1Bag.cpp **** 			modulatorFrequency - ( modulatorFrequency * twoSemitonesRatio ), 
 933              		.loc 12 151 46 is_stmt 0 view .LVU226
 934 002c 2A49     		ldr	r1, .L33+16
 149:2Cats1Bag.cpp **** 			modulatorFinePitchAdjust, 
 935              		.loc 12 149 28 view .LVU227
 936 002e B0EE407A 		vmov.f32	s14, s0
 937 0032 2A4A     		ldr	r2, .L33+20
 938              		.loc 12 151 46 view .LVU228
 939 0034 D1ED007A 		vldr.32	s15, [r1]
 940              	.LBB469:
 941              	.LBB470:
  17:../../DaisySP//Source/Synthesis/oscillator.h ****     /** Choices for output waveforms, POLYBLEP are appropriately labeled. Others are naive forms.
  18:../../DaisySP//Source/Synthesis/oscillator.h ****     */
  19:../../DaisySP//Source/Synthesis/oscillator.h ****     enum
  20:../../DaisySP//Source/Synthesis/oscillator.h ****     {
  21:../../DaisySP//Source/Synthesis/oscillator.h ****         WAVE_SIN,
  22:../../DaisySP//Source/Synthesis/oscillator.h ****         WAVE_TRI,
  23:../../DaisySP//Source/Synthesis/oscillator.h ****         WAVE_SAW,
  24:../../DaisySP//Source/Synthesis/oscillator.h ****         WAVE_RAMP,
  25:../../DaisySP//Source/Synthesis/oscillator.h ****         WAVE_SQUARE,
  26:../../DaisySP//Source/Synthesis/oscillator.h ****         WAVE_POLYBLEP_TRI,
  27:../../DaisySP//Source/Synthesis/oscillator.h ****         WAVE_POLYBLEP_SAW,
  28:../../DaisySP//Source/Synthesis/oscillator.h ****         WAVE_POLYBLEP_SQUARE,
  29:../../DaisySP//Source/Synthesis/oscillator.h ****         WAVE_LAST,
  30:../../DaisySP//Source/Synthesis/oscillator.h ****     };
  31:../../DaisySP//Source/Synthesis/oscillator.h **** 
  32:../../DaisySP//Source/Synthesis/oscillator.h **** 
  33:../../DaisySP//Source/Synthesis/oscillator.h ****     /** Initializes the Oscillator
  34:../../DaisySP//Source/Synthesis/oscillator.h **** 
  35:../../DaisySP//Source/Synthesis/oscillator.h ****         \param sample_rate - sample rate of the audio engine being run, and the frequency that the 
  36:../../DaisySP//Source/Synthesis/oscillator.h **** 
  37:../../DaisySP//Source/Synthesis/oscillator.h ****         Defaults:
  38:../../DaisySP//Source/Synthesis/oscillator.h ****         - freq_ = 100 Hz
  39:../../DaisySP//Source/Synthesis/oscillator.h ****         - amp_ = 0.5
  40:../../DaisySP//Source/Synthesis/oscillator.h ****         - waveform_ = sine wave.
  41:../../DaisySP//Source/Synthesis/oscillator.h ****     */
  42:../../DaisySP//Source/Synthesis/oscillator.h ****     void Init(float sample_rate)
  43:../../DaisySP//Source/Synthesis/oscillator.h ****     {
  44:../../DaisySP//Source/Synthesis/oscillator.h ****         sr_        = sample_rate;
  45:../../DaisySP//Source/Synthesis/oscillator.h ****         sr_recip_  = 1.0f / sample_rate;
  46:../../DaisySP//Source/Synthesis/oscillator.h ****         freq_      = 100.0f;
  47:../../DaisySP//Source/Synthesis/oscillator.h ****         amp_       = 0.5f;
  48:../../DaisySP//Source/Synthesis/oscillator.h ****         pw_        = 0.5f;
  49:../../DaisySP//Source/Synthesis/oscillator.h ****         pw_rad_    = pw_ * TWOPI_F;
  50:../../DaisySP//Source/Synthesis/oscillator.h ****         phase_     = 0.0f;
  51:../../DaisySP//Source/Synthesis/oscillator.h ****         phase_inc_ = CalcPhaseInc(freq_);
ARM GAS  C:\Users\danst\AppData\Local\Temp\cczkfCFF.s 			page 35


  52:../../DaisySP//Source/Synthesis/oscillator.h ****         waveform_  = WAVE_SIN;
  53:../../DaisySP//Source/Synthesis/oscillator.h ****         eoc_       = true;
  54:../../DaisySP//Source/Synthesis/oscillator.h ****         eor_       = true;
  55:../../DaisySP//Source/Synthesis/oscillator.h ****     }
  56:../../DaisySP//Source/Synthesis/oscillator.h **** 
  57:../../DaisySP//Source/Synthesis/oscillator.h **** 
  58:../../DaisySP//Source/Synthesis/oscillator.h ****     /** Changes the frequency of the Oscillator, and recalculates phase increment.
  59:../../DaisySP//Source/Synthesis/oscillator.h ****     */
  60:../../DaisySP//Source/Synthesis/oscillator.h ****     inline void SetFreq(const float f)
  61:../../DaisySP//Source/Synthesis/oscillator.h ****     {
  62:../../DaisySP//Source/Synthesis/oscillator.h ****         freq_      = f;
 942              		.loc 7 62 20 view .LVU229
 943 0038 294C     		ldr	r4, .L33+24
 944              	.LBE470:
 945              	.LBE469:
 149:2Cats1Bag.cpp **** 			modulatorFinePitchAdjust, 
 946              		.loc 12 149 28 view .LVU230
 947 003a A7EEC07A 		vfms.f32	s14, s15, s0
 948 003e 92ED006A 		vldr.32	s12, [r2]
 949 0042 A7EE800A 		vfma.f32	s0, s15, s0
 950              	.LVL49:
 951              	.LBB473:
 952              	.LBI473:
 161:../../DaisySP//Source/Utility/dsp.h **** {
 953              		.loc 13 161 1 is_stmt 1 view .LVU231
 954              	.LBE473:
 163:../../DaisySP//Source/Utility/dsp.h ****     {
 955              		.loc 13 163 5 view .LVU232
 956              	.LBB483:
 957              	.LBB474:
 172:../../DaisySP//Source/Utility/dsp.h ****         default: return fclamp(min + in * (max - min), min, max);
 958              		.loc 13 172 9 view .LVU233
 959              		.loc 13 173 9 view .LVU234
 960              		.loc 13 173 18 view .LVU235
 961              	.LBE474:
 962              	.LBE483:
 149:2Cats1Bag.cpp **** 			modulatorFinePitchAdjust, 
 963              		.loc 12 149 22 is_stmt 0 view .LVU236
 964 0046 274B     		ldr	r3, .L33+28
 965              	.LBB484:
 966              	.LBB471:
  63:../../DaisySP//Source/Synthesis/oscillator.h ****         phase_inc_ = CalcPhaseInc(f);
 967              		.loc 7 63 34 view .LVU237
 968 0048 2046     		mov	r0, r4
 969              	.LBE471:
 970              	.LBE484:
 971              	.LBB485:
 972              	.LBB481:
 973              		.loc 13 173 31 view .LVU238
 974 004a F0EE477A 		vmov.f32	s15, s14
 975              		.loc 13 173 48 view .LVU239
 976 004e 70EE476A 		vsub.f32	s13, s0, s14
 977              		.loc 13 173 31 view .LVU240
 978 0052 E6EE267A 		vfma.f32	s15, s12, s13
 979              	.LVL50:
 980              	.LBB475:
 981              	.LBI475:
ARM GAS  C:\Users\danst\AppData\Local\Temp\cczkfCFF.s 			page 36


  56:../../DaisySP//Source/Utility/dsp.h **** {
 982              		.loc 13 56 14 is_stmt 1 view .LVU241
 983              	.LBE475:
 984              	.LBE481:
 985              	.LBE485:
  58:../../DaisySP//Source/Utility/dsp.h **** }
 986              		.loc 13 58 5 view .LVU242
 987              	.LBB486:
 988              	.LBB482:
 989              	.LBB480:
 990              	.LBB476:
 991              	.LBI476:
  32:../../DaisySP//Source/Utility/dsp.h **** {
 992              		.loc 13 32 14 view .LVU243
 993              	.LBB477:
  34:../../DaisySP//Source/Utility/dsp.h **** #ifdef __arm__
 994              		.loc 13 34 5 view .LVU244
  36:../../DaisySP//Source/Utility/dsp.h **** #else
 995              		.loc 13 36 5 view .LVU245
 996              		.syntax unified
 997              	@ 36 "../../DaisySP//Source/Utility/dsp.h" 1
 998 0056 C7FE877A 		vmaxnm.f32 s15, s15, s14
 999              	@ 0 "" 2
 1000              	.LVL51:
  40:../../DaisySP//Source/Utility/dsp.h **** }
 1001              		.loc 13 40 5 view .LVU246
  40:../../DaisySP//Source/Utility/dsp.h **** }
 1002              		.loc 13 40 5 is_stmt 0 view .LVU247
 1003              		.thumb
 1004              		.syntax unified
 1005              	.LBE477:
 1006              	.LBE476:
 1007              	.LBB478:
 1008              	.LBI478:
  43:../../DaisySP//Source/Utility/dsp.h **** {
 1009              		.loc 13 43 14 is_stmt 1 view .LVU248
 1010              	.LBB479:
  45:../../DaisySP//Source/Utility/dsp.h **** #ifdef __arm__
 1011              		.loc 13 45 5 view .LVU249
  47:../../DaisySP//Source/Utility/dsp.h **** #else
 1012              		.loc 13 47 5 view .LVU250
 1013              		.syntax unified
 1014              	@ 47 "../../DaisySP//Source/Utility/dsp.h" 1
 1015 005a 87FEC00A 		vminnm.f32 s0, s15, s0
 1016              	@ 0 "" 2
 1017              	.LVL52:
  51:../../DaisySP//Source/Utility/dsp.h **** }
 1018              		.loc 13 51 5 view .LVU251
  51:../../DaisySP//Source/Utility/dsp.h **** }
 1019              		.loc 13 51 5 is_stmt 0 view .LVU252
 1020              		.thumb
 1021              		.syntax unified
 1022              	.LBE479:
 1023              	.LBE478:
 1024              	.LBE480:
 1025              	.LBE482:
 1026              	.LBE486:
ARM GAS  C:\Users\danst\AppData\Local\Temp\cczkfCFF.s 			page 37


 149:2Cats1Bag.cpp **** 			modulatorFinePitchAdjust, 
 1027              		.loc 12 149 22 view .LVU253
 1028 005e 83ED000A 		vstr.32	s0, [r3]
 152:2Cats1Bag.cpp **** 			modulatorFrequency + ( modulatorFrequency * twoSemitonesRatio )
 153:2Cats1Bag.cpp **** 		);
 154:2Cats1Bag.cpp **** 		modulator.SetFreq( modulatorFrequency );		
 1029              		.loc 12 154 3 is_stmt 1 view .LVU254
 1030              	.LVL53:
 1031              	.LBB487:
 1032              	.LBI469:
  60:../../DaisySP//Source/Synthesis/oscillator.h ****     {
 1033              		.loc 7 60 17 view .LVU255
 1034              	.LBB472:
  62:../../DaisySP//Source/Synthesis/oscillator.h ****         phase_inc_ = CalcPhaseInc(f);
 1035              		.loc 7 62 9 view .LVU256
  62:../../DaisySP//Source/Synthesis/oscillator.h ****         phase_inc_ = CalcPhaseInc(f);
 1036              		.loc 7 62 20 is_stmt 0 view .LVU257
 1037 0062 84ED020A 		vstr.32	s0, [r4, #8]
 1038              		.loc 7 63 9 is_stmt 1 view .LVU258
 1039              		.loc 7 63 34 is_stmt 0 view .LVU259
 1040 0066 FFF7FEFF 		bl	_ZN7daisysp10Oscillator12CalcPhaseIncEf
 1041              	.LVL54:
 1042              		.loc 7 63 20 view .LVU260
 1043 006a 84ED080A 		vstr.32	s0, [r4, #32]
 1044              	.LVL55:
 1045              		.loc 7 63 20 view .LVU261
 1046              	.LBE472:
 1047              	.LBE487:
 155:2Cats1Bag.cpp **** }
 1048              		.loc 12 155 1 view .LVU262
 1049 006e 10BD     		pop	{r4, pc}
 1050              	.L30:
 142:2Cats1Bag.cpp **** 			modulatorFrequency = fmap( // COARSE ADJUST THE FREQUENCY BY +/- 2 OCTAVES 
 1051              		.loc 12 142 4 is_stmt 1 view .LVU263
 1052              	.LVL56:
 1053              	.LBB488:
 1054              	.LBI488:
 123:../../DaisySP//Source/Utility/dsp.h **** {
 1055              		.loc 13 123 14 view .LVU264
 1056              	.LBB489:
 125:../../DaisySP//Source/Utility/dsp.h **** }
 1057              		.loc 13 125 5 view .LVU265
 1058              	.LBE489:
 1059              	.LBE488:
 142:2Cats1Bag.cpp **** 			modulatorFrequency = fmap( // COARSE ADJUST THE FREQUENCY BY +/- 2 OCTAVES 
 1060              		.loc 12 142 29 is_stmt 0 view .LVU266
 1061 0070 1D4B     		ldr	r3, .L33+32
 1062              	.LBB493:
 1063              	.LBB490:
 125:../../DaisySP//Source/Utility/dsp.h **** }
 1064              		.loc 13 125 16 view .LVU267
 1065 0072 F2EE080A 		vmov.f32	s1, #1.2e+1
 125:../../DaisySP//Source/Utility/dsp.h **** }
 1066              		.loc 13 125 23 view .LVU268
 1067 0076 9FED1D7A 		vldr.32	s14, .L33+36
 125:../../DaisySP//Source/Utility/dsp.h **** }
 1068              		.loc 13 125 16 view .LVU269
ARM GAS  C:\Users\danst\AppData\Local\Temp\cczkfCFF.s 			page 38


 1069 007a B0EE000A 		vmov.f32	s0, #2.0e+0
 1070              	.LBE490:
 1071              	.LBE493:
 142:2Cats1Bag.cpp **** 			modulatorFrequency = fmap( // COARSE ADJUST THE FREQUENCY BY +/- 2 OCTAVES 
 1072              		.loc 12 142 29 view .LVU270
 1073 007e D3ED007A 		vldr.32	s15, [r3]	@ int
 1074 0082 F8EEE77A 		vcvt.f32.s32	s15, s15
 1075              	.LVL57:
 1076              	.LBB494:
 1077              	.LBB491:
 125:../../DaisySP//Source/Utility/dsp.h **** }
 1078              		.loc 13 125 23 view .LVU271
 1079 0086 77EEC77A 		vsub.f32	s15, s15, s14
 1080              	.LVL58:
 125:../../DaisySP//Source/Utility/dsp.h **** }
 1081              		.loc 13 125 16 view .LVU272
 1082 008a C7EEA00A 		vdiv.f32	s1, s15, s1
 1083 008e FFF7FEFF 		bl	powf
 1084              	.LVL59:
 125:../../DaisySP//Source/Utility/dsp.h **** }
 1085              		.loc 13 125 43 view .LVU273
 1086 0092 DFED176A 		vldr.32	s13, .L33+40
 1087              	.LBE491:
 1088              	.LBE494:
 143:2Cats1Bag.cpp **** 				modulatorCoarsePitchAdjust, 
 1089              		.loc 12 143 29 view .LVU274
 1090 0096 0E4B     		ldr	r3, .L33+8
 1091              	.LBB495:
 1092              	.LBB496:
 1093              		.loc 13 173 31 view .LVU275
 1094 0098 93ED006A 		vldr.32	s12, [r3]
 1095              	.LBE496:
 1096              	.LBE495:
 1097              	.LBB505:
 1098              	.LBB492:
 125:../../DaisySP//Source/Utility/dsp.h **** }
 1099              		.loc 13 125 43 view .LVU276
 1100 009c 20EE260A 		vmul.f32	s0, s0, s13
 125:../../DaisySP//Source/Utility/dsp.h **** }
 1101              		.loc 13 125 43 view .LVU277
 1102              	.LBE492:
 1103              	.LBE505:
 143:2Cats1Bag.cpp **** 				modulatorCoarsePitchAdjust, 
 1104              		.loc 12 143 4 is_stmt 1 view .LVU278
 143:2Cats1Bag.cpp **** 				modulatorCoarsePitchAdjust, 
 1105              		.loc 12 143 29 is_stmt 0 view .LVU279
 1106 00a0 B5EE007A 		vmov.f32	s14, #2.5e-1
 1107 00a4 F1EE007A 		vmov.f32	s15, #4.0e+0
 1108 00a8 20EE077A 		vmul.f32	s14, s0, s14
 1109 00ac 60EE277A 		vmul.f32	s15, s0, s15
 1110              	.LVL60:
 1111              	.LBB506:
 1112              	.LBI495:
 161:../../DaisySP//Source/Utility/dsp.h **** {
 1113              		.loc 13 161 1 is_stmt 1 view .LVU280
 1114              	.LBE506:
 163:../../DaisySP//Source/Utility/dsp.h ****     {
ARM GAS  C:\Users\danst\AppData\Local\Temp\cczkfCFF.s 			page 39


 1115              		.loc 13 163 5 view .LVU281
 1116              	.LBB507:
 1117              	.LBB503:
 172:../../DaisySP//Source/Utility/dsp.h ****         default: return fclamp(min + in * (max - min), min, max);
 1118              		.loc 13 172 9 view .LVU282
 1119              		.loc 13 173 9 view .LVU283
 1120              		.loc 13 173 18 view .LVU284
 1121              		.loc 13 173 31 is_stmt 0 view .LVU285
 1122 00b0 B0EE470A 		vmov.f32	s0, s14
 1123              		.loc 13 173 48 view .LVU286
 1124 00b4 77EEC76A 		vsub.f32	s13, s15, s14
 1125              		.loc 13 173 31 view .LVU287
 1126 00b8 A6EE260A 		vfma.f32	s0, s12, s13
 1127              	.LVL61:
 1128              	.LBB497:
 1129              	.LBI497:
  56:../../DaisySP//Source/Utility/dsp.h **** {
 1130              		.loc 13 56 14 is_stmt 1 view .LVU288
 1131              	.LBE497:
 1132              	.LBE503:
 1133              	.LBE507:
  58:../../DaisySP//Source/Utility/dsp.h **** }
 1134              		.loc 13 58 5 view .LVU289
 1135              	.LBB508:
 1136              	.LBB504:
 1137              	.LBB502:
 1138              	.LBB498:
 1139              	.LBI498:
  32:../../DaisySP//Source/Utility/dsp.h **** {
 1140              		.loc 13 32 14 view .LVU290
 1141              	.LBB499:
  34:../../DaisySP//Source/Utility/dsp.h **** #ifdef __arm__
 1142              		.loc 13 34 5 view .LVU291
  36:../../DaisySP//Source/Utility/dsp.h **** #else
 1143              		.loc 13 36 5 view .LVU292
 1144              		.syntax unified
 1145              	@ 36 "../../DaisySP//Source/Utility/dsp.h" 1
 1146 00bc 80FE070A 		vmaxnm.f32 s0, s0, s14
 1147              	@ 0 "" 2
 1148              	.LVL62:
  40:../../DaisySP//Source/Utility/dsp.h **** }
 1149              		.loc 13 40 5 view .LVU293
  40:../../DaisySP//Source/Utility/dsp.h **** }
 1150              		.loc 13 40 5 is_stmt 0 view .LVU294
 1151              		.thumb
 1152              		.syntax unified
 1153              	.LBE499:
 1154              	.LBE498:
 1155              	.LBB500:
 1156              	.LBI500:
  43:../../DaisySP//Source/Utility/dsp.h **** {
 1157              		.loc 13 43 14 is_stmt 1 view .LVU295
 1158              	.LBB501:
  45:../../DaisySP//Source/Utility/dsp.h **** #ifdef __arm__
 1159              		.loc 13 45 5 view .LVU296
  47:../../DaisySP//Source/Utility/dsp.h **** #else
 1160              		.loc 13 47 5 view .LVU297
ARM GAS  C:\Users\danst\AppData\Local\Temp\cczkfCFF.s 			page 40


 1161              		.syntax unified
 1162              	@ 47 "../../DaisySP//Source/Utility/dsp.h" 1
 1163 00c0 80FE670A 		vminnm.f32 s0, s0, s15
 1164              	@ 0 "" 2
 1165              	.LVL63:
  51:../../DaisySP//Source/Utility/dsp.h **** }
 1166              		.loc 13 51 5 view .LVU298
  51:../../DaisySP//Source/Utility/dsp.h **** }
 1167              		.loc 13 51 5 is_stmt 0 view .LVU299
 1168              		.thumb
 1169              		.syntax unified
 1170 00c4 B2E7     		b	.L31
 1171              	.L34:
 1172 00c6 00BF     		.align	2
 1173              	.L33:
 1174 00c8 00000000 		.word	.LANCHOR15
 1175 00cc CDCC4C3D 		.word	1028443341
 1176 00d0 00000000 		.word	.LANCHOR7
 1177 00d4 33331F41 		.word	1092563763
 1178 00d8 00000000 		.word	.LANCHOR14
 1179 00dc 00000000 		.word	.LANCHOR8
 1180 00e0 00000000 		.word	.LANCHOR0
 1181 00e4 00000000 		.word	.LANCHOR17
 1182 00e8 00000000 		.word	.LANCHOR16
 1183 00ec 00008A42 		.word	1116340224
 1184 00f0 0000DC43 		.word	1138491392
 1185              	.LBE501:
 1186              	.LBE500:
 1187              	.LBE502:
 1188              	.LBE504:
 1189              	.LBE508:
 1190              		.cfi_endproc
 1191              	.LFE4429:
 1193              		.section	.text._ZN5daisy11MidiHandlerINS_16MidiUsbTransportEE5ParseEh,"axG",%progbits,_ZN5daisy11M
 1194              		.align	1
 1195              		.p2align 2,,3
 1196              		.weak	_ZN5daisy11MidiHandlerINS_16MidiUsbTransportEE5ParseEh
 1197              		.syntax unified
 1198              		.thumb
 1199              		.thumb_func
 1200              		.fpu fpv5-d16
 1202              	_ZN5daisy11MidiHandlerINS_16MidiUsbTransportEE5ParseEh:
 1203              	.LVL64:
 1204              	.LFB4861:
  86:../../libDaisy//src/hid/midi.h **** 
  87:../../libDaisy//src/hid/midi.h ****     struct Config
  88:../../libDaisy//src/hid/midi.h ****     {
  89:../../libDaisy//src/hid/midi.h ****         typename Transport::Config transport_config;
  90:../../libDaisy//src/hid/midi.h ****     };
  91:../../libDaisy//src/hid/midi.h **** 
  92:../../libDaisy//src/hid/midi.h ****     /** Initializes the MidiHandler 
  93:../../libDaisy//src/hid/midi.h ****      *  \param config Configuration structure used to define specifics to the MIDI Handler.
  94:../../libDaisy//src/hid/midi.h ****      */
  95:../../libDaisy//src/hid/midi.h ****     void Init(Config config)
  96:../../libDaisy//src/hid/midi.h ****     {
  97:../../libDaisy//src/hid/midi.h ****         config_ = config;
  98:../../libDaisy//src/hid/midi.h **** 
ARM GAS  C:\Users\danst\AppData\Local\Temp\cczkfCFF.s 			page 41


  99:../../libDaisy//src/hid/midi.h ****         transport_.Init(config_.transport_config);
 100:../../libDaisy//src/hid/midi.h **** 
 101:../../libDaisy//src/hid/midi.h ****         event_q_.Init();
 102:../../libDaisy//src/hid/midi.h ****         incoming_message_.type = MessageLast;
 103:../../libDaisy//src/hid/midi.h ****         pstate_                = ParserEmpty;
 104:../../libDaisy//src/hid/midi.h ****     }
 105:../../libDaisy//src/hid/midi.h **** 
 106:../../libDaisy//src/hid/midi.h ****     /** Starts listening on the selected input mode(s). MidiEvent Queue will begin to fill, and can
 107:../../libDaisy//src/hid/midi.h ****     void StartReceive() { transport_.StartRx(); }
 108:../../libDaisy//src/hid/midi.h **** 
 109:../../libDaisy//src/hid/midi.h ****     /** Start listening */
 110:../../libDaisy//src/hid/midi.h ****     void Listen()
 111:../../libDaisy//src/hid/midi.h ****     {
 112:../../libDaisy//src/hid/midi.h ****         uint32_t now;
 113:../../libDaisy//src/hid/midi.h ****         now = System::GetNow();
 114:../../libDaisy//src/hid/midi.h ****         while(transport_.Readable())
 115:../../libDaisy//src/hid/midi.h ****         {
 116:../../libDaisy//src/hid/midi.h ****             last_read_ = now;
 117:../../libDaisy//src/hid/midi.h ****             Parse(transport_.Rx());
 118:../../libDaisy//src/hid/midi.h ****         }
 119:../../libDaisy//src/hid/midi.h **** 
 120:../../libDaisy//src/hid/midi.h ****         // In case of UART Error, (particularly
 121:../../libDaisy//src/hid/midi.h ****         //  overrun error), UART disables itself.
 122:../../libDaisy//src/hid/midi.h ****         // Flush the buff, and restart.
 123:../../libDaisy//src/hid/midi.h ****         if(!transport_.RxActive())
 124:../../libDaisy//src/hid/midi.h ****         {
 125:../../libDaisy//src/hid/midi.h ****             pstate_ = ParserEmpty;
 126:../../libDaisy//src/hid/midi.h ****             transport_.FlushRx();
 127:../../libDaisy//src/hid/midi.h ****             StartReceive();
 128:../../libDaisy//src/hid/midi.h ****         }
 129:../../libDaisy//src/hid/midi.h ****     }
 130:../../libDaisy//src/hid/midi.h **** 
 131:../../libDaisy//src/hid/midi.h ****     /** Checks if there are unhandled messages in the queue 
 132:../../libDaisy//src/hid/midi.h ****     \return True if there are events to be handled, else false.
 133:../../libDaisy//src/hid/midi.h ****      */
 134:../../libDaisy//src/hid/midi.h ****     bool HasEvents() const { return event_q_.readable(); }
 135:../../libDaisy//src/hid/midi.h **** 
 136:../../libDaisy//src/hid/midi.h **** 
 137:../../libDaisy//src/hid/midi.h ****     /** Pops the oldest unhandled MidiEvent from the internal queue
 138:../../libDaisy//src/hid/midi.h ****     \return The event to be handled
 139:../../libDaisy//src/hid/midi.h ****      */
 140:../../libDaisy//src/hid/midi.h ****     MidiEvent PopEvent() { return event_q_.Read(); }
 141:../../libDaisy//src/hid/midi.h **** 
 142:../../libDaisy//src/hid/midi.h ****     /** SendMessage
 143:../../libDaisy//src/hid/midi.h ****     Send raw bytes as message
 144:../../libDaisy//src/hid/midi.h ****     */
 145:../../libDaisy//src/hid/midi.h ****     void SendMessage(uint8_t* bytes, size_t size)
 146:../../libDaisy//src/hid/midi.h ****     {
 147:../../libDaisy//src/hid/midi.h ****         transport_.Tx(bytes, size);
 148:../../libDaisy//src/hid/midi.h ****     }
 149:../../libDaisy//src/hid/midi.h **** 
 150:../../libDaisy//src/hid/midi.h ****     /** Feed in bytes to state machine from a queue.
 151:../../libDaisy//src/hid/midi.h ****     Populates internal FIFO queue with MIDI Messages
 152:../../libDaisy//src/hid/midi.h ****     For example with uart:
 153:../../libDaisy//src/hid/midi.h ****     midi.Parse(uart.PopRx());
 154:../../libDaisy//src/hid/midi.h ****     \param byte &
 155:../../libDaisy//src/hid/midi.h ****     */
ARM GAS  C:\Users\danst\AppData\Local\Temp\cczkfCFF.s 			page 42


 156:../../libDaisy//src/hid/midi.h ****     void Parse(uint8_t byte)
 1205              		.loc 10 156 10 is_stmt 1 view -0
 1206              		.cfi_startproc
 1207              		@ args = 0, pretend = 0, frame = 288
 1208              		@ frame_needed = 0, uses_anonymous_args = 0
 1209              		.loc 10 156 10 is_stmt 0 view .LVU301
 1210 0000 0379     		ldrb	r3, [r0, #4]	@ zero_extendqisi2
 1211 0002 2DE9F041 		push	{r4, r5, r6, r7, r8, lr}
 1212              		.cfi_def_cfa_offset 24
 1213              		.cfi_offset 4, -24
 1214              		.cfi_offset 5, -20
 1215              		.cfi_offset 6, -16
 1216              		.cfi_offset 7, -12
 1217              		.cfi_offset 8, -8
 1218              		.cfi_offset 14, -4
 1219 0006 0446     		mov	r4, r0
 1220 0008 C8B0     		sub	sp, sp, #288
 1221              		.cfi_def_cfa_offset 312
 1222 000a 032B     		cmp	r3, #3
 1223 000c 0CD8     		bhi	.L35
 1224 000e DFE803F0 		tbb	[pc, r3]
 1225              	.L38:
 1226 0012 6A       		.byte	(.L41-.L38)/2
 1227 0013 1D       		.byte	(.L40-.L38)/2
 1228 0014 02       		.byte	(.L39-.L38)/2
 1229 0015 0E       		.byte	(.L37-.L38)/2
 1230              		.p2align 1
 1231              	.L39:
 157:../../libDaisy//src/hid/midi.h ****     {
 158:../../libDaisy//src/hid/midi.h ****         switch(pstate_)
 159:../../libDaisy//src/hid/midi.h ****         {
 160:../../libDaisy//src/hid/midi.h ****             case ParserEmpty:
 161:../../libDaisy//src/hid/midi.h ****                 // check byte for valid Status Byte
 162:../../libDaisy//src/hid/midi.h ****                 if(byte & kStatusByteMask)
 163:../../libDaisy//src/hid/midi.h ****                 {
 164:../../libDaisy//src/hid/midi.h ****                     // Get MessageType, and Channel
 165:../../libDaisy//src/hid/midi.h ****                     incoming_message_.channel = byte & kChannelMask;
 166:../../libDaisy//src/hid/midi.h ****                     incoming_message_.type    = static_cast<MidiMessageType>(
 167:../../libDaisy//src/hid/midi.h ****                         (byte & kMessageMask) >> 4);
 168:../../libDaisy//src/hid/midi.h **** 
 169:../../libDaisy//src/hid/midi.h ****                     // Validate, and move on.
 170:../../libDaisy//src/hid/midi.h ****                     if(incoming_message_.type < MessageLast)
 171:../../libDaisy//src/hid/midi.h ****                     {
 172:../../libDaisy//src/hid/midi.h ****                         pstate_ = ParserHasStatus;
 173:../../libDaisy//src/hid/midi.h ****                         // Mark this status byte as running_status
 174:../../libDaisy//src/hid/midi.h ****                         running_status_ = incoming_message_.type;
 175:../../libDaisy//src/hid/midi.h **** 
 176:../../libDaisy//src/hid/midi.h ****                         if(running_status_ == SystemCommon)
 177:../../libDaisy//src/hid/midi.h ****                         {
 178:../../libDaisy//src/hid/midi.h ****                             incoming_message_.channel = 0;
 179:../../libDaisy//src/hid/midi.h ****                             //system real time = 1111 1xxx
 180:../../libDaisy//src/hid/midi.h ****                             if(byte & 0x08)
 181:../../libDaisy//src/hid/midi.h ****                             {
 182:../../libDaisy//src/hid/midi.h ****                                 incoming_message_.type = SystemRealTime;
 183:../../libDaisy//src/hid/midi.h ****                                 running_status_        = SystemRealTime;
 184:../../libDaisy//src/hid/midi.h ****                                 incoming_message_.srt_type
 185:../../libDaisy//src/hid/midi.h ****                                     = static_cast<SystemRealTimeType>(
ARM GAS  C:\Users\danst\AppData\Local\Temp\cczkfCFF.s 			page 43


 186:../../libDaisy//src/hid/midi.h ****                                         byte & kSystemRealTimeMask);
 187:../../libDaisy//src/hid/midi.h **** 
 188:../../libDaisy//src/hid/midi.h ****                                 //short circuit to start
 189:../../libDaisy//src/hid/midi.h ****                                 pstate_ = ParserEmpty;
 190:../../libDaisy//src/hid/midi.h ****                                 event_q_.Write(incoming_message_);
 191:../../libDaisy//src/hid/midi.h ****                             }
 192:../../libDaisy//src/hid/midi.h ****                             //system common
 193:../../libDaisy//src/hid/midi.h ****                             else
 194:../../libDaisy//src/hid/midi.h ****                             {
 195:../../libDaisy//src/hid/midi.h ****                                 incoming_message_.sc_type
 196:../../libDaisy//src/hid/midi.h ****                                     = static_cast<SystemCommonType>(byte
 197:../../libDaisy//src/hid/midi.h ****                                                                     & 0x07);
 198:../../libDaisy//src/hid/midi.h ****                                 //sysex
 199:../../libDaisy//src/hid/midi.h ****                                 if(incoming_message_.sc_type == SystemExclusive)
 200:../../libDaisy//src/hid/midi.h ****                                 {
 201:../../libDaisy//src/hid/midi.h ****                                     pstate_ = ParserSysEx;
 202:../../libDaisy//src/hid/midi.h ****                                     incoming_message_.sysex_message_len = 0;
 203:../../libDaisy//src/hid/midi.h ****                                 }
 204:../../libDaisy//src/hid/midi.h ****                                 //short circuit
 205:../../libDaisy//src/hid/midi.h ****                                 else if(incoming_message_.sc_type > SongSelect)
 206:../../libDaisy//src/hid/midi.h ****                                 {
 207:../../libDaisy//src/hid/midi.h ****                                     pstate_ = ParserEmpty;
 208:../../libDaisy//src/hid/midi.h ****                                     event_q_.Write(incoming_message_);
 209:../../libDaisy//src/hid/midi.h ****                                 }
 210:../../libDaisy//src/hid/midi.h ****                             }
 211:../../libDaisy//src/hid/midi.h ****                         }
 212:../../libDaisy//src/hid/midi.h ****                     }
 213:../../libDaisy//src/hid/midi.h ****                     // Else we'll keep waiting for a valid incoming status byte
 214:../../libDaisy//src/hid/midi.h ****                 }
 215:../../libDaisy//src/hid/midi.h ****                 else
 216:../../libDaisy//src/hid/midi.h ****                 {
 217:../../libDaisy//src/hid/midi.h ****                     // Handle as running status
 218:../../libDaisy//src/hid/midi.h ****                     incoming_message_.type    = running_status_;
 219:../../libDaisy//src/hid/midi.h ****                     incoming_message_.data[0] = byte & kDataByteMask;
 220:../../libDaisy//src/hid/midi.h ****                     pstate_                   = ParserHasData0;
 221:../../libDaisy//src/hid/midi.h ****                 }
 222:../../libDaisy//src/hid/midi.h ****                 break;
 223:../../libDaisy//src/hid/midi.h ****             case ParserHasStatus:
 224:../../libDaisy//src/hid/midi.h ****                 if((byte & kStatusByteMask) == 0)
 225:../../libDaisy//src/hid/midi.h ****                 {
 226:../../libDaisy//src/hid/midi.h ****                     incoming_message_.data[0] = byte & kDataByteMask;
 227:../../libDaisy//src/hid/midi.h ****                     if(running_status_ == ChannelPressure
 228:../../libDaisy//src/hid/midi.h ****                        || running_status_ == ProgramChange
 229:../../libDaisy//src/hid/midi.h ****                        || incoming_message_.sc_type == MTCQuarterFrame
 230:../../libDaisy//src/hid/midi.h ****                        || incoming_message_.sc_type == SongSelect)
 231:../../libDaisy//src/hid/midi.h ****                     {
 232:../../libDaisy//src/hid/midi.h ****                         //these are just one data byte, so we short circuit back to start
 233:../../libDaisy//src/hid/midi.h ****                         pstate_ = ParserEmpty;
 234:../../libDaisy//src/hid/midi.h ****                         event_q_.Write(incoming_message_);
 235:../../libDaisy//src/hid/midi.h ****                     }
 236:../../libDaisy//src/hid/midi.h ****                     else
 237:../../libDaisy//src/hid/midi.h ****                     {
 238:../../libDaisy//src/hid/midi.h ****                         pstate_ = ParserHasData0;
 239:../../libDaisy//src/hid/midi.h ****                     }
 240:../../libDaisy//src/hid/midi.h **** 
 241:../../libDaisy//src/hid/midi.h ****                     //ChannelModeMessages (reserved Control Changes)
 242:../../libDaisy//src/hid/midi.h ****                     if(running_status_ == ControlChange
ARM GAS  C:\Users\danst\AppData\Local\Temp\cczkfCFF.s 			page 44


 243:../../libDaisy//src/hid/midi.h ****                        && incoming_message_.data[0] > 119)
 244:../../libDaisy//src/hid/midi.h ****                     {
 245:../../libDaisy//src/hid/midi.h ****                         incoming_message_.type = ChannelMode;
 246:../../libDaisy//src/hid/midi.h ****                         running_status_        = ChannelMode;
 247:../../libDaisy//src/hid/midi.h ****                         incoming_message_.cm_type
 248:../../libDaisy//src/hid/midi.h ****                             = static_cast<ChannelModeType>(
 249:../../libDaisy//src/hid/midi.h ****                                 incoming_message_.data[0] - 120);
 250:../../libDaisy//src/hid/midi.h ****                     }
 251:../../libDaisy//src/hid/midi.h ****                 }
 252:../../libDaisy//src/hid/midi.h ****                 else
 253:../../libDaisy//src/hid/midi.h ****                 {
 254:../../libDaisy//src/hid/midi.h ****                     // invalid message go back to start ;p
 255:../../libDaisy//src/hid/midi.h ****                     pstate_ = ParserEmpty;
 256:../../libDaisy//src/hid/midi.h ****                 }
 257:../../libDaisy//src/hid/midi.h ****                 break;
 258:../../libDaisy//src/hid/midi.h ****             case ParserHasData0:
 259:../../libDaisy//src/hid/midi.h ****                 if((byte & kStatusByteMask) == 0)
 1232              		.loc 10 259 28 view .LVU302
 1233 0016 00F51045 		add	r5, r0, #36864
 1234              		.loc 10 259 26 view .LVU303
 1235 001a 95F8AC30 		ldrb	r3, [r5, #172]	@ zero_extendqisi2
 1236              		.loc 10 259 17 view .LVU304
 1237 001e 0B40     		ands	r3, r1, r3
 1238 0020 00F09580 		beq	.L85
 1239              	.L49:
 255:../../libDaisy//src/hid/midi.h ****                 }
 1240              		.loc 10 255 29 view .LVU305
 1241 0024 0023     		movs	r3, #0
 1242 0026 2371     		strb	r3, [r4, #4]
 1243              	.LVL65:
 1244              	.L35:
 260:../../libDaisy//src/hid/midi.h ****                 {
 261:../../libDaisy//src/hid/midi.h ****                     incoming_message_.data[1] = byte & kDataByteMask;
 262:../../libDaisy//src/hid/midi.h **** 
 263:../../libDaisy//src/hid/midi.h ****                     //velocity 0 NoteOns are NoteOffs
 264:../../libDaisy//src/hid/midi.h ****                     if(running_status_ == NoteOn
 265:../../libDaisy//src/hid/midi.h ****                        && incoming_message_.data[1] == 0)
 266:../../libDaisy//src/hid/midi.h ****                     {
 267:../../libDaisy//src/hid/midi.h ****                         incoming_message_.type = running_status_ = NoteOff;
 268:../../libDaisy//src/hid/midi.h ****                     }
 269:../../libDaisy//src/hid/midi.h **** 
 270:../../libDaisy//src/hid/midi.h ****                     // At this point the message is valid, and we can add this MidiEvent to the que
 271:../../libDaisy//src/hid/midi.h ****                     event_q_.Write(incoming_message_);
 272:../../libDaisy//src/hid/midi.h ****                 }
 273:../../libDaisy//src/hid/midi.h ****                 // Regardless, of whether the data was valid or not we go back to empty
 274:../../libDaisy//src/hid/midi.h ****                 // because either the message is queued for handling or its not.
 275:../../libDaisy//src/hid/midi.h ****                 pstate_ = ParserEmpty;
 276:../../libDaisy//src/hid/midi.h ****                 break;
 277:../../libDaisy//src/hid/midi.h ****             case ParserSysEx:
 278:../../libDaisy//src/hid/midi.h ****                 // end of sysex
 279:../../libDaisy//src/hid/midi.h ****                 if(byte == 0xf7)
 280:../../libDaisy//src/hid/midi.h ****                 {
 281:../../libDaisy//src/hid/midi.h ****                     pstate_ = ParserEmpty;
 282:../../libDaisy//src/hid/midi.h ****                     event_q_.Write(incoming_message_);
 283:../../libDaisy//src/hid/midi.h ****                 }
 284:../../libDaisy//src/hid/midi.h ****                 else if(incoming_message_.sysex_message_len < SYSEX_BUFFER_LEN)
 285:../../libDaisy//src/hid/midi.h ****                 {
ARM GAS  C:\Users\danst\AppData\Local\Temp\cczkfCFF.s 			page 45


 286:../../libDaisy//src/hid/midi.h ****                     incoming_message_
 287:../../libDaisy//src/hid/midi.h ****                         .sysex_data[incoming_message_.sysex_message_len]
 288:../../libDaisy//src/hid/midi.h ****                         = byte;
 289:../../libDaisy//src/hid/midi.h ****                     incoming_message_.sysex_message_len++;
 290:../../libDaisy//src/hid/midi.h ****                 }
 291:../../libDaisy//src/hid/midi.h ****                 break;
 292:../../libDaisy//src/hid/midi.h ****             default: break;
 293:../../libDaisy//src/hid/midi.h ****         }
 294:../../libDaisy//src/hid/midi.h ****     }
 1245              		.loc 10 294 5 view .LVU306
 1246 0028 48B0     		add	sp, sp, #288
 1247              		.cfi_remember_state
 1248              		.cfi_def_cfa_offset 24
 1249              		@ sp needed
 1250 002a BDE8F081 		pop	{r4, r5, r6, r7, r8, pc}
 1251              	.LVL66:
 1252              	.L37:
 1253              		.cfi_restore_state
 279:../../libDaisy//src/hid/midi.h ****                 {
 1254              		.loc 10 279 17 view .LVU307
 1255 002e F729     		cmp	r1, #247
 1256 0030 00F0BF80 		beq	.L86
 284:../../libDaisy//src/hid/midi.h ****                 {
 1257              		.loc 10 284 22 view .LVU308
 1258 0034 90F99220 		ldrsb	r2, [r0, #146]
 284:../../libDaisy//src/hid/midi.h ****                 {
 1259              		.loc 10 284 43 view .LVU309
 1260 0038 90F89230 		ldrb	r3, [r0, #146]	@ zero_extendqisi2
 284:../../libDaisy//src/hid/midi.h ****                 {
 1261              		.loc 10 284 22 view .LVU310
 1262 003c 002A     		cmp	r2, #0
 1263 003e F3DB     		blt	.L35
 288:../../libDaisy//src/hid/midi.h ****                     incoming_message_.sysex_message_len++;
 1264              		.loc 10 288 25 view .LVU311
 1265 0040 C218     		adds	r2, r0, r3
 289:../../libDaisy//src/hid/midi.h ****                 }
 1266              		.loc 10 289 21 view .LVU312
 1267 0042 0133     		adds	r3, r3, #1
 288:../../libDaisy//src/hid/midi.h ****                     incoming_message_.sysex_message_len++;
 1268              		.loc 10 288 25 view .LVU313
 1269 0044 9174     		strb	r1, [r2, #18]
 289:../../libDaisy//src/hid/midi.h ****                 }
 1270              		.loc 10 289 21 view .LVU314
 1271 0046 80F89230 		strb	r3, [r0, #146]
 1272              		.loc 10 294 5 view .LVU315
 1273 004a EDE7     		b	.L35
 1274              	.L40:
 224:../../libDaisy//src/hid/midi.h ****                 {
 1275              		.loc 10 224 28 view .LVU316
 1276 004c 00F51045 		add	r5, r0, #36864
 224:../../libDaisy//src/hid/midi.h ****                 {
 1277              		.loc 10 224 26 view .LVU317
 1278 0050 95F8AC30 		ldrb	r3, [r5, #172]	@ zero_extendqisi2
 224:../../libDaisy//src/hid/midi.h ****                 {
 1279              		.loc 10 224 17 view .LVU318
 1280 0054 1942     		tst	r1, r3
 1281 0056 E5D1     		bne	.L49
ARM GAS  C:\Users\danst\AppData\Local\Temp\cczkfCFF.s 			page 46


 226:../../libDaisy//src/hid/midi.h ****                     if(running_status_ == ChannelPressure
 1282              		.loc 10 226 54 view .LVU319
 1283 0058 95F8AE80 		ldrb	r8, [r5, #174]	@ zero_extendqisi2
 1284 005c 01EA0808 		and	r8, r1, r8
 226:../../libDaisy//src/hid/midi.h ****                     if(running_status_ == ChannelPressure
 1285              		.loc 10 226 47 view .LVU320
 1286 0060 80F81080 		strb	r8, [r0, #16]
 227:../../libDaisy//src/hid/midi.h ****                        || running_status_ == ProgramChange
 1287              		.loc 10 227 24 view .LVU321
 1288 0064 95F8A470 		ldrb	r7, [r5, #164]	@ zero_extendqisi2
 227:../../libDaisy//src/hid/midi.h ****                        || running_status_ == ProgramChange
 1289              		.loc 10 227 21 view .LVU322
 1290 0068 3B1F     		subs	r3, r7, #4
 1291 006a 012B     		cmp	r3, #1
 1292 006c 06D9     		bls	.L50
 229:../../libDaisy//src/hid/midi.h ****                        || incoming_message_.sc_type == SongSelect)
 1293              		.loc 10 229 24 view .LVU323
 1294 006e 90F89330 		ldrb	r3, [r0, #147]	@ zero_extendqisi2
 230:../../libDaisy//src/hid/midi.h ****                     {
 1295              		.loc 10 230 24 view .LVU324
 1296 0072 03F0FD03 		and	r3, r3, #253
 1297 0076 012B     		cmp	r3, #1
 1298 0078 40F0C580 		bne	.L51
 1299              	.L50:
 233:../../libDaisy//src/hid/midi.h ****                         event_q_.Write(incoming_message_);
 1300              		.loc 10 233 33 view .LVU325
 1301 007c 0023     		movs	r3, #0
 1302 007e 6E46     		mov	r6, sp
 1303 0080 9022     		movs	r2, #144
 1304 0082 04F10801 		add	r1, r4, #8
 1305              	.LVL67:
 233:../../libDaisy//src/hid/midi.h ****                         event_q_.Write(incoming_message_);
 1306              		.loc 10 233 33 view .LVU326
 1307 0086 3046     		mov	r0, r6
 1308              	.LVL68:
 233:../../libDaisy//src/hid/midi.h ****                         event_q_.Write(incoming_message_);
 1309              		.loc 10 233 33 view .LVU327
 1310 0088 2371     		strb	r3, [r4, #4]
 1311              	.LVL69:
 233:../../libDaisy//src/hid/midi.h ****                         event_q_.Write(incoming_message_);
 1312              		.loc 10 233 33 view .LVU328
 1313 008a FFF7FEFF 		bl	memcpy
 1314              	.LVL70:
 1315              	.LBB539:
 1316              	.LBI539:
 1317              		.file 14 "../../libDaisy//src/util/ringbuffer.h"
   1:../../libDaisy//src/util/ringbuffer.h **** #pragma once
   2:../../libDaisy//src/util/ringbuffer.h **** #ifndef DSY_RINGBUFFER_H
   3:../../libDaisy//src/util/ringbuffer.h **** #define DSY_RINGBUFFER_H
   4:../../libDaisy//src/util/ringbuffer.h **** 
   5:../../libDaisy//src/util/ringbuffer.h **** #include <algorithm>
   6:../../libDaisy//src/util/ringbuffer.h **** 
   7:../../libDaisy//src/util/ringbuffer.h **** namespace daisy
   8:../../libDaisy//src/util/ringbuffer.h **** {
   9:../../libDaisy//src/util/ringbuffer.h **** /** @addtogroup utility
  10:../../libDaisy//src/util/ringbuffer.h ****     @{
  11:../../libDaisy//src/util/ringbuffer.h **** */
ARM GAS  C:\Users\danst\AppData\Local\Temp\cczkfCFF.s 			page 47


  12:../../libDaisy//src/util/ringbuffer.h **** 
  13:../../libDaisy//src/util/ringbuffer.h **** /**
  14:../../libDaisy//src/util/ringbuffer.h **** Utility Ring Buffer \n 
  15:../../libDaisy//src/util/ringbuffer.h **** imported from pichenettes/stmlib
  16:../../libDaisy//src/util/ringbuffer.h **** */
  17:../../libDaisy//src/util/ringbuffer.h **** template <typename T, size_t size>
  18:../../libDaisy//src/util/ringbuffer.h **** class RingBuffer
  19:../../libDaisy//src/util/ringbuffer.h **** {
  20:../../libDaisy//src/util/ringbuffer.h ****   public:
  21:../../libDaisy//src/util/ringbuffer.h ****     RingBuffer() {}
  22:../../libDaisy//src/util/ringbuffer.h **** 
  23:../../libDaisy//src/util/ringbuffer.h ****     /** Initializes the Ring Buffer */
  24:../../libDaisy//src/util/ringbuffer.h ****     inline void Init() { read_ptr_ = write_ptr_ = 0; }
  25:../../libDaisy//src/util/ringbuffer.h **** 
  26:../../libDaisy//src/util/ringbuffer.h ****     /** \return The total size of the ring buffer */
  27:../../libDaisy//src/util/ringbuffer.h ****     inline size_t capacity() const { return size; }
  28:../../libDaisy//src/util/ringbuffer.h **** 
  29:../../libDaisy//src/util/ringbuffer.h ****     /** \return the number of samples that can be written to ring buffer without overwriting unread
  30:../../libDaisy//src/util/ringbuffer.h ****     inline size_t writable() const
  31:../../libDaisy//src/util/ringbuffer.h ****     {
  32:../../libDaisy//src/util/ringbuffer.h ****         return (read_ptr_ - write_ptr_ - 1) % size;
  33:../../libDaisy//src/util/ringbuffer.h ****     }
  34:../../libDaisy//src/util/ringbuffer.h **** 
  35:../../libDaisy//src/util/ringbuffer.h ****     /** \return number of unread elements in ring buffer */
  36:../../libDaisy//src/util/ringbuffer.h ****     inline size_t readable() const { return (write_ptr_ - read_ptr_) % size; }
  37:../../libDaisy//src/util/ringbuffer.h **** 
  38:../../libDaisy//src/util/ringbuffer.h ****     /** \returns True, if the buffer is empty. */
  39:../../libDaisy//src/util/ringbuffer.h ****     inline bool isEmpty() const { return write_ptr_ == read_ptr_; }
  40:../../libDaisy//src/util/ringbuffer.h **** 
  41:../../libDaisy//src/util/ringbuffer.h ****     /** Writes the value to the next available position in the ring buffer
  42:../../libDaisy//src/util/ringbuffer.h ****     \param v Value to write
  43:../../libDaisy//src/util/ringbuffer.h ****     */
  44:../../libDaisy//src/util/ringbuffer.h ****     inline void Write(T v)
 1318              		.loc 14 44 17 is_stmt 1 view .LVU329
 1319              	.L52:
 1320              	.LBB540:
  45:../../libDaisy//src/util/ringbuffer.h ****     {
  46:../../libDaisy//src/util/ringbuffer.h ****         while(!writable())
 1321              		.loc 14 46 24 view .LVU330
 1322              	.LBB541:
 1323              	.LBI541:
  30:../../libDaisy//src/util/ringbuffer.h ****     {
 1324              		.loc 14 30 19 view .LVU331
 1325              	.LBB542:
  32:../../libDaisy//src/util/ringbuffer.h ****     }
 1326              		.loc 14 32 17 is_stmt 0 view .LVU332
 1327 008e D5F89830 		ldr	r3, [r5, #152]
  32:../../libDaisy//src/util/ringbuffer.h ****     }
 1328              		.loc 14 32 29 view .LVU333
 1329 0092 D5F89C20 		ldr	r2, [r5, #156]
 1330              	.LVL71:
  32:../../libDaisy//src/util/ringbuffer.h ****     }
 1331              		.loc 14 32 40 view .LVU334
 1332 0096 013B     		subs	r3, r3, #1
 1333 0098 9B1A     		subs	r3, r3, r2
  32:../../libDaisy//src/util/ringbuffer.h ****     }
 1334              		.loc 14 32 47 view .LVU335
ARM GAS  C:\Users\danst\AppData\Local\Temp\cczkfCFF.s 			page 48


 1335 009a DBB2     		uxtb	r3, r3
 1336              	.LBE542:
 1337              	.LBE541:
 1338              		.loc 14 46 24 view .LVU336
 1339 009c 002B     		cmp	r3, #0
 1340 009e F6D0     		beq	.L52
 1341              	.LVL72:
 1342              		.loc 14 46 24 view .LVU337
 1343 00a0 9022     		movs	r2, #144
 1344 00a2 3146     		mov	r1, r6
 1345 00a4 0DEB0200 		add	r0, sp, r2
 1346 00a8 FFF7FEFF 		bl	memcpy
 1347              	.LVL73:
 1348              	.LBB543:
 1349              	.LBI543:
  47:../../libDaisy//src/util/ringbuffer.h ****             ;
  48:../../libDaisy//src/util/ringbuffer.h ****         Overwrite(v);
  49:../../libDaisy//src/util/ringbuffer.h ****     }
  50:../../libDaisy//src/util/ringbuffer.h **** 
  51:../../libDaisy//src/util/ringbuffer.h ****     /** Writes the new element to the ring buffer, overwriting unread data if necessary. 
  52:../../libDaisy//src/util/ringbuffer.h ****     \param v Value to overwrite
  53:../../libDaisy//src/util/ringbuffer.h ****      */
  54:../../libDaisy//src/util/ringbuffer.h ****     inline void Overwrite(T v)
 1350              		.loc 14 54 17 is_stmt 1 view .LVU338
 1351              	.LBB544:
  55:../../libDaisy//src/util/ringbuffer.h ****     {
  56:../../libDaisy//src/util/ringbuffer.h ****         size_t w   = write_ptr_;
 1352              		.loc 14 56 16 is_stmt 0 view .LVU339
 1353 00ac D5F89C60 		ldr	r6, [r5, #156]
 1354              	.LVL74:
  57:../../libDaisy//src/util/ringbuffer.h ****         buffer_[w] = v;
 1355              		.loc 14 57 9 view .LVU340
 1356 00b0 24A9     		add	r1, sp, #144
 1357 00b2 9022     		movs	r2, #144
 1358 00b4 06EBC600 		add	r0, r6, r6, lsl #3
  58:../../libDaisy//src/util/ringbuffer.h ****         write_ptr_ = (w + 1) % size;
 1359              		.loc 14 58 25 view .LVU341
 1360 00b8 0136     		adds	r6, r6, #1
 1361              	.LVL75:
  57:../../libDaisy//src/util/ringbuffer.h ****         buffer_[w] = v;
 1362              		.loc 14 57 9 view .LVU342
 1363 00ba 04EB0010 		add	r0, r4, r0, lsl #4
 1364              		.loc 14 58 30 view .LVU343
 1365 00be F6B2     		uxtb	r6, r6
 1366              	.LVL76:
  57:../../libDaisy//src/util/ringbuffer.h ****         buffer_[w] = v;
 1367              		.loc 14 57 9 view .LVU344
 1368 00c0 9830     		adds	r0, r0, #152
 1369 00c2 FFF7FEFF 		bl	memcpy
 1370              	.LVL77:
 1371              		.loc 14 58 20 view .LVU345
 1372 00c6 C5F89C60 		str	r6, [r5, #156]
 1373              	.LVL78:
 1374              	.L53:
 1375              		.loc 14 58 20 view .LVU346
 1376              	.LBE544:
 1377              	.LBE543:
ARM GAS  C:\Users\danst\AppData\Local\Temp\cczkfCFF.s 			page 49


 1378              	.LBE540:
 1379              	.LBE539:
 243:../../libDaisy//src/hid/midi.h ****                     {
 1380              		.loc 10 243 24 view .LVU347
 1381 00ca B8F1770F 		cmp	r8, #119
 1382 00ce ABD9     		bls	.L35
 1383 00d0 032F     		cmp	r7, #3
 1384 00d2 A9D1     		bne	.L35
 245:../../libDaisy//src/hid/midi.h ****                         running_status_        = ChannelMode;
 1385              		.loc 10 245 48 view .LVU348
 1386 00d4 0923     		movs	r3, #9
 249:../../libDaisy//src/hid/midi.h ****                     }
 1387              		.loc 10 249 59 view .LVU349
 1388 00d6 A8F17801 		sub	r1, r8, #120
 245:../../libDaisy//src/hid/midi.h ****                         running_status_        = ChannelMode;
 1389              		.loc 10 245 48 view .LVU350
 1390 00da 2372     		strb	r3, [r4, #8]
 246:../../libDaisy//src/hid/midi.h ****                         incoming_message_.cm_type
 1391              		.loc 10 246 48 view .LVU351
 1392 00dc 85F8A430 		strb	r3, [r5, #164]
 248:../../libDaisy//src/hid/midi.h ****                                 incoming_message_.data[0] - 120);
 1393              		.loc 10 248 29 view .LVU352
 1394 00e0 84F89510 		strb	r1, [r4, #149]
 1395 00e4 A0E7     		b	.L35
 1396              	.LVL79:
 1397              	.L41:
 162:../../libDaisy//src/hid/midi.h ****                 {
 1398              		.loc 10 162 27 view .LVU353
 1399 00e6 00F51045 		add	r5, r0, #36864
 162:../../libDaisy//src/hid/midi.h ****                 {
 1400              		.loc 10 162 25 view .LVU354
 1401 00ea 95F8AC30 		ldrb	r3, [r5, #172]	@ zero_extendqisi2
 162:../../libDaisy//src/hid/midi.h ****                 {
 1402              		.loc 10 162 17 view .LVU355
 1403 00ee 1942     		tst	r1, r3
 1404 00f0 21D0     		beq	.L42
 165:../../libDaisy//src/hid/midi.h ****                     incoming_message_.type    = static_cast<MidiMessageType>(
 1405              		.loc 10 165 54 view .LVU356
 1406 00f2 95F8B030 		ldrb	r3, [r5, #176]	@ zero_extendqisi2
 1407 00f6 0B40     		ands	r3, r3, r1
 1408 00f8 C360     		str	r3, [r0, #12]
 167:../../libDaisy//src/hid/midi.h **** 
 1409              		.loc 10 167 31 view .LVU357
 1410 00fa 95F8AD30 		ldrb	r3, [r5, #173]	@ zero_extendqisi2
 167:../../libDaisy//src/hid/midi.h **** 
 1411              		.loc 10 167 47 view .LVU358
 1412 00fe 0B40     		ands	r3, r3, r1
 1413 0100 1B09     		lsrs	r3, r3, #4
 170:../../libDaisy//src/hid/midi.h ****                     {
 1414              		.loc 10 170 21 view .LVU359
 1415 0102 092B     		cmp	r3, #9
 166:../../libDaisy//src/hid/midi.h ****                         (byte & kMessageMask) >> 4);
 1416              		.loc 10 166 47 view .LVU360
 1417 0104 0372     		strb	r3, [r0, #8]
 170:../../libDaisy//src/hid/midi.h ****                     {
 1418              		.loc 10 170 21 view .LVU361
 1419 0106 8FD8     		bhi	.L35
ARM GAS  C:\Users\danst\AppData\Local\Temp\cczkfCFF.s 			page 50


 172:../../libDaisy//src/hid/midi.h ****                         // Mark this status byte as running_status
 1420              		.loc 10 172 33 view .LVU362
 1421 0108 0122     		movs	r2, #1
 176:../../libDaisy//src/hid/midi.h ****                         {
 1422              		.loc 10 176 25 view .LVU363
 1423 010a 072B     		cmp	r3, #7
 172:../../libDaisy//src/hid/midi.h ****                         // Mark this status byte as running_status
 1424              		.loc 10 172 33 view .LVU364
 1425 010c 0271     		strb	r2, [r0, #4]
 174:../../libDaisy//src/hid/midi.h **** 
 1426              		.loc 10 174 41 view .LVU365
 1427 010e 85F8A430 		strb	r3, [r5, #164]
 176:../../libDaisy//src/hid/midi.h ****                         {
 1428              		.loc 10 176 25 view .LVU366
 1429 0112 89D1     		bne	.L35
 178:../../libDaisy//src/hid/midi.h ****                             //system real time = 1111 1xxx
 1430              		.loc 10 178 55 view .LVU367
 1431 0114 0023     		movs	r3, #0
 1432 0116 C360     		str	r3, [r0, #12]
 180:../../libDaisy//src/hid/midi.h ****                             {
 1433              		.loc 10 180 29 view .LVU368
 1434 0118 11F00800 		ands	r0, r1, #8
 1435              	.LVL80:
 180:../../libDaisy//src/hid/midi.h ****                             {
 1436              		.loc 10 180 29 view .LVU369
 1437 011c 40F0A480 		bne	.L87
 197:../../libDaisy//src/hid/midi.h ****                                 //sysex
 1438              		.loc 10 197 69 view .LVU370
 1439 0120 01F00703 		and	r3, r1, #7
 196:../../libDaisy//src/hid/midi.h ****                                                                     & 0x07);
 1440              		.loc 10 196 37 view .LVU371
 1441 0124 84F89330 		strb	r3, [r4, #147]
 199:../../libDaisy//src/hid/midi.h ****                                 {
 1442              		.loc 10 199 33 view .LVU372
 1443 0128 002B     		cmp	r3, #0
 1444 012a 73D1     		bne	.L47
 201:../../libDaisy//src/hid/midi.h ****                                     incoming_message_.sysex_message_len = 0;
 1445              		.loc 10 201 45 view .LVU373
 1446 012c 0322     		movs	r2, #3
 202:../../libDaisy//src/hid/midi.h ****                                 }
 1447              		.loc 10 202 73 view .LVU374
 1448 012e 84F89230 		strb	r3, [r4, #146]
 201:../../libDaisy//src/hid/midi.h ****                                     incoming_message_.sysex_message_len = 0;
 1449              		.loc 10 201 45 view .LVU375
 1450 0132 2271     		strb	r2, [r4, #4]
 1451 0134 78E7     		b	.L35
 1452              	.LVL81:
 1453              	.L42:
 218:../../libDaisy//src/hid/midi.h ****                     incoming_message_.data[0] = byte & kDataByteMask;
 1454              		.loc 10 218 47 view .LVU376
 1455 0136 95F8A430 		ldrb	r3, [r5, #164]	@ zero_extendqisi2
 220:../../libDaisy//src/hid/midi.h ****                 }
 1456              		.loc 10 220 47 view .LVU377
 1457 013a 0222     		movs	r2, #2
 218:../../libDaisy//src/hid/midi.h ****                     incoming_message_.data[0] = byte & kDataByteMask;
 1458              		.loc 10 218 47 view .LVU378
 1459 013c 0372     		strb	r3, [r0, #8]
ARM GAS  C:\Users\danst\AppData\Local\Temp\cczkfCFF.s 			page 51


 219:../../libDaisy//src/hid/midi.h ****                     pstate_                   = ParserHasData0;
 1460              		.loc 10 219 54 view .LVU379
 1461 013e 95F8AE30 		ldrb	r3, [r5, #174]	@ zero_extendqisi2
 220:../../libDaisy//src/hid/midi.h ****                 }
 1462              		.loc 10 220 47 view .LVU380
 1463 0142 0271     		strb	r2, [r0, #4]
 219:../../libDaisy//src/hid/midi.h ****                     pstate_                   = ParserHasData0;
 1464              		.loc 10 219 54 view .LVU381
 1465 0144 1940     		ands	r1, r1, r3
 1466              	.LVL82:
 219:../../libDaisy//src/hid/midi.h ****                     pstate_                   = ParserHasData0;
 1467              		.loc 10 219 47 view .LVU382
 1468 0146 0174     		strb	r1, [r0, #16]
 1469              		.loc 10 294 5 view .LVU383
 1470 0148 48B0     		add	sp, sp, #288
 1471              		.cfi_remember_state
 1472              		.cfi_def_cfa_offset 24
 1473              		@ sp needed
 1474 014a BDE8F081 		pop	{r4, r5, r6, r7, r8, pc}
 1475              	.LVL83:
 1476              	.L85:
 1477              		.cfi_restore_state
 261:../../libDaisy//src/hid/midi.h **** 
 1478              		.loc 10 261 54 view .LVU384
 1479 014e 95F8AE20 		ldrb	r2, [r5, #174]	@ zero_extendqisi2
 1480 0152 1140     		ands	r1, r1, r2
 1481              	.LVL84:
 261:../../libDaisy//src/hid/midi.h **** 
 1482              		.loc 10 261 47 view .LVU385
 1483 0154 4174     		strb	r1, [r0, #17]
 264:../../libDaisy//src/hid/midi.h ****                        && incoming_message_.data[1] == 0)
 1484              		.loc 10 264 21 view .LVU386
 1485 0156 95F8A420 		ldrb	r2, [r5, #164]	@ zero_extendqisi2
 265:../../libDaisy//src/hid/midi.h ****                     {
 1486              		.loc 10 265 24 view .LVU387
 1487 015a 012A     		cmp	r2, #1
 1488 015c 01D1     		bne	.L54
 1489 015e 0029     		cmp	r1, #0
 1490 0160 54D0     		beq	.L88
 1491              	.L54:
 1492              	.LVL85:
 265:../../libDaisy//src/hid/midi.h ****                     {
 1493              		.loc 10 265 24 view .LVU388
 1494 0162 6E46     		mov	r6, sp
 1495 0164 9022     		movs	r2, #144
 1496 0166 04F10801 		add	r1, r4, #8
 1497 016a 3046     		mov	r0, r6
 1498              	.LVL86:
 265:../../libDaisy//src/hid/midi.h ****                     {
 1499              		.loc 10 265 24 view .LVU389
 1500 016c FFF7FEFF 		bl	memcpy
 1501              	.LVL87:
 1502              	.LBB545:
 1503              	.LBI545:
  44:../../libDaisy//src/util/ringbuffer.h ****     {
 1504              		.loc 14 44 17 is_stmt 1 view .LVU390
 1505              	.L55:
ARM GAS  C:\Users\danst\AppData\Local\Temp\cczkfCFF.s 			page 52


 1506              	.LBB546:
  46:../../libDaisy//src/util/ringbuffer.h ****             ;
 1507              		.loc 14 46 24 view .LVU391
 1508              	.LBB547:
 1509              	.LBI547:
  30:../../libDaisy//src/util/ringbuffer.h ****     {
 1510              		.loc 14 30 19 view .LVU392
 1511              	.LBB548:
  32:../../libDaisy//src/util/ringbuffer.h ****     }
 1512              		.loc 14 32 17 is_stmt 0 view .LVU393
 1513 0170 D5F89830 		ldr	r3, [r5, #152]
  32:../../libDaisy//src/util/ringbuffer.h ****     }
 1514              		.loc 14 32 29 view .LVU394
 1515 0174 D5F89C20 		ldr	r2, [r5, #156]
 1516              	.LVL88:
  32:../../libDaisy//src/util/ringbuffer.h ****     }
 1517              		.loc 14 32 40 view .LVU395
 1518 0178 013B     		subs	r3, r3, #1
 1519 017a 9B1A     		subs	r3, r3, r2
  32:../../libDaisy//src/util/ringbuffer.h ****     }
 1520              		.loc 14 32 47 view .LVU396
 1521 017c DBB2     		uxtb	r3, r3
 1522              	.LBE548:
 1523              	.LBE547:
  46:../../libDaisy//src/util/ringbuffer.h ****             ;
 1524              		.loc 14 46 24 view .LVU397
 1525 017e 002B     		cmp	r3, #0
 1526 0180 F6D0     		beq	.L55
 1527              	.LVL89:
  46:../../libDaisy//src/util/ringbuffer.h ****             ;
 1528              		.loc 14 46 24 view .LVU398
 1529 0182 9022     		movs	r2, #144
 1530 0184 3146     		mov	r1, r6
 1531 0186 0DEB0200 		add	r0, sp, r2
 1532 018a FFF7FEFF 		bl	memcpy
 1533              	.LVL90:
 1534              	.LBB549:
 1535              	.LBI549:
  54:../../libDaisy//src/util/ringbuffer.h ****     {
 1536              		.loc 14 54 17 is_stmt 1 view .LVU399
 1537              	.LBB550:
  56:../../libDaisy//src/util/ringbuffer.h ****         buffer_[w] = v;
 1538              		.loc 14 56 16 is_stmt 0 view .LVU400
 1539 018e D5F89C60 		ldr	r6, [r5, #156]
 1540              	.LVL91:
  57:../../libDaisy//src/util/ringbuffer.h ****         write_ptr_ = (w + 1) % size;
 1541              		.loc 14 57 9 view .LVU401
 1542 0192 24A9     		add	r1, sp, #144
 1543 0194 9022     		movs	r2, #144
 1544 0196 06EBC600 		add	r0, r6, r6, lsl #3
 1545              		.loc 14 58 25 view .LVU402
 1546 019a 0136     		adds	r6, r6, #1
 1547              	.LVL92:
  57:../../libDaisy//src/util/ringbuffer.h ****         write_ptr_ = (w + 1) % size;
 1548              		.loc 14 57 9 view .LVU403
 1549 019c 04EB0010 		add	r0, r4, r0, lsl #4
 1550              		.loc 14 58 30 view .LVU404
ARM GAS  C:\Users\danst\AppData\Local\Temp\cczkfCFF.s 			page 53


 1551 01a0 F6B2     		uxtb	r6, r6
 1552              	.LVL93:
  57:../../libDaisy//src/util/ringbuffer.h ****         write_ptr_ = (w + 1) % size;
 1553              		.loc 14 57 9 view .LVU405
 1554 01a2 9830     		adds	r0, r0, #152
 1555 01a4 FFF7FEFF 		bl	memcpy
 1556              	.LVL94:
 1557              	.LBE550:
 1558              	.LBE549:
 1559              	.LBE546:
 1560              	.LBE545:
 255:../../libDaisy//src/hid/midi.h ****                 }
 1561              		.loc 10 255 29 view .LVU406
 1562 01a8 0023     		movs	r3, #0
 1563              	.LBB554:
 1564              	.LBB553:
 1565              	.LBB552:
 1566              	.LBB551:
 1567              		.loc 14 58 20 view .LVU407
 1568 01aa C5F89C60 		str	r6, [r5, #156]
 1569              	.LVL95:
 1570              		.loc 14 58 20 view .LVU408
 1571              	.LBE551:
 1572              	.LBE552:
 1573              	.LBE553:
 1574              	.LBE554:
 255:../../libDaisy//src/hid/midi.h ****                 }
 1575              		.loc 10 255 29 view .LVU409
 1576 01ae 2371     		strb	r3, [r4, #4]
 1577 01b0 3AE7     		b	.L35
 1578              	.LVL96:
 1579              	.L86:
 281:../../libDaisy//src/hid/midi.h ****                     event_q_.Write(incoming_message_);
 1580              		.loc 10 281 29 view .LVU410
 1581 01b2 0023     		movs	r3, #0
 1582 01b4 6E46     		mov	r6, sp
 1583 01b6 00F10801 		add	r1, r0, #8
 1584              	.LVL97:
 281:../../libDaisy//src/hid/midi.h ****                     event_q_.Write(incoming_message_);
 1585              		.loc 10 281 29 view .LVU411
 1586 01ba 00F51045 		add	r5, r0, #36864
 1587 01be 0371     		strb	r3, [r0, #4]
 1588              	.LVL98:
 281:../../libDaisy//src/hid/midi.h ****                     event_q_.Write(incoming_message_);
 1589              		.loc 10 281 29 view .LVU412
 1590 01c0 9022     		movs	r2, #144
 1591 01c2 3046     		mov	r0, r6
 1592              	.LVL99:
 281:../../libDaisy//src/hid/midi.h ****                     event_q_.Write(incoming_message_);
 1593              		.loc 10 281 29 view .LVU413
 1594 01c4 FFF7FEFF 		bl	memcpy
 1595              	.LVL100:
 1596              	.LBB555:
 1597              	.LBI555:
  44:../../libDaisy//src/util/ringbuffer.h ****     {
 1598              		.loc 14 44 17 is_stmt 1 view .LVU414
 1599              	.L57:
ARM GAS  C:\Users\danst\AppData\Local\Temp\cczkfCFF.s 			page 54


 1600              	.LBB556:
  46:../../libDaisy//src/util/ringbuffer.h ****             ;
 1601              		.loc 14 46 24 view .LVU415
 1602              	.LBB557:
 1603              	.LBI557:
  30:../../libDaisy//src/util/ringbuffer.h ****     {
 1604              		.loc 14 30 19 view .LVU416
 1605              	.LBB558:
  32:../../libDaisy//src/util/ringbuffer.h ****     }
 1606              		.loc 14 32 17 is_stmt 0 view .LVU417
 1607 01c8 D5F89830 		ldr	r3, [r5, #152]
  32:../../libDaisy//src/util/ringbuffer.h ****     }
 1608              		.loc 14 32 29 view .LVU418
 1609 01cc D5F89C20 		ldr	r2, [r5, #156]
 1610              	.LVL101:
  32:../../libDaisy//src/util/ringbuffer.h ****     }
 1611              		.loc 14 32 40 view .LVU419
 1612 01d0 013B     		subs	r3, r3, #1
 1613 01d2 9B1A     		subs	r3, r3, r2
  32:../../libDaisy//src/util/ringbuffer.h ****     }
 1614              		.loc 14 32 47 view .LVU420
 1615 01d4 DBB2     		uxtb	r3, r3
 1616              	.LBE558:
 1617              	.LBE557:
  46:../../libDaisy//src/util/ringbuffer.h ****             ;
 1618              		.loc 14 46 24 view .LVU421
 1619 01d6 002B     		cmp	r3, #0
 1620 01d8 F6D0     		beq	.L57
 1621              	.LVL102:
  46:../../libDaisy//src/util/ringbuffer.h ****             ;
 1622              		.loc 14 46 24 view .LVU422
 1623 01da 9022     		movs	r2, #144
 1624 01dc 3146     		mov	r1, r6
 1625 01de 0DEB0200 		add	r0, sp, r2
 1626 01e2 FFF7FEFF 		bl	memcpy
 1627              	.LVL103:
 1628              	.LBB559:
 1629              	.LBI559:
  54:../../libDaisy//src/util/ringbuffer.h ****     {
 1630              		.loc 14 54 17 is_stmt 1 view .LVU423
 1631              	.LBB560:
  56:../../libDaisy//src/util/ringbuffer.h ****         buffer_[w] = v;
 1632              		.loc 14 56 16 is_stmt 0 view .LVU424
 1633 01e6 D5F89C60 		ldr	r6, [r5, #156]
 1634              	.LVL104:
  57:../../libDaisy//src/util/ringbuffer.h ****         write_ptr_ = (w + 1) % size;
 1635              		.loc 14 57 9 view .LVU425
 1636 01ea 24A9     		add	r1, sp, #144
 1637 01ec 9022     		movs	r2, #144
 1638 01ee 06EBC600 		add	r0, r6, r6, lsl #3
 1639              		.loc 14 58 25 view .LVU426
 1640 01f2 0136     		adds	r6, r6, #1
 1641              	.LVL105:
  57:../../libDaisy//src/util/ringbuffer.h ****         write_ptr_ = (w + 1) % size;
 1642              		.loc 14 57 9 view .LVU427
 1643 01f4 04EB0010 		add	r0, r4, r0, lsl #4
 1644              		.loc 14 58 30 view .LVU428
ARM GAS  C:\Users\danst\AppData\Local\Temp\cczkfCFF.s 			page 55


 1645 01f8 F6B2     		uxtb	r6, r6
 1646              	.LVL106:
  57:../../libDaisy//src/util/ringbuffer.h ****         write_ptr_ = (w + 1) % size;
 1647              		.loc 14 57 9 view .LVU429
 1648 01fa 9830     		adds	r0, r0, #152
 1649 01fc FFF7FEFF 		bl	memcpy
 1650              	.LVL107:
 1651              		.loc 14 58 20 view .LVU430
 1652 0200 C5F89C60 		str	r6, [r5, #156]
 1653              	.LVL108:
 1654              		.loc 14 58 20 view .LVU431
 1655              	.LBE560:
 1656              	.LBE559:
 1657              	.LBE556:
 1658              	.LBE555:
 1659 0204 10E7     		b	.L35
 1660              	.LVL109:
 1661              	.L51:
 238:../../libDaisy//src/hid/midi.h ****                     }
 1662              		.loc 10 238 33 view .LVU432
 1663 0206 0223     		movs	r3, #2
 1664 0208 0371     		strb	r3, [r0, #4]
 1665 020a 5EE7     		b	.L53
 1666              	.LVL110:
 1667              	.L88:
 267:../../libDaisy//src/hid/midi.h ****                     }
 1668              		.loc 10 267 66 view .LVU433
 1669 020c 85F8A430 		strb	r3, [r5, #164]
 267:../../libDaisy//src/hid/midi.h ****                     }
 1670              		.loc 10 267 48 view .LVU434
 1671 0210 0372     		strb	r3, [r0, #8]
 1672 0212 A6E7     		b	.L54
 1673              	.LVL111:
 1674              	.L47:
 205:../../libDaisy//src/hid/midi.h ****                                 {
 1675              		.loc 10 205 38 view .LVU435
 1676 0214 4B07     		lsls	r3, r1, #29
 1677 0216 7FF507AF 		bpl	.L35
 1678 021a 6E46     		mov	r6, sp
 207:../../libDaisy//src/hid/midi.h ****                                     event_q_.Write(incoming_message_);
 1679              		.loc 10 207 45 view .LVU436
 1680 021c 2071     		strb	r0, [r4, #4]
 1681              	.LVL112:
 207:../../libDaisy//src/hid/midi.h ****                                     event_q_.Write(incoming_message_);
 1682              		.loc 10 207 45 view .LVU437
 1683 021e 9022     		movs	r2, #144
 1684 0220 04F10801 		add	r1, r4, #8
 1685              	.LVL113:
 207:../../libDaisy//src/hid/midi.h ****                                     event_q_.Write(incoming_message_);
 1686              		.loc 10 207 45 view .LVU438
 1687 0224 3046     		mov	r0, r6
 1688 0226 FFF7FEFF 		bl	memcpy
 1689              	.LVL114:
 1690              	.LBB561:
 1691              	.LBI561:
  44:../../libDaisy//src/util/ringbuffer.h ****     {
 1692              		.loc 14 44 17 is_stmt 1 view .LVU439
ARM GAS  C:\Users\danst\AppData\Local\Temp\cczkfCFF.s 			page 56


 1693              	.L48:
 1694              	.LBB562:
  46:../../libDaisy//src/util/ringbuffer.h ****             ;
 1695              		.loc 14 46 24 view .LVU440
 1696              	.LBB563:
 1697              	.LBI563:
  30:../../libDaisy//src/util/ringbuffer.h ****     {
 1698              		.loc 14 30 19 view .LVU441
 1699              	.LBB564:
  32:../../libDaisy//src/util/ringbuffer.h ****     }
 1700              		.loc 14 32 17 is_stmt 0 view .LVU442
 1701 022a D5F89830 		ldr	r3, [r5, #152]
  32:../../libDaisy//src/util/ringbuffer.h ****     }
 1702              		.loc 14 32 29 view .LVU443
 1703 022e D5F89C20 		ldr	r2, [r5, #156]
 1704              	.LVL115:
  32:../../libDaisy//src/util/ringbuffer.h ****     }
 1705              		.loc 14 32 40 view .LVU444
 1706 0232 013B     		subs	r3, r3, #1
 1707 0234 9B1A     		subs	r3, r3, r2
  32:../../libDaisy//src/util/ringbuffer.h ****     }
 1708              		.loc 14 32 47 view .LVU445
 1709 0236 DBB2     		uxtb	r3, r3
 1710              	.LBE564:
 1711              	.LBE563:
  46:../../libDaisy//src/util/ringbuffer.h ****             ;
 1712              		.loc 14 46 24 view .LVU446
 1713 0238 002B     		cmp	r3, #0
 1714 023a F6D0     		beq	.L48
 1715              	.LVL116:
 1716              	.L84:
  46:../../libDaisy//src/util/ringbuffer.h ****             ;
 1717              		.loc 14 46 24 view .LVU447
 1718 023c 9022     		movs	r2, #144
 1719 023e 3146     		mov	r1, r6
 1720 0240 0DEB0200 		add	r0, sp, r2
 1721 0244 FFF7FEFF 		bl	memcpy
 1722              	.LVL117:
 1723              	.LBB565:
 1724              	.LBI565:
  54:../../libDaisy//src/util/ringbuffer.h ****     {
 1725              		.loc 14 54 17 is_stmt 1 view .LVU448
 1726              	.LBB566:
  56:../../libDaisy//src/util/ringbuffer.h ****         buffer_[w] = v;
 1727              		.loc 14 56 16 is_stmt 0 view .LVU449
 1728 0248 D5F89C60 		ldr	r6, [r5, #156]
 1729              	.LVL118:
  57:../../libDaisy//src/util/ringbuffer.h ****         write_ptr_ = (w + 1) % size;
 1730              		.loc 14 57 9 view .LVU450
 1731 024c 24A9     		add	r1, sp, #144
 1732 024e 9022     		movs	r2, #144
 1733 0250 06EBC600 		add	r0, r6, r6, lsl #3
 1734 0254 04EB0010 		add	r0, r4, r0, lsl #4
 1735 0258 9830     		adds	r0, r0, #152
 1736 025a FFF7FEFF 		bl	memcpy
 1737              	.LVL119:
 1738              		.loc 14 58 25 view .LVU451
ARM GAS  C:\Users\danst\AppData\Local\Temp\cczkfCFF.s 			page 57


 1739 025e 731C     		adds	r3, r6, #1
 1740              		.loc 14 58 30 view .LVU452
 1741 0260 DBB2     		uxtb	r3, r3
 1742              		.loc 14 58 20 view .LVU453
 1743 0262 C5F89C30 		str	r3, [r5, #156]
 1744              	.LVL120:
 1745              		.loc 14 58 20 view .LVU454
 1746              	.LBE566:
 1747              	.LBE565:
 1748              	.LBE562:
 1749              	.LBE561:
 1750 0266 DFE6     		b	.L35
 1751              	.LVL121:
 1752              	.L87:
 182:../../libDaisy//src/hid/midi.h ****                                 running_status_        = SystemRealTime;
 1753              		.loc 10 182 56 view .LVU455
 1754 0268 0822     		movs	r2, #8
 1755 026a 6E46     		mov	r6, sp
 1756 026c 2272     		strb	r2, [r4, #8]
 1757 026e 3046     		mov	r0, r6
 183:../../libDaisy//src/hid/midi.h ****                                 incoming_message_.srt_type
 1758              		.loc 10 183 56 view .LVU456
 1759 0270 85F8A420 		strb	r2, [r5, #164]
 186:../../libDaisy//src/hid/midi.h **** 
 1760              		.loc 10 186 46 view .LVU457
 1761 0274 95F8B220 		ldrb	r2, [r5, #178]	@ zero_extendqisi2
 189:../../libDaisy//src/hid/midi.h ****                                 event_q_.Write(incoming_message_);
 1762              		.loc 10 189 41 view .LVU458
 1763 0278 2371     		strb	r3, [r4, #4]
 1764              	.LVL122:
 186:../../libDaisy//src/hid/midi.h **** 
 1765              		.loc 10 186 46 view .LVU459
 1766 027a 1140     		ands	r1, r1, r2
 1767              	.LVL123:
 186:../../libDaisy//src/hid/midi.h **** 
 1768              		.loc 10 186 46 view .LVU460
 1769 027c 9022     		movs	r2, #144
 185:../../libDaisy//src/hid/midi.h ****                                         byte & kSystemRealTimeMask);
 1770              		.loc 10 185 37 view .LVU461
 1771 027e 84F89410 		strb	r1, [r4, #148]
 1772 0282 04F10801 		add	r1, r4, #8
 1773 0286 FFF7FEFF 		bl	memcpy
 1774              	.LVL124:
 1775              	.LBB567:
 1776              	.LBI567:
  44:../../libDaisy//src/util/ringbuffer.h ****     {
 1777              		.loc 14 44 17 is_stmt 1 view .LVU462
 1778              	.L46:
 1779              	.LBB568:
  46:../../libDaisy//src/util/ringbuffer.h ****             ;
 1780              		.loc 14 46 24 view .LVU463
 1781              	.LBB569:
 1782              	.LBI569:
  30:../../libDaisy//src/util/ringbuffer.h ****     {
 1783              		.loc 14 30 19 view .LVU464
 1784              	.LBB570:
  32:../../libDaisy//src/util/ringbuffer.h ****     }
ARM GAS  C:\Users\danst\AppData\Local\Temp\cczkfCFF.s 			page 58


 1785              		.loc 14 32 17 is_stmt 0 view .LVU465
 1786 028a D5F89830 		ldr	r3, [r5, #152]
  32:../../libDaisy//src/util/ringbuffer.h ****     }
 1787              		.loc 14 32 29 view .LVU466
 1788 028e D5F89C20 		ldr	r2, [r5, #156]
 1789              	.LVL125:
  32:../../libDaisy//src/util/ringbuffer.h ****     }
 1790              		.loc 14 32 40 view .LVU467
 1791 0292 013B     		subs	r3, r3, #1
 1792 0294 9B1A     		subs	r3, r3, r2
  32:../../libDaisy//src/util/ringbuffer.h ****     }
 1793              		.loc 14 32 47 view .LVU468
 1794 0296 DBB2     		uxtb	r3, r3
 1795              	.LBE570:
 1796              	.LBE569:
  46:../../libDaisy//src/util/ringbuffer.h ****             ;
 1797              		.loc 14 46 24 view .LVU469
 1798 0298 002B     		cmp	r3, #0
 1799 029a F6D0     		beq	.L46
 1800 029c CEE7     		b	.L84
 1801              	.LBE568:
 1802              	.LBE567:
 1803              		.cfi_endproc
 1804              	.LFE4861:
 1806 029e 00BF     		.section	.text._Z10handleMidiv,"ax",%progbits
 1807              		.align	1
 1808              		.p2align 2,,3
 1809              		.global	_Z10handleMidiv
 1810              		.syntax unified
 1811              		.thumb
 1812              		.thumb_func
 1813              		.fpu fpv5-d16
 1815              	_Z10handleMidiv:
 1816              	.LFB4426:
  87:2Cats1Bag.cpp **** 	// GET MIDI NOTE NUMBER
 1817              		.loc 12 87 18 is_stmt 1 view -0
 1818              		.cfi_startproc
 1819              		@ args = 0, pretend = 0, frame = 0
 1820              		@ frame_needed = 0, uses_anonymous_args = 0
  89:2Cats1Bag.cpp **** 	while( midi.HasEvents() ){
 1821              		.loc 12 89 2 view .LVU471
 1822              	.LVL126:
 1823              	.LBB591:
 1824              	.LBI591:
 110:../../libDaisy//src/hid/midi.h ****     {
 1825              		.loc 10 110 10 view .LVU472
 1826              	.LBE591:
  87:2Cats1Bag.cpp **** 	// GET MIDI NOTE NUMBER
 1827              		.loc 12 87 18 is_stmt 0 view .LVU473
 1828 0000 70B5     		push	{r4, r5, r6, lr}
 1829              		.cfi_def_cfa_offset 16
 1830              		.cfi_offset 4, -16
 1831              		.cfi_offset 5, -12
 1832              		.cfi_offset 6, -8
 1833              		.cfi_offset 14, -4
 1834              	.LBB596:
 1835              	.LBB592:
ARM GAS  C:\Users\danst\AppData\Local\Temp\cczkfCFF.s 			page 59


 113:../../libDaisy//src/hid/midi.h ****         while(transport_.Readable())
 1836              		.loc 10 113 29 view .LVU474
 1837 0002 FFF7FEFF 		bl	_ZN5daisy6System6GetNowEv
 1838              	.LVL127:
 1839 0006 2C4C     		ldr	r4, .L111
 1840 0008 0546     		mov	r5, r0
 1841              	.LVL128:
 113:../../libDaisy//src/hid/midi.h ****         while(transport_.Readable())
 1842              		.loc 10 113 29 view .LVU475
 1843 000a 07E0     		b	.L91
 1844              	.LVL129:
 1845              	.L108:
 116:../../libDaisy//src/hid/midi.h ****             Parse(transport_.Rx());
 1846              		.loc 10 116 24 view .LVU476
 1847 000c C4F8A050 		str	r5, [r4, #160]
 117:../../libDaisy//src/hid/midi.h ****         }
 1848              		.loc 10 117 18 view .LVU477
 1849 0010 FFF7FEFF 		bl	_ZN5daisy16MidiUsbTransport2RxEv
 1850              	.LVL130:
 1851 0014 0146     		mov	r1, r0
 1852 0016 2948     		ldr	r0, .L111+4
 1853 0018 FFF7FEFF 		bl	_ZN5daisy11MidiHandlerINS_16MidiUsbTransportEE5ParseEh
 1854              	.LVL131:
 1855              	.L91:
 114:../../libDaisy//src/hid/midi.h ****         {
 1856              		.loc 10 114 34 is_stmt 1 view .LVU478
 1857 001c 2848     		ldr	r0, .L111+8
 1858 001e FFF7FEFF 		bl	_ZN5daisy16MidiUsbTransport8ReadableEv
 1859              	.LVL132:
 1860 0022 0346     		mov	r3, r0
 117:../../libDaisy//src/hid/midi.h ****         }
 1861              		.loc 10 117 18 is_stmt 0 view .LVU479
 1862 0024 2648     		ldr	r0, .L111+8
 114:../../libDaisy//src/hid/midi.h ****         {
 1863              		.loc 10 114 34 view .LVU480
 1864 0026 002B     		cmp	r3, #0
 1865 0028 F0D1     		bne	.L108
 123:../../libDaisy//src/hid/midi.h ****         {
 1866              		.loc 10 123 32 view .LVU481
 1867 002a 2548     		ldr	r0, .L111+8
 1868 002c FFF7FEFF 		bl	_ZN5daisy16MidiUsbTransport8RxActiveEv
 1869              	.LVL133:
 123:../../libDaisy//src/hid/midi.h ****         {
 1870              		.loc 10 123 9 view .LVU482
 1871 0030 0346     		mov	r3, r0
 1872 0032 0028     		cmp	r0, #0
 1873 0034 37D0     		beq	.L109
 1874              	.L92:
 1875              	.LVL134:
 123:../../libDaisy//src/hid/midi.h ****         {
 1876              		.loc 10 123 9 view .LVU483
 1877              	.LBE592:
 1878              	.LBE596:
  90:2Cats1Bag.cpp **** 		auto midiEvent = midi.PopEvent();
 1879              		.loc 12 90 2 is_stmt 1 view .LVU484
  90:2Cats1Bag.cpp **** 		auto midiEvent = midi.PopEvent();
 1880              		.loc 12 90 23 view .LVU485
ARM GAS  C:\Users\danst\AppData\Local\Temp\cczkfCFF.s 			page 60


 1881              	.LBB597:
 1882              	.LBI597:
 134:../../libDaisy//src/hid/midi.h **** 
 1883              		.loc 10 134 10 view .LVU486
 1884              	.LBB598:
 1885              	.LBI598:
  36:../../libDaisy//src/util/ringbuffer.h **** 
 1886              		.loc 14 36 19 view .LVU487
 1887              	.LBB599:
  36:../../libDaisy//src/util/ringbuffer.h **** 
 1888              		.loc 14 36 46 is_stmt 0 view .LVU488
 1889 0036 D4F89C30 		ldr	r3, [r4, #156]
  36:../../libDaisy//src/util/ringbuffer.h **** 
 1890              		.loc 14 36 59 view .LVU489
 1891 003a D4F89820 		ldr	r2, [r4, #152]
 1892              	.LVL135:
  36:../../libDaisy//src/util/ringbuffer.h **** 
 1893              		.loc 14 36 57 view .LVU490
 1894 003e 9B1A     		subs	r3, r3, r2
  36:../../libDaisy//src/util/ringbuffer.h **** 
 1895              		.loc 14 36 72 view .LVU491
 1896 0040 DBB2     		uxtb	r3, r3
 1897              	.LBE599:
 1898              	.LBE598:
 1899              	.LBE597:
  90:2Cats1Bag.cpp **** 		auto midiEvent = midi.PopEvent();
 1900              		.loc 12 90 23 view .LVU492
 1901 0042 33B3     		cbz	r3, .L89
 1902 0044 1D49     		ldr	r1, .L111+4
 1903 0046 01F19800 		add	r0, r1, #152
 1904              	.L94:
 1905              	.LBB602:
 1906              	.LBB603:
 1907              	.LBB604:
 1908              	.LBB605:
  59:../../libDaisy//src/util/ringbuffer.h ****     }
  60:../../libDaisy//src/util/ringbuffer.h **** 
  61:../../libDaisy//src/util/ringbuffer.h ****     /** Reads the first available element from the ring buffer
  62:../../libDaisy//src/util/ringbuffer.h ****     \return read value
  63:../../libDaisy//src/util/ringbuffer.h ****      */
  64:../../libDaisy//src/util/ringbuffer.h ****     inline T Read()
  65:../../libDaisy//src/util/ringbuffer.h ****     {
  66:../../libDaisy//src/util/ringbuffer.h ****         while(!readable())
 1909              		.loc 14 66 24 is_stmt 1 view .LVU493
 1910              	.LVL136:
 1911              	.LBB606:
 1912              	.LBI606:
  36:../../libDaisy//src/util/ringbuffer.h **** 
 1913              		.loc 14 36 19 view .LVU494
 1914              	.LBB607:
  36:../../libDaisy//src/util/ringbuffer.h **** 
 1915              		.loc 14 36 46 is_stmt 0 view .LVU495
 1916 004a D4F89C30 		ldr	r3, [r4, #156]
  36:../../libDaisy//src/util/ringbuffer.h **** 
 1917              		.loc 14 36 59 view .LVU496
 1918 004e D4F89820 		ldr	r2, [r4, #152]
 1919              	.LVL137:
ARM GAS  C:\Users\danst\AppData\Local\Temp\cczkfCFF.s 			page 61


  36:../../libDaisy//src/util/ringbuffer.h **** 
 1920              		.loc 14 36 57 view .LVU497
 1921 0052 9B1A     		subs	r3, r3, r2
  36:../../libDaisy//src/util/ringbuffer.h **** 
 1922              		.loc 14 36 72 view .LVU498
 1923 0054 DBB2     		uxtb	r3, r3
 1924              	.LBE607:
 1925              	.LBE606:
 1926              		.loc 14 66 24 view .LVU499
 1927 0056 002B     		cmp	r3, #0
 1928 0058 F7D0     		beq	.L94
 1929              	.LVL138:
 1930              	.LBB608:
 1931              	.LBI608:
  67:../../libDaisy//src/util/ringbuffer.h ****             ;
  68:../../libDaisy//src/util/ringbuffer.h ****         return ImmediateRead();
  69:../../libDaisy//src/util/ringbuffer.h ****     }
  70:../../libDaisy//src/util/ringbuffer.h **** 
  71:../../libDaisy//src/util/ringbuffer.h ****     /** Reads next element from ring buffer immediately
  72:../../libDaisy//src/util/ringbuffer.h ****     \return read value
  73:../../libDaisy//src/util/ringbuffer.h ****      */
  74:../../libDaisy//src/util/ringbuffer.h ****     inline T ImmediateRead()
 1932              		.loc 14 74 14 is_stmt 1 view .LVU500
 1933              	.LBB609:
  75:../../libDaisy//src/util/ringbuffer.h ****     {
  76:../../libDaisy//src/util/ringbuffer.h ****         size_t r      = read_ptr_;
 1934              		.loc 14 76 16 is_stmt 0 view .LVU501
 1935 005a D4F89830 		ldr	r3, [r4, #152]
 1936              	.LVL139:
  77:../../libDaisy//src/util/ringbuffer.h ****         T      result = buffer_[r];
 1937              		.loc 14 77 16 view .LVU502
 1938 005e 03EBC302 		add	r2, r3, r3, lsl #3
 1939              	.LVL140:
  78:../../libDaisy//src/util/ringbuffer.h ****         read_ptr_     = (r + 1) % size;
 1940              		.loc 14 78 28 view .LVU503
 1941 0062 0133     		adds	r3, r3, #1
 1942              	.LVL141:
  77:../../libDaisy//src/util/ringbuffer.h ****         T      result = buffer_[r];
 1943              		.loc 14 77 16 view .LVU504
 1944 0064 1201     		lsls	r2, r2, #4
 1945              		.loc 14 78 33 view .LVU505
 1946 0066 DBB2     		uxtb	r3, r3
  77:../../libDaisy//src/util/ringbuffer.h ****         T      result = buffer_[r];
 1947              		.loc 14 77 16 view .LVU506
 1948 0068 01EB020C 		add	ip, r1, r2
 1949 006c 825C     		ldrb	r2, [r0, r2]	@ zero_extendqisi2
 1950              	.LVL142:
 1951              		.loc 14 78 23 view .LVU507
 1952 006e C4F89830 		str	r3, [r4, #152]
 1953              	.LVL143:
 1954              		.loc 14 78 23 view .LVU508
 1955              	.LBE609:
 1956              	.LBE608:
 1957              	.LBE605:
 1958              	.LBE604:
 1959              	.LBE603:
 1960              	.LBB614:
ARM GAS  C:\Users\danst\AppData\Local\Temp\cczkfCFF.s 			page 62


  92:2Cats1Bag.cpp **** 			auto noteMessage = midiEvent.AsNoteOn();
 1961              		.loc 12 92 3 view .LVU509
 1962 0072 012A     		cmp	r2, #1
 1963              	.LBE614:
 1964              	.LBB618:
 1965              	.LBB613:
 1966              	.LBB612:
 1967              	.LBB611:
 1968              	.LBB610:
  77:../../libDaisy//src/util/ringbuffer.h ****         T      result = buffer_[r];
 1969              		.loc 14 77 16 view .LVU510
 1970 0074 9CF8A050 		ldrb	r5, [ip, #160]	@ zero_extendqisi2
 1971 0078 DCF89C60 		ldr	r6, [ip, #156]
 1972              	.LVL144:
  77:../../libDaisy//src/util/ringbuffer.h ****         T      result = buffer_[r];
 1973              		.loc 14 77 16 view .LVU511
 1974 007c 9CF8A130 		ldrb	r3, [ip, #161]	@ zero_extendqisi2
 1975              	.LVL145:
  77:../../libDaisy//src/util/ringbuffer.h ****         T      result = buffer_[r];
 1976              		.loc 14 77 16 view .LVU512
 1977              	.LBE610:
 1978              	.LBE611:
 1979              	.LBE612:
 1980              	.LBE613:
 1981              	.LBE618:
  92:2Cats1Bag.cpp **** 			auto noteMessage = midiEvent.AsNoteOn();
 1982              		.loc 12 92 3 is_stmt 1 view .LVU513
 1983              	.LBB619:
 1984 0080 08D0     		beq	.L110
 1985              	.LVL146:
 1986              	.L95:
  92:2Cats1Bag.cpp **** 			auto noteMessage = midiEvent.AsNoteOn();
 1987              		.loc 12 92 3 is_stmt 0 view .LVU514
 1988              	.LBE619:
 1989              	.LBE602:
  90:2Cats1Bag.cpp **** 		auto midiEvent = midi.PopEvent();
 1990              		.loc 12 90 2 is_stmt 1 discriminator 2 view .LVU515
  90:2Cats1Bag.cpp **** 		auto midiEvent = midi.PopEvent();
 1991              		.loc 12 90 23 discriminator 2 view .LVU516
 1992              	.LBB621:
 134:../../libDaisy//src/hid/midi.h **** 
 1993              		.loc 10 134 10 discriminator 2 view .LVU517
 1994              	.LBB601:
  36:../../libDaisy//src/util/ringbuffer.h **** 
 1995              		.loc 14 36 19 discriminator 2 view .LVU518
 1996              	.LBB600:
  36:../../libDaisy//src/util/ringbuffer.h **** 
 1997              		.loc 14 36 46 is_stmt 0 discriminator 2 view .LVU519
 1998 0082 D4F89C30 		ldr	r3, [r4, #156]
  36:../../libDaisy//src/util/ringbuffer.h **** 
 1999              		.loc 14 36 59 discriminator 2 view .LVU520
 2000 0086 D4F89820 		ldr	r2, [r4, #152]
 2001              	.LVL147:
  36:../../libDaisy//src/util/ringbuffer.h **** 
 2002              		.loc 14 36 57 discriminator 2 view .LVU521
 2003 008a 9B1A     		subs	r3, r3, r2
  36:../../libDaisy//src/util/ringbuffer.h **** 
ARM GAS  C:\Users\danst\AppData\Local\Temp\cczkfCFF.s 			page 63


 2004              		.loc 14 36 72 discriminator 2 view .LVU522
 2005 008c DBB2     		uxtb	r3, r3
 2006              	.LBE600:
 2007              	.LBE601:
 2008              	.LBE621:
  90:2Cats1Bag.cpp **** 		auto midiEvent = midi.PopEvent();
 2009              		.loc 12 90 23 discriminator 2 view .LVU523
 2010 008e 002B     		cmp	r3, #0
 2011 0090 DBD1     		bne	.L94
 2012              	.L89:
 106:2Cats1Bag.cpp **** 
 2013              		.loc 12 106 1 view .LVU524
 2014 0092 70BD     		pop	{r4, r5, r6, pc}
 2015              	.LVL148:
 2016              	.L110:
 2017              	.LBB622:
 2018              	.LBB620:
 2019              	.LBB615:
  93:2Cats1Bag.cpp **** 			if( noteMessage.velocity != 0 ){
 2020              		.loc 12 93 4 is_stmt 1 view .LVU525
 2021              	.LBB616:
 2022              	.LBI616:
 2023              		.file 15 "../../libDaisy//src/hid/MidiEvent.h"
   1:../../libDaisy//src/hid/MidiEvent.h **** namespace daisy
   2:../../libDaisy//src/hid/MidiEvent.h **** {
   3:../../libDaisy//src/hid/MidiEvent.h **** /** @addtogroup midi MIDI
   4:../../libDaisy//src/hid/MidiEvent.h ****  *  @ingroup human_interface
   5:../../libDaisy//src/hid/MidiEvent.h ****  *  @ingroup libdaisy
   6:../../libDaisy//src/hid/MidiEvent.h ****  *  @brief MIDI handlers, transports, and message types
   7:../../libDaisy//src/hid/MidiEvent.h ****  *  @{
   8:../../libDaisy//src/hid/MidiEvent.h ****  */
   9:../../libDaisy//src/hid/MidiEvent.h **** 
  10:../../libDaisy//src/hid/MidiEvent.h **** /** @defgroup midi_events MIDI_EVENTS 
  11:../../libDaisy//src/hid/MidiEvent.h ****  *  @{
  12:../../libDaisy//src/hid/MidiEvent.h **** */
  13:../../libDaisy//src/hid/MidiEvent.h **** 
  14:../../libDaisy//src/hid/MidiEvent.h **** /** Parsed from the Status Byte, these are the common Midi Messages that can be handled. \n
  15:../../libDaisy//src/hid/MidiEvent.h **** At this time only 3-byte messages are correctly parsed into MidiEvents.
  16:../../libDaisy//src/hid/MidiEvent.h **** */
  17:../../libDaisy//src/hid/MidiEvent.h **** enum MidiMessageType
  18:../../libDaisy//src/hid/MidiEvent.h **** {
  19:../../libDaisy//src/hid/MidiEvent.h ****     NoteOff,               /**< & */
  20:../../libDaisy//src/hid/MidiEvent.h ****     NoteOn,                /**< & */
  21:../../libDaisy//src/hid/MidiEvent.h ****     PolyphonicKeyPressure, /**< & */
  22:../../libDaisy//src/hid/MidiEvent.h ****     ControlChange,         /**< & */
  23:../../libDaisy//src/hid/MidiEvent.h ****     ProgramChange,         /**< & */
  24:../../libDaisy//src/hid/MidiEvent.h ****     ChannelPressure,       /**< & */
  25:../../libDaisy//src/hid/MidiEvent.h ****     PitchBend,             /**< & */
  26:../../libDaisy//src/hid/MidiEvent.h ****     SystemCommon,          /**< & */
  27:../../libDaisy//src/hid/MidiEvent.h ****     SystemRealTime,        /**< & */
  28:../../libDaisy//src/hid/MidiEvent.h ****     ChannelMode,           /**< & */
  29:../../libDaisy//src/hid/MidiEvent.h ****     MessageLast,           /**< & */
  30:../../libDaisy//src/hid/MidiEvent.h **** };
  31:../../libDaisy//src/hid/MidiEvent.h **** 
  32:../../libDaisy//src/hid/MidiEvent.h **** enum SystemCommonType
  33:../../libDaisy//src/hid/MidiEvent.h **** {
  34:../../libDaisy//src/hid/MidiEvent.h ****     SystemExclusive,     /**< & */
ARM GAS  C:\Users\danst\AppData\Local\Temp\cczkfCFF.s 			page 64


  35:../../libDaisy//src/hid/MidiEvent.h ****     MTCQuarterFrame,     /**< & */
  36:../../libDaisy//src/hid/MidiEvent.h ****     SongPositionPointer, /**< & */
  37:../../libDaisy//src/hid/MidiEvent.h ****     SongSelect,          /**< & */
  38:../../libDaisy//src/hid/MidiEvent.h ****     SCUndefined0,        /**< & */
  39:../../libDaisy//src/hid/MidiEvent.h ****     SCUndefined1,        /**< & */
  40:../../libDaisy//src/hid/MidiEvent.h ****     TuneRequest,         /**< & */
  41:../../libDaisy//src/hid/MidiEvent.h ****     SysExEnd,            /**< & */
  42:../../libDaisy//src/hid/MidiEvent.h ****     SystemCommonLast,    /**< & */
  43:../../libDaisy//src/hid/MidiEvent.h **** };
  44:../../libDaisy//src/hid/MidiEvent.h **** 
  45:../../libDaisy//src/hid/MidiEvent.h **** enum SystemRealTimeType
  46:../../libDaisy//src/hid/MidiEvent.h **** {
  47:../../libDaisy//src/hid/MidiEvent.h ****     TimingClock,        /**< & */
  48:../../libDaisy//src/hid/MidiEvent.h ****     SRTUndefined0,      /**< & */
  49:../../libDaisy//src/hid/MidiEvent.h ****     Start,              /**< & */
  50:../../libDaisy//src/hid/MidiEvent.h ****     Continue,           /**< & */
  51:../../libDaisy//src/hid/MidiEvent.h ****     Stop,               /**< & */
  52:../../libDaisy//src/hid/MidiEvent.h ****     SRTUndefined1,      /**< & */
  53:../../libDaisy//src/hid/MidiEvent.h ****     ActiveSensing,      /**< & */
  54:../../libDaisy//src/hid/MidiEvent.h ****     Reset,              /**< & */
  55:../../libDaisy//src/hid/MidiEvent.h ****     SystemRealTimeLast, /**< & */
  56:../../libDaisy//src/hid/MidiEvent.h **** };
  57:../../libDaisy//src/hid/MidiEvent.h **** 
  58:../../libDaisy//src/hid/MidiEvent.h **** enum ChannelModeType
  59:../../libDaisy//src/hid/MidiEvent.h **** {
  60:../../libDaisy//src/hid/MidiEvent.h ****     AllSoundOff,         /**< & */
  61:../../libDaisy//src/hid/MidiEvent.h ****     ResetAllControllers, /**< & */
  62:../../libDaisy//src/hid/MidiEvent.h ****     LocalControl,        /**< & */
  63:../../libDaisy//src/hid/MidiEvent.h ****     AllNotesOff,         /**< & */
  64:../../libDaisy//src/hid/MidiEvent.h ****     OmniModeOff,         /**< & */
  65:../../libDaisy//src/hid/MidiEvent.h ****     OmniModeOn,          /**< & */
  66:../../libDaisy//src/hid/MidiEvent.h ****     MonoModeOn,          /**< & */
  67:../../libDaisy//src/hid/MidiEvent.h ****     PolyModeOn,          /**< & */
  68:../../libDaisy//src/hid/MidiEvent.h ****     ChannelModeLast,     /**< & */
  69:../../libDaisy//src/hid/MidiEvent.h **** };
  70:../../libDaisy//src/hid/MidiEvent.h **** 
  71:../../libDaisy//src/hid/MidiEvent.h **** /** Struct containing note, and velocity data for a given channel.
  72:../../libDaisy//src/hid/MidiEvent.h **** Can be made from MidiEvent
  73:../../libDaisy//src/hid/MidiEvent.h **** */
  74:../../libDaisy//src/hid/MidiEvent.h **** struct NoteOffEvent
  75:../../libDaisy//src/hid/MidiEvent.h **** {
  76:../../libDaisy//src/hid/MidiEvent.h ****     int     channel;  /**< & */
  77:../../libDaisy//src/hid/MidiEvent.h ****     uint8_t note;     /**< & */
  78:../../libDaisy//src/hid/MidiEvent.h ****     uint8_t velocity; /**< & */
  79:../../libDaisy//src/hid/MidiEvent.h **** };
  80:../../libDaisy//src/hid/MidiEvent.h **** 
  81:../../libDaisy//src/hid/MidiEvent.h **** 
  82:../../libDaisy//src/hid/MidiEvent.h **** /** Struct containing note, and velocity data for a given channel.
  83:../../libDaisy//src/hid/MidiEvent.h **** Can be made from MidiEvent
  84:../../libDaisy//src/hid/MidiEvent.h **** */
  85:../../libDaisy//src/hid/MidiEvent.h **** struct NoteOnEvent
  86:../../libDaisy//src/hid/MidiEvent.h **** {
  87:../../libDaisy//src/hid/MidiEvent.h ****     int     channel;  /**< & */
  88:../../libDaisy//src/hid/MidiEvent.h ****     uint8_t note;     /**< & */
  89:../../libDaisy//src/hid/MidiEvent.h ****     uint8_t velocity; /**< & */
  90:../../libDaisy//src/hid/MidiEvent.h **** };
  91:../../libDaisy//src/hid/MidiEvent.h **** /** Struct containing note, and pressure data for a given channel.
ARM GAS  C:\Users\danst\AppData\Local\Temp\cczkfCFF.s 			page 65


  92:../../libDaisy//src/hid/MidiEvent.h **** Can be made from MidiEvent
  93:../../libDaisy//src/hid/MidiEvent.h **** */
  94:../../libDaisy//src/hid/MidiEvent.h **** struct PolyphonicKeyPressureEvent
  95:../../libDaisy//src/hid/MidiEvent.h **** {
  96:../../libDaisy//src/hid/MidiEvent.h ****     int     channel;
  97:../../libDaisy//src/hid/MidiEvent.h ****     uint8_t note;
  98:../../libDaisy//src/hid/MidiEvent.h ****     uint8_t pressure;
  99:../../libDaisy//src/hid/MidiEvent.h **** };
 100:../../libDaisy//src/hid/MidiEvent.h **** /** Struct containing control number, and value for a given channel.
 101:../../libDaisy//src/hid/MidiEvent.h **** Can be made from MidiEvent
 102:../../libDaisy//src/hid/MidiEvent.h **** */
 103:../../libDaisy//src/hid/MidiEvent.h **** struct ControlChangeEvent
 104:../../libDaisy//src/hid/MidiEvent.h **** {
 105:../../libDaisy//src/hid/MidiEvent.h ****     int     channel;        /**< & */
 106:../../libDaisy//src/hid/MidiEvent.h ****     uint8_t control_number; /**< & */
 107:../../libDaisy//src/hid/MidiEvent.h ****     uint8_t value;          /**< & */
 108:../../libDaisy//src/hid/MidiEvent.h **** };
 109:../../libDaisy//src/hid/MidiEvent.h **** /** Struct containing new program number, for a given channel.
 110:../../libDaisy//src/hid/MidiEvent.h **** Can be made from MidiEvent
 111:../../libDaisy//src/hid/MidiEvent.h **** */
 112:../../libDaisy//src/hid/MidiEvent.h **** struct ProgramChangeEvent
 113:../../libDaisy//src/hid/MidiEvent.h **** {
 114:../../libDaisy//src/hid/MidiEvent.h ****     int     channel; /**< & */
 115:../../libDaisy//src/hid/MidiEvent.h ****     uint8_t program; /**< & */
 116:../../libDaisy//src/hid/MidiEvent.h **** };
 117:../../libDaisy//src/hid/MidiEvent.h **** /** Struct containing pressure (aftertouch), for a given channel.
 118:../../libDaisy//src/hid/MidiEvent.h **** Can be made from MidiEvent
 119:../../libDaisy//src/hid/MidiEvent.h **** */
 120:../../libDaisy//src/hid/MidiEvent.h **** struct ChannelPressureEvent
 121:../../libDaisy//src/hid/MidiEvent.h **** {
 122:../../libDaisy//src/hid/MidiEvent.h ****     int     channel;  /**< & */
 123:../../libDaisy//src/hid/MidiEvent.h ****     uint8_t pressure; /**< & */
 124:../../libDaisy//src/hid/MidiEvent.h **** };
 125:../../libDaisy//src/hid/MidiEvent.h **** /** Struct containing pitch bend value for a given channel.
 126:../../libDaisy//src/hid/MidiEvent.h **** Can be made from MidiEvent
 127:../../libDaisy//src/hid/MidiEvent.h **** */
 128:../../libDaisy//src/hid/MidiEvent.h **** struct PitchBendEvent
 129:../../libDaisy//src/hid/MidiEvent.h **** {
 130:../../libDaisy//src/hid/MidiEvent.h ****     int     channel; /**< & */
 131:../../libDaisy//src/hid/MidiEvent.h ****     int16_t value;   /**< & */
 132:../../libDaisy//src/hid/MidiEvent.h **** };
 133:../../libDaisy//src/hid/MidiEvent.h **** /** Struct containing channel mode event for a given channel.
 134:../../libDaisy//src/hid/MidiEvent.h **** Can be made from MidiEvent
 135:../../libDaisy//src/hid/MidiEvent.h **** */
 136:../../libDaisy//src/hid/MidiEvent.h **** struct ChannelModeEvent
 137:../../libDaisy//src/hid/MidiEvent.h **** {
 138:../../libDaisy//src/hid/MidiEvent.h ****     int             channel;    /**< & */
 139:../../libDaisy//src/hid/MidiEvent.h ****     ChannelModeType event_type; /**< & */
 140:../../libDaisy//src/hid/MidiEvent.h ****     int16_t         value;      /**< & */
 141:../../libDaisy//src/hid/MidiEvent.h **** };
 142:../../libDaisy//src/hid/MidiEvent.h **** /** Struct containing sysex data.
 143:../../libDaisy//src/hid/MidiEvent.h **** Can be made from MidiEvent
 144:../../libDaisy//src/hid/MidiEvent.h **** */
 145:../../libDaisy//src/hid/MidiEvent.h **** struct SystemExclusiveEvent
 146:../../libDaisy//src/hid/MidiEvent.h **** {
 147:../../libDaisy//src/hid/MidiEvent.h ****     int     length;
 148:../../libDaisy//src/hid/MidiEvent.h ****     uint8_t data[SYSEX_BUFFER_LEN]; /**< & */
ARM GAS  C:\Users\danst\AppData\Local\Temp\cczkfCFF.s 			page 66


 149:../../libDaisy//src/hid/MidiEvent.h **** };
 150:../../libDaisy//src/hid/MidiEvent.h **** /** Struct containing QuarterFrame data.
 151:../../libDaisy//src/hid/MidiEvent.h **** Can be made from MidiEvent
 152:../../libDaisy//src/hid/MidiEvent.h **** */
 153:../../libDaisy//src/hid/MidiEvent.h **** struct MTCQuarterFrameEvent
 154:../../libDaisy//src/hid/MidiEvent.h **** {
 155:../../libDaisy//src/hid/MidiEvent.h ****     uint8_t message_type; /**< & */
 156:../../libDaisy//src/hid/MidiEvent.h ****     uint8_t value;        /**< & */
 157:../../libDaisy//src/hid/MidiEvent.h **** };
 158:../../libDaisy//src/hid/MidiEvent.h **** /** Struct containing song position data.
 159:../../libDaisy//src/hid/MidiEvent.h **** Can be made from MidiEvent
 160:../../libDaisy//src/hid/MidiEvent.h **** */
 161:../../libDaisy//src/hid/MidiEvent.h **** struct SongPositionPointerEvent
 162:../../libDaisy//src/hid/MidiEvent.h **** {
 163:../../libDaisy//src/hid/MidiEvent.h ****     uint16_t position; /**< & */
 164:../../libDaisy//src/hid/MidiEvent.h **** };
 165:../../libDaisy//src/hid/MidiEvent.h **** /** Struct containing song select data.
 166:../../libDaisy//src/hid/MidiEvent.h **** Can be made from MidiEvent
 167:../../libDaisy//src/hid/MidiEvent.h **** */
 168:../../libDaisy//src/hid/MidiEvent.h **** struct SongSelectEvent
 169:../../libDaisy//src/hid/MidiEvent.h **** {
 170:../../libDaisy//src/hid/MidiEvent.h ****     uint8_t song; /**< & */
 171:../../libDaisy//src/hid/MidiEvent.h **** };
 172:../../libDaisy//src/hid/MidiEvent.h **** /** Struct containing sound off data.
 173:../../libDaisy//src/hid/MidiEvent.h **** Can be made from MidiEvent
 174:../../libDaisy//src/hid/MidiEvent.h **** */
 175:../../libDaisy//src/hid/MidiEvent.h **** struct AllSoundOffEvent
 176:../../libDaisy//src/hid/MidiEvent.h **** {
 177:../../libDaisy//src/hid/MidiEvent.h ****     int channel; /**< & */
 178:../../libDaisy//src/hid/MidiEvent.h **** };
 179:../../libDaisy//src/hid/MidiEvent.h **** /** Struct containing ResetAllControllersEvent data.
 180:../../libDaisy//src/hid/MidiEvent.h **** Can be made from MidiEvent
 181:../../libDaisy//src/hid/MidiEvent.h **** */
 182:../../libDaisy//src/hid/MidiEvent.h **** struct ResetAllControllersEvent
 183:../../libDaisy//src/hid/MidiEvent.h **** {
 184:../../libDaisy//src/hid/MidiEvent.h ****     int     channel; /**< & */
 185:../../libDaisy//src/hid/MidiEvent.h ****     uint8_t value;   /**< & */
 186:../../libDaisy//src/hid/MidiEvent.h **** };
 187:../../libDaisy//src/hid/MidiEvent.h **** /** Struct containing LocalControlEvent data.
 188:../../libDaisy//src/hid/MidiEvent.h **** Can be made from MidiEvent
 189:../../libDaisy//src/hid/MidiEvent.h **** */
 190:../../libDaisy//src/hid/MidiEvent.h **** struct LocalControlEvent
 191:../../libDaisy//src/hid/MidiEvent.h **** {
 192:../../libDaisy//src/hid/MidiEvent.h ****     int  channel;           /**< & */
 193:../../libDaisy//src/hid/MidiEvent.h ****     bool local_control_off; /**< & */
 194:../../libDaisy//src/hid/MidiEvent.h ****     bool local_control_on;  /**< & */
 195:../../libDaisy//src/hid/MidiEvent.h **** };
 196:../../libDaisy//src/hid/MidiEvent.h **** /** Struct containing AllNotesOffEvent data.
 197:../../libDaisy//src/hid/MidiEvent.h **** Can be made from MidiEvent
 198:../../libDaisy//src/hid/MidiEvent.h **** */
 199:../../libDaisy//src/hid/MidiEvent.h **** struct AllNotesOffEvent
 200:../../libDaisy//src/hid/MidiEvent.h **** {
 201:../../libDaisy//src/hid/MidiEvent.h ****     int channel; /**< & */
 202:../../libDaisy//src/hid/MidiEvent.h **** };
 203:../../libDaisy//src/hid/MidiEvent.h **** /** Struct containing OmniModeOffEvent data. 
 204:../../libDaisy//src/hid/MidiEvent.h ****  * Can be made from MidiEvent
 205:../../libDaisy//src/hid/MidiEvent.h **** */
ARM GAS  C:\Users\danst\AppData\Local\Temp\cczkfCFF.s 			page 67


 206:../../libDaisy//src/hid/MidiEvent.h **** struct OmniModeOffEvent
 207:../../libDaisy//src/hid/MidiEvent.h **** {
 208:../../libDaisy//src/hid/MidiEvent.h ****     int channel; /**< & */
 209:../../libDaisy//src/hid/MidiEvent.h **** };
 210:../../libDaisy//src/hid/MidiEvent.h **** /** Struct containing OmniModeOnEvent data.
 211:../../libDaisy//src/hid/MidiEvent.h **** Can be made from MidiEvent
 212:../../libDaisy//src/hid/MidiEvent.h **** */
 213:../../libDaisy//src/hid/MidiEvent.h **** struct OmniModeOnEvent
 214:../../libDaisy//src/hid/MidiEvent.h **** {
 215:../../libDaisy//src/hid/MidiEvent.h ****     int channel; /**< & */
 216:../../libDaisy//src/hid/MidiEvent.h **** };
 217:../../libDaisy//src/hid/MidiEvent.h **** /** Struct containing MonoModeOnEvent data.
 218:../../libDaisy//src/hid/MidiEvent.h **** Can be made from MidiEvent
 219:../../libDaisy//src/hid/MidiEvent.h **** */
 220:../../libDaisy//src/hid/MidiEvent.h **** struct MonoModeOnEvent
 221:../../libDaisy//src/hid/MidiEvent.h **** {
 222:../../libDaisy//src/hid/MidiEvent.h ****     int     channel;      /**< & */
 223:../../libDaisy//src/hid/MidiEvent.h ****     uint8_t num_channels; /**< & */
 224:../../libDaisy//src/hid/MidiEvent.h **** };
 225:../../libDaisy//src/hid/MidiEvent.h **** /** Struct containing PolyModeOnEvent data.
 226:../../libDaisy//src/hid/MidiEvent.h **** Can be made from MidiEvent
 227:../../libDaisy//src/hid/MidiEvent.h **** */
 228:../../libDaisy//src/hid/MidiEvent.h **** struct PolyModeOnEvent
 229:../../libDaisy//src/hid/MidiEvent.h **** {
 230:../../libDaisy//src/hid/MidiEvent.h ****     int channel; /**< & */
 231:../../libDaisy//src/hid/MidiEvent.h **** };
 232:../../libDaisy//src/hid/MidiEvent.h **** 
 233:../../libDaisy//src/hid/MidiEvent.h **** 
 234:../../libDaisy//src/hid/MidiEvent.h **** /** Simple MidiEvent with message type, channel, and data[2] members.
 235:../../libDaisy//src/hid/MidiEvent.h **** */
 236:../../libDaisy//src/hid/MidiEvent.h **** struct MidiEvent
 237:../../libDaisy//src/hid/MidiEvent.h **** {
 238:../../libDaisy//src/hid/MidiEvent.h ****     // Newer ish.
 239:../../libDaisy//src/hid/MidiEvent.h ****     MidiMessageType    type;                         /**< & */
 240:../../libDaisy//src/hid/MidiEvent.h ****     int                channel;                      /**< & */
 241:../../libDaisy//src/hid/MidiEvent.h ****     uint8_t            data[2];                      /**< & */
 242:../../libDaisy//src/hid/MidiEvent.h ****     uint8_t            sysex_data[SYSEX_BUFFER_LEN]; /**< & */
 243:../../libDaisy//src/hid/MidiEvent.h ****     uint8_t            sysex_message_len;
 244:../../libDaisy//src/hid/MidiEvent.h ****     SystemCommonType   sc_type;
 245:../../libDaisy//src/hid/MidiEvent.h ****     SystemRealTimeType srt_type;
 246:../../libDaisy//src/hid/MidiEvent.h ****     ChannelModeType    cm_type;
 247:../../libDaisy//src/hid/MidiEvent.h **** 
 248:../../libDaisy//src/hid/MidiEvent.h ****     /** Returns the data within the MidiEvent as a NoteOffEvent struct */
 249:../../libDaisy//src/hid/MidiEvent.h ****     NoteOffEvent AsNoteOff()
 250:../../libDaisy//src/hid/MidiEvent.h ****     {
 251:../../libDaisy//src/hid/MidiEvent.h ****         NoteOffEvent m;
 252:../../libDaisy//src/hid/MidiEvent.h ****         m.channel  = channel;
 253:../../libDaisy//src/hid/MidiEvent.h ****         m.note     = data[0];
 254:../../libDaisy//src/hid/MidiEvent.h ****         m.velocity = data[1];
 255:../../libDaisy//src/hid/MidiEvent.h ****         return m;
 256:../../libDaisy//src/hid/MidiEvent.h ****     }
 257:../../libDaisy//src/hid/MidiEvent.h **** 
 258:../../libDaisy//src/hid/MidiEvent.h ****     /** Returns the data within the MidiEvent as a NoteOnEvent struct */
 259:../../libDaisy//src/hid/MidiEvent.h ****     NoteOnEvent AsNoteOn()
 2024              		.loc 15 259 17 view .LVU526
 2025              	.LBB617:
 260:../../libDaisy//src/hid/MidiEvent.h ****     {
ARM GAS  C:\Users\danst\AppData\Local\Temp\cczkfCFF.s 			page 68


 261:../../libDaisy//src/hid/MidiEvent.h ****         NoteOnEvent m;
 2026              		.loc 15 261 9 view .LVU527
 262:../../libDaisy//src/hid/MidiEvent.h ****         m.channel  = channel;
 2027              		.loc 15 262 9 view .LVU528
 263:../../libDaisy//src/hid/MidiEvent.h ****         m.note     = data[0];
 2028              		.loc 15 263 9 view .LVU529
 264:../../libDaisy//src/hid/MidiEvent.h ****         m.velocity = data[1];
 2029              		.loc 15 264 9 view .LVU530
 265:../../libDaisy//src/hid/MidiEvent.h ****         return m;
 2030              		.loc 15 265 9 view .LVU531
 2031              		.loc 15 265 9 is_stmt 0 view .LVU532
 2032              	.LBE617:
 2033              	.LBE616:
  94:2Cats1Bag.cpp **** 				switch( noteMessage.channel ){
 2034              		.loc 12 94 4 is_stmt 1 view .LVU533
  95:2Cats1Bag.cpp **** 					case 0:
 2035              		.loc 12 95 5 view .LVU534
  94:2Cats1Bag.cpp **** 				switch( noteMessage.channel ){
 2036              		.loc 12 94 4 is_stmt 0 view .LVU535
 2037 0094 002B     		cmp	r3, #0
 2038 0096 F4D0     		beq	.L95
  96:2Cats1Bag.cpp **** 						modulatorMidiNote = noteMessage.note;
 2039              		.loc 12 96 6 is_stmt 1 view .LVU536
  97:2Cats1Bag.cpp **** 						break;
 2040              		.loc 12 97 7 view .LVU537
  99:2Cats1Bag.cpp **** 						primaryMidiNote = noteMessage.note;
 2041              		.loc 12 99 6 view .LVU538
 100:2Cats1Bag.cpp **** 				}
 2042              		.loc 12 100 7 view .LVU539
  97:2Cats1Bag.cpp **** 						break;
 2043              		.loc 12 97 25 is_stmt 0 view .LVU540
 2044 0098 0A4A     		ldr	r2, .L111+12
 2045              	.LVL149:
 100:2Cats1Bag.cpp **** 				}
 2046              		.loc 12 100 23 view .LVU541
 2047 009a 0B4B     		ldr	r3, .L111+16
 2048              	.LVL150:
  95:2Cats1Bag.cpp **** 					case 0:
 2049              		.loc 12 95 5 view .LVU542
 2050 009c 0EB9     		cbnz	r6, .L96
  97:2Cats1Bag.cpp **** 						break;
 2051              		.loc 12 97 39 view .LVU543
 2052 009e 1560     		str	r5, [r2]
  98:2Cats1Bag.cpp **** 					default: 
 2053              		.loc 12 98 7 is_stmt 1 view .LVU544
 2054 00a0 EFE7     		b	.L95
 2055              	.L96:
 100:2Cats1Bag.cpp **** 				}
 2056              		.loc 12 100 37 is_stmt 0 view .LVU545
 2057 00a2 1D60     		str	r5, [r3]
 2058 00a4 EDE7     		b	.L95
 2059              	.LVL151:
 2060              	.L109:
 100:2Cats1Bag.cpp **** 				}
 2061              		.loc 12 100 37 view .LVU546
 2062              	.LBE615:
 2063              	.LBE620:
ARM GAS  C:\Users\danst\AppData\Local\Temp\cczkfCFF.s 			page 69


 2064              	.LBE622:
 2065              	.LBB623:
 2066              	.LBB595:
 125:../../libDaisy//src/hid/midi.h ****             transport_.FlushRx();
 2067              		.loc 10 125 21 view .LVU547
 2068 00a6 0549     		ldr	r1, .L111+4
 126:../../libDaisy//src/hid/midi.h ****             StartReceive();
 2069              		.loc 10 126 31 view .LVU548
 2070 00a8 0548     		ldr	r0, .L111+8
 125:../../libDaisy//src/hid/midi.h ****             transport_.FlushRx();
 2071              		.loc 10 125 21 view .LVU549
 2072 00aa 0B71     		strb	r3, [r1, #4]
 126:../../libDaisy//src/hid/midi.h ****             StartReceive();
 2073              		.loc 10 126 31 view .LVU550
 2074 00ac FFF7FEFF 		bl	_ZN5daisy16MidiUsbTransport7FlushRxEv
 2075              	.LVL152:
 2076              	.LBB593:
 2077              	.LBI593:
 107:../../libDaisy//src/hid/midi.h **** 
 2078              		.loc 10 107 10 is_stmt 1 view .LVU551
 2079              	.LBB594:
 107:../../libDaisy//src/hid/midi.h **** 
 2080              		.loc 10 107 45 is_stmt 0 view .LVU552
 2081 00b0 0348     		ldr	r0, .L111+8
 2082 00b2 FFF7FEFF 		bl	_ZN5daisy16MidiUsbTransport7StartRxEv
 2083              	.LVL153:
 107:../../libDaisy//src/hid/midi.h **** 
 2084              		.loc 10 107 49 view .LVU553
 2085 00b6 BEE7     		b	.L92
 2086              	.L112:
 2087              		.align	2
 2088              	.L111:
 2089 00b8 00900000 		.word	midi+36864
 2090 00bc 00000000 		.word	midi
 2091 00c0 A8900000 		.word	midi+37032
 2092 00c4 00000000 		.word	.LANCHOR16
 2093 00c8 00000000 		.word	.LANCHOR13
 2094              	.LBE594:
 2095              	.LBE593:
 2096              	.LBE595:
 2097              	.LBE623:
 2098              		.cfi_endproc
 2099              	.LFE4426:
 2101              		.section	.text.startup.main,"ax",%progbits
 2102              		.align	1
 2103              		.p2align 2,,3
 2104              		.global	main
 2105              		.syntax unified
 2106              		.thumb
 2107              		.thumb_func
 2108              		.fpu fpv5-d16
 2110              	main:
 2111              	.LFB4430:
 156:2Cats1Bag.cpp **** 
 157:2Cats1Bag.cpp **** int main( void ){
 2112              		.loc 12 157 17 is_stmt 1 view -0
 2113              		.cfi_startproc
ARM GAS  C:\Users\danst\AppData\Local\Temp\cczkfCFF.s 			page 70


 2114              		@ args = 0, pretend = 0, frame = 184
 2115              		@ frame_needed = 0, uses_anonymous_args = 0
 158:2Cats1Bag.cpp **** 	hw.Configure();
 2116              		.loc 12 158 2 view .LVU555
 157:2Cats1Bag.cpp **** 	hw.Configure();
 2117              		.loc 12 157 17 is_stmt 0 view .LVU556
 2118 0000 2DE9F041 		push	{r4, r5, r6, r7, r8, lr}
 2119              		.cfi_def_cfa_offset 24
 2120              		.cfi_offset 4, -24
 2121              		.cfi_offset 5, -20
 2122              		.cfi_offset 6, -16
 2123              		.cfi_offset 7, -12
 2124              		.cfi_offset 8, -8
 2125              		.cfi_offset 14, -4
 2126              		.loc 12 158 14 view .LVU557
 2127 0004 8D48     		ldr	r0, .L122
 2128              	.LBB668:
 2129              	.LBB669:
  97:../../libDaisy//src/hid/midi.h **** 
 2130              		.loc 10 97 9 view .LVU558
 2131 0006 0024     		movs	r4, #0
 2132 0008 8D4D     		ldr	r5, .L122+4
 2133 000a 0127     		movs	r7, #1
 2134 000c DFF87082 		ldr	r8, .L122+68
 2135 0010 05F51046 		add	r6, r5, #36864
 2136              	.LBE669:
 2137              	.LBE668:
 157:2Cats1Bag.cpp **** 	hw.Configure();
 2138              		.loc 12 157 17 view .LVU559
 2139 0014 2DED028B 		vpush.64	{d8}
 2140              		.cfi_def_cfa_offset 32
 2141              		.cfi_offset 80, -32
 2142              		.cfi_offset 81, -28
 2143 0018 AEB0     		sub	sp, sp, #184
 2144              		.cfi_def_cfa_offset 216
 159:2Cats1Bag.cpp **** 	hw.Init();
 160:2Cats1Bag.cpp **** 	modulatorRangeSelectButton.Init( hw.GetPin( 26 ), 100 );
 2145              		.loc 12 160 33 view .LVU560
 2146 001a 9FED8A8A 		vldr.32	s16, .L122+8
 158:2Cats1Bag.cpp **** 	hw.Init();
 2147              		.loc 12 158 14 view .LVU561
 2148 001e FFF7FEFF 		bl	_ZN5daisy9DaisySeed9ConfigureEv
 2149              	.LVL154:
 159:2Cats1Bag.cpp **** 	hw.Init();
 2150              		.loc 12 159 2 is_stmt 1 view .LVU562
 159:2Cats1Bag.cpp **** 	hw.Init();
 2151              		.loc 12 159 9 is_stmt 0 view .LVU563
 2152 0022 0021     		movs	r1, #0
 2153 0024 8548     		ldr	r0, .L122
 2154 0026 FFF7FEFF 		bl	_ZN5daisy9DaisySeed4InitEb
 2155              	.LVL155:
 2156              		.loc 12 160 2 is_stmt 1 view .LVU564
 2157              		.loc 12 160 33 is_stmt 0 view .LVU565
 2158 002a 1A20     		movs	r0, #26
 2159 002c FFF7FEFF 		bl	_ZN5daisy9DaisySeed6GetPinEh
 2160              	.LVL156:
 2161 0030 0346     		mov	r3, r0	@ movhi
ARM GAS  C:\Users\danst\AppData\Local\Temp\cczkfCFF.s 			page 71


 2162 0032 B0EE480A 		vmov.f32	s0, s16
 2163 0036 8448     		ldr	r0, .L122+12
 2164 0038 ADF80430 		strh	r3, [sp, #4]	@ movhi
 2165 003c 0199     		ldr	r1, [sp, #4]
 2166 003e FFF7FEFF 		bl	_ZN5daisy6Switch4InitE12dsy_gpio_pinf
 2167              	.LVL157:
 161:2Cats1Bag.cpp **** 	modulatorWaveSelectButton.Init( hw.GetPin( 27 ), 100 );
 2168              		.loc 12 161 2 is_stmt 1 view .LVU566
 2169              		.loc 12 161 32 is_stmt 0 view .LVU567
 2170 0042 1B20     		movs	r0, #27
 2171 0044 FFF7FEFF 		bl	_ZN5daisy9DaisySeed6GetPinEh
 2172              	.LVL158:
 2173 0048 0346     		mov	r3, r0	@ movhi
 2174 004a B0EE480A 		vmov.f32	s0, s16
 2175 004e 7F48     		ldr	r0, .L122+16
 2176 0050 ADF80830 		strh	r3, [sp, #8]	@ movhi
 2177 0054 0299     		ldr	r1, [sp, #8]
 2178 0056 FFF7FEFF 		bl	_ZN5daisy6Switch4InitE12dsy_gpio_pinf
 2179              	.LVL159:
 162:2Cats1Bag.cpp **** 	primaryWaveSelectButton.Init( hw.GetPin( 28 ), 100 );
 2180              		.loc 12 162 2 is_stmt 1 view .LVU568
 2181              		.loc 12 162 30 is_stmt 0 view .LVU569
 2182 005a 1C20     		movs	r0, #28
 2183 005c FFF7FEFF 		bl	_ZN5daisy9DaisySeed6GetPinEh
 2184              	.LVL160:
 2185 0060 0346     		mov	r3, r0	@ movhi
 2186 0062 B0EE480A 		vmov.f32	s0, s16
 2187 0066 7A48     		ldr	r0, .L122+20
 2188 0068 ADF80C30 		strh	r3, [sp, #12]	@ movhi
 2189 006c 0399     		ldr	r1, [sp, #12]
 2190 006e FFF7FEFF 		bl	_ZN5daisy6Switch4InitE12dsy_gpio_pinf
 2191              	.LVL161:
 163:2Cats1Bag.cpp **** 
 164:2Cats1Bag.cpp **** 	MidiUsbHandler::Config midiConfig;
 2192              		.loc 12 164 2 is_stmt 1 view .LVU570
 165:2Cats1Bag.cpp ****     midiConfig.transport_config.periph = MidiUsbTransport::Config::INTERNAL;
 2193              		.loc 12 165 5 view .LVU571
 166:2Cats1Bag.cpp ****     midi.Init( midiConfig );
 2194              		.loc 12 166 5 view .LVU572
 2195              	.LBB679:
 2196              	.LBI668:
  95:../../libDaisy//src/hid/midi.h ****     {
 2197              		.loc 10 95 10 view .LVU573
 2198              	.LBB675:
  99:../../libDaisy//src/hid/midi.h **** 
 2199              		.loc 10 99 24 is_stmt 0 view .LVU574
 2200 0072 2146     		mov	r1, r4
 2201 0074 06F1A800 		add	r0, r6, #168
  97:../../libDaisy//src/hid/midi.h **** 
 2202              		.loc 10 97 9 view .LVU575
 2203 0078 86F8A540 		strb	r4, [r6, #165]
  99:../../libDaisy//src/hid/midi.h **** 
 2204              		.loc 10 99 24 view .LVU576
 2205 007c FFF7FEFF 		bl	_ZN5daisy16MidiUsbTransport4InitENS0_6ConfigE
 2206              	.LVL162:
 2207              	.LBB670:
 2208              	.LBI670:
ARM GAS  C:\Users\danst\AppData\Local\Temp\cczkfCFF.s 			page 72


  24:../../libDaisy//src/util/ringbuffer.h **** 
 2209              		.loc 14 24 17 is_stmt 1 view .LVU577
 2210              	.LBE670:
 102:../../libDaisy//src/hid/midi.h ****         pstate_                = ParserEmpty;
 2211              		.loc 10 102 32 is_stmt 0 view .LVU578
 2212 0080 0A23     		movs	r3, #10
 2213              	.LBE675:
 2214              	.LBE679:
 167:2Cats1Bag.cpp **** 	hw.SetAudioSampleRate( SaiHandle::Config::SampleRate::SAI_48KHZ );
 2215              		.loc 12 167 23 view .LVU579
 2216 0082 0321     		movs	r1, #3
 2217              	.LBB680:
 2218              	.LBB676:
 2219              	.LBB673:
 2220              	.LBB671:
  24:../../libDaisy//src/util/ringbuffer.h **** 
 2221              		.loc 14 24 49 view .LVU580
 2222 0084 C6F89C40 		str	r4, [r6, #156]
 2223              	.LBE671:
 2224              	.LBE673:
 2225              	.LBE676:
 2226              	.LBE680:
 2227              		.loc 12 167 23 view .LVU581
 2228 0088 6C48     		ldr	r0, .L122
 2229              	.LBB681:
 2230              	.LBB677:
 2231              	.LBB674:
 2232              	.LBB672:
  24:../../libDaisy//src/util/ringbuffer.h **** 
 2233              		.loc 14 24 36 view .LVU582
 2234 008a C6F89840 		str	r4, [r6, #152]
 2235              	.LVL163:
  24:../../libDaisy//src/util/ringbuffer.h **** 
 2236              		.loc 14 24 36 view .LVU583
 2237              	.LBE672:
 2238              	.LBE674:
 2239              	.LBE677:
 2240              	.LBE681:
 2241              		.loc 12 167 2 is_stmt 1 view .LVU584
 2242 008e 0226     		movs	r6, #2
 2243              	.LBB682:
 2244              	.LBB678:
 102:../../libDaisy//src/hid/midi.h ****         pstate_                = ParserEmpty;
 2245              		.loc 10 102 32 is_stmt 0 view .LVU585
 2246 0090 2B72     		strb	r3, [r5, #8]
 103:../../libDaisy//src/hid/midi.h ****     }
 2247              		.loc 10 103 32 view .LVU586
 2248 0092 2C71     		strb	r4, [r5, #4]
 2249              	.LBE678:
 2250              	.LBE682:
 2251              		.loc 12 167 23 view .LVU587
 2252 0094 FFF7FEFF 		bl	_ZN5daisy9DaisySeed18SetAudioSampleRateENS_9SaiHandle6Config10SampleRateE
 2253              	.LVL164:
 168:2Cats1Bag.cpp **** 	float sampleRate = hw.AudioSampleRate();
 2254              		.loc 12 168 2 is_stmt 1 view .LVU588
 2255              		.loc 12 168 39 is_stmt 0 view .LVU589
 2256 0098 6848     		ldr	r0, .L122
ARM GAS  C:\Users\danst\AppData\Local\Temp\cczkfCFF.s 			page 73


 2257 009a FFF7FEFF 		bl	_ZN5daisy9DaisySeed15AudioSampleRateEv
 2258              	.LVL165:
 169:2Cats1Bag.cpp **** 
 170:2Cats1Bag.cpp **** 	primary.Init( sampleRate );
 2259              		.loc 12 170 14 view .LVU590
 2260 009e 6D48     		ldr	r0, .L122+24
 168:2Cats1Bag.cpp **** 	float sampleRate = hw.AudioSampleRate();
 2261              		.loc 12 168 39 view .LVU591
 2262 00a0 F0EE408A 		vmov.f32	s17, s0
 2263              	.LVL166:
 2264              		.loc 12 170 2 is_stmt 1 view .LVU592
 2265              		.loc 12 170 14 is_stmt 0 view .LVU593
 2266 00a4 FFF7FEFF 		bl	_ZN7daisysp23VariableShapeOscillator4InitEf
 2267              	.LVL167:
 171:2Cats1Bag.cpp ****     modulator.Init( sampleRate );
 2268              		.loc 12 171 5 is_stmt 1 view .LVU594
 2269              	.LBB683:
 2270              	.LBI683:
  42:../../DaisySP//Source/Synthesis/oscillator.h ****     {
 2271              		.loc 7 42 10 view .LVU595
 2272              	.LBB684:
  44:../../DaisySP//Source/Synthesis/oscillator.h ****         sr_recip_  = 1.0f / sample_rate;
 2273              		.loc 7 44 9 view .LVU596
  45:../../DaisySP//Source/Synthesis/oscillator.h ****         freq_      = 100.0f;
 2274              		.loc 7 45 27 is_stmt 0 view .LVU597
 2275 00a8 B7EE007A 		vmov.f32	s14, #1.0e+0
  44:../../DaisySP//Source/Synthesis/oscillator.h ****         sr_recip_  = 1.0f / sample_rate;
 2276              		.loc 7 44 20 view .LVU598
 2277 00ac 6A4D     		ldr	r5, .L122+28
  50:../../DaisySP//Source/Synthesis/oscillator.h ****         phase_inc_ = CalcPhaseInc(freq_);
 2278              		.loc 7 50 20 view .LVU599
 2279 00ae 0022     		movs	r2, #0
  47:../../DaisySP//Source/Synthesis/oscillator.h ****         pw_        = 0.5f;
 2280              		.loc 7 47 20 view .LVU600
 2281 00b0 4FF07C53 		mov	r3, #1056964608
  49:../../DaisySP//Source/Synthesis/oscillator.h ****         phase_     = 0.0f;
 2282              		.loc 7 49 20 view .LVU601
 2283 00b4 6949     		ldr	r1, .L122+32
  51:../../DaisySP//Source/Synthesis/oscillator.h ****         waveform_  = WAVE_SIN;
 2284              		.loc 7 51 34 view .LVU602
 2285 00b6 2846     		mov	r0, r5
  45:../../DaisySP//Source/Synthesis/oscillator.h ****         freq_      = 100.0f;
 2286              		.loc 7 45 27 view .LVU603
 2287 00b8 C7EE287A 		vdiv.f32	s15, s14, s17
  50:../../DaisySP//Source/Synthesis/oscillator.h ****         phase_inc_ = CalcPhaseInc(freq_);
 2288              		.loc 7 50 20 view .LVU604
 2289 00bc EA61     		str	r2, [r5, #28]	@ float
  47:../../DaisySP//Source/Synthesis/oscillator.h ****         pw_        = 0.5f;
 2290              		.loc 7 47 20 view .LVU605
 2291 00be 6B60     		str	r3, [r5, #4]	@ float
  48:../../DaisySP//Source/Synthesis/oscillator.h ****         pw_rad_    = pw_ * TWOPI_F;
 2292              		.loc 7 48 20 view .LVU606
 2293 00c0 EB60     		str	r3, [r5, #12]	@ float
  49:../../DaisySP//Source/Synthesis/oscillator.h ****         phase_     = 0.0f;
 2294              		.loc 7 49 20 view .LVU607
 2295 00c2 2961     		str	r1, [r5, #16]	@ float
  44:../../DaisySP//Source/Synthesis/oscillator.h ****         sr_recip_  = 1.0f / sample_rate;
ARM GAS  C:\Users\danst\AppData\Local\Temp\cczkfCFF.s 			page 74


 2296              		.loc 7 44 20 view .LVU608
 2297 00c4 C5ED058A 		vstr.32	s17, [r5, #20]
  45:../../DaisySP//Source/Synthesis/oscillator.h ****         freq_      = 100.0f;
 2298              		.loc 7 45 9 is_stmt 1 view .LVU609
  51:../../DaisySP//Source/Synthesis/oscillator.h ****         waveform_  = WAVE_SIN;
 2299              		.loc 7 51 34 is_stmt 0 view .LVU610
 2300 00c8 B0EE480A 		vmov.f32	s0, s16
  46:../../DaisySP//Source/Synthesis/oscillator.h ****         amp_       = 0.5f;
 2301              		.loc 7 46 20 view .LVU611
 2302 00cc 85ED028A 		vstr.32	s16, [r5, #8]
  45:../../DaisySP//Source/Synthesis/oscillator.h ****         freq_      = 100.0f;
 2303              		.loc 7 45 20 view .LVU612
 2304 00d0 C5ED067A 		vstr.32	s15, [r5, #24]
  46:../../DaisySP//Source/Synthesis/oscillator.h ****         amp_       = 0.5f;
 2305              		.loc 7 46 9 is_stmt 1 view .LVU613
  47:../../DaisySP//Source/Synthesis/oscillator.h ****         pw_        = 0.5f;
 2306              		.loc 7 47 9 view .LVU614
  48:../../DaisySP//Source/Synthesis/oscillator.h ****         pw_rad_    = pw_ * TWOPI_F;
 2307              		.loc 7 48 9 view .LVU615
  49:../../DaisySP//Source/Synthesis/oscillator.h ****         phase_     = 0.0f;
 2308              		.loc 7 49 9 view .LVU616
  50:../../DaisySP//Source/Synthesis/oscillator.h ****         phase_inc_ = CalcPhaseInc(freq_);
 2309              		.loc 7 50 9 view .LVU617
  51:../../DaisySP//Source/Synthesis/oscillator.h ****         waveform_  = WAVE_SIN;
 2310              		.loc 7 51 9 view .LVU618
  51:../../DaisySP//Source/Synthesis/oscillator.h ****         waveform_  = WAVE_SIN;
 2311              		.loc 7 51 34 is_stmt 0 view .LVU619
 2312 00d4 FFF7FEFF 		bl	_ZN7daisysp10Oscillator12CalcPhaseIncEf
 2313              	.LVL168:
  54:../../DaisySP//Source/Synthesis/oscillator.h ****     }
 2314              		.loc 7 54 20 view .LVU620
 2315 00d8 40F20113 		movw	r3, #257
 2316              	.LBE684:
 2317              	.LBE683:
 172:2Cats1Bag.cpp **** 
 173:2Cats1Bag.cpp **** 	hw.StartAudio( AudioCallback );
 2318              		.loc 12 173 15 view .LVU621
 2319 00dc 6049     		ldr	r1, .L122+36
 2320 00de 5748     		ldr	r0, .L122
 2321              	.LBB687:
 2322              	.LBB685:
  54:../../DaisySP//Source/Synthesis/oscillator.h ****     }
 2323              		.loc 7 54 20 view .LVU622
 2324 00e0 AB85     		strh	r3, [r5, #44]	@ movhi
  51:../../DaisySP//Source/Synthesis/oscillator.h ****         waveform_  = WAVE_SIN;
 2325              		.loc 7 51 20 view .LVU623
 2326 00e2 85ED080A 		vstr.32	s0, [r5, #32]
  52:../../DaisySP//Source/Synthesis/oscillator.h ****         eoc_       = true;
 2327              		.loc 7 52 9 is_stmt 1 view .LVU624
  53:../../DaisySP//Source/Synthesis/oscillator.h ****         eor_       = true;
 2328              		.loc 7 53 9 view .LVU625
  54:../../DaisySP//Source/Synthesis/oscillator.h ****     }
 2329              		.loc 7 54 9 view .LVU626
 2330              	.LVL169:
  54:../../DaisySP//Source/Synthesis/oscillator.h ****     }
 2331              		.loc 7 54 9 is_stmt 0 view .LVU627
 2332              	.LBE685:
ARM GAS  C:\Users\danst\AppData\Local\Temp\cczkfCFF.s 			page 75


 2333              	.LBE687:
 2334              		.loc 12 173 2 is_stmt 1 view .LVU628
 2335              	.LBB688:
 2336              	.LBB686:
  52:../../DaisySP//Source/Synthesis/oscillator.h ****         eoc_       = true;
 2337              		.loc 7 52 20 is_stmt 0 view .LVU629
 2338 00e6 2C70     		strb	r4, [r5]
 2339              	.LBE686:
 2340              	.LBE688:
 2341              		.loc 12 173 15 view .LVU630
 2342 00e8 FFF7FEFF 		bl	_ZN5daisy9DaisySeed10StartAudioEPFvPKPKfPPfjE
 2343              	.LVL170:
 174:2Cats1Bag.cpp **** 
 175:2Cats1Bag.cpp **** 	AdcChannelConfig adcConfig[ NUM_ADC_CHANNELS ];
 2344              		.loc 12 175 2 is_stmt 1 view .LVU631
 176:2Cats1Bag.cpp **** 
 177:2Cats1Bag.cpp ****     adcConfig[ modulatorCoarsePitchKnob ].InitSingle( daisy::seed::A0 );
 2345              		.loc 12 177 5 view .LVU632
 2346              	.LBB689:
 2347              	.LBI689:
 2348              		.file 16 "../../libDaisy//src/daisy_core.h"
   1:../../libDaisy//src/daisy_core.h **** #pragma once
   2:../../libDaisy//src/daisy_core.h **** #ifndef DSY_CORE_HW_H
   3:../../libDaisy//src/daisy_core.h **** #define DSY_CORE_HW_H /**< & */
   4:../../libDaisy//src/daisy_core.h **** #include <stdint.h>
   5:../../libDaisy//src/daisy_core.h **** #include <stdlib.h>
   6:../../libDaisy//src/daisy_core.h **** 
   7:../../libDaisy//src/daisy_core.h **** #if defined(_MSC_VER)
   8:../../libDaisy//src/daisy_core.h **** #define FORCE_INLINE __forceinline /**< & */
   9:../../libDaisy//src/daisy_core.h **** #elif defined(__clang__)
  10:../../libDaisy//src/daisy_core.h **** #define FORCE_INLINE inline __attribute__((always_inline)) /**< & */
  11:../../libDaisy//src/daisy_core.h **** #pragma clang diagnostic ignored "-Wduplicate-decl-specifier"
  12:../../libDaisy//src/daisy_core.h **** #elif defined(__GNUC__)
  13:../../libDaisy//src/daisy_core.h **** #define FORCE_INLINE inline __attribute__((always_inline)) /**< & */
  14:../../libDaisy//src/daisy_core.h **** #else
  15:../../libDaisy//src/daisy_core.h **** #error unknown compiler
  16:../../libDaisy//src/daisy_core.h **** #endif
  17:../../libDaisy//src/daisy_core.h **** 
  18:../../libDaisy//src/daisy_core.h **** /** @addtogroup utility
  19:../../libDaisy//src/daisy_core.h ****     @{
  20:../../libDaisy//src/daisy_core.h **** */
  21:../../libDaisy//src/daisy_core.h **** 
  22:../../libDaisy//src/daisy_core.h **** /** Macro for area of memory that is configured as cacheless
  23:../../libDaisy//src/daisy_core.h **** This should be used primarily for DMA buffers, and the like.
  24:../../libDaisy//src/daisy_core.h **** */
  25:../../libDaisy//src/daisy_core.h **** #define DMA_BUFFER_MEM_SECTION __attribute__((section(".sram1_bss")))
  26:../../libDaisy//src/daisy_core.h **** /** 
  27:../../libDaisy//src/daisy_core.h **** THE DTCM RAM section is also non-cached. However, is not suitable 
  28:../../libDaisy//src/daisy_core.h **** for DMA transfers. Performance is on par with internal SRAM w/ 
  29:../../libDaisy//src/daisy_core.h **** cache enabled.
  30:../../libDaisy//src/daisy_core.h **** */
  31:../../libDaisy//src/daisy_core.h **** #define DTCM_MEM_SECTION __attribute__((section(".dtcmram_bss")))
  32:../../libDaisy//src/daisy_core.h **** 
  33:../../libDaisy//src/daisy_core.h **** #define FBIPMAX 0.999985f             /**< close to 1.0f-LSB at 16 bit */
  34:../../libDaisy//src/daisy_core.h **** #define FBIPMIN (-FBIPMAX)            /**< - (1 - LSB) */
  35:../../libDaisy//src/daisy_core.h **** #define U82F_SCALE 0.0078740f         /**< 1 / 127 */
  36:../../libDaisy//src/daisy_core.h **** #define F2U8_SCALE 127.0f             /**< 128 - 1 */
ARM GAS  C:\Users\danst\AppData\Local\Temp\cczkfCFF.s 			page 76


  37:../../libDaisy//src/daisy_core.h **** #define S82F_SCALE 0.0078125f         /**< 1 / (2**7) */
  38:../../libDaisy//src/daisy_core.h **** #define F2S8_SCALE 127.0f             /**< (2 ** 7) - 1 */
  39:../../libDaisy//src/daisy_core.h **** #define S162F_SCALE 3.0517578125e-05f /**< 1 / (2** 15) */
  40:../../libDaisy//src/daisy_core.h **** #define F2S16_SCALE 32767.0f          /**< (2 ** 15) - 1 */
  41:../../libDaisy//src/daisy_core.h **** #define F2S24_SCALE 8388608.0f        /**< 2 ** 23 */
  42:../../libDaisy//src/daisy_core.h **** #define S242F_SCALE 1.192092896e-07f  /**< 1 / (2 ** 23) */
  43:../../libDaisy//src/daisy_core.h **** #define S24SIGN 0x800000              /**< 2 ** 23 */
  44:../../libDaisy//src/daisy_core.h **** #define S322F_SCALE 4.6566129e-10f    /**< 1 / (2** 31) */
  45:../../libDaisy//src/daisy_core.h **** #define F2S32_SCALE 2147483647.f      /**< (2 ** 31) - 1 */
  46:../../libDaisy//src/daisy_core.h **** 
  47:../../libDaisy//src/daisy_core.h **** 
  48:../../libDaisy//src/daisy_core.h **** /** shorthand macro for simplifying the reading of the left 
  49:../../libDaisy//src/daisy_core.h ****  *  channel of a non-interleaved output buffer named out */
  50:../../libDaisy//src/daisy_core.h **** #define OUT_L out[0]
  51:../../libDaisy//src/daisy_core.h **** 
  52:../../libDaisy//src/daisy_core.h **** /** shorthand macro for simplifying the reading of the right 
  53:../../libDaisy//src/daisy_core.h ****  *  channel of a non-interleaved output buffer named out */
  54:../../libDaisy//src/daisy_core.h **** #define OUT_R out[1]
  55:../../libDaisy//src/daisy_core.h **** 
  56:../../libDaisy//src/daisy_core.h **** /** shorthand macro for simplifying the reading of the left 
  57:../../libDaisy//src/daisy_core.h ****  *  channel of a non-interleaved input buffer named in */
  58:../../libDaisy//src/daisy_core.h **** #define IN_L in[0]
  59:../../libDaisy//src/daisy_core.h **** 
  60:../../libDaisy//src/daisy_core.h **** /** shorthand macro for simplifying the reading of the right 
  61:../../libDaisy//src/daisy_core.h ****  *  channel of a non-interleaved input buffer named in */
  62:../../libDaisy//src/daisy_core.h **** #define IN_R in[1]
  63:../../libDaisy//src/daisy_core.h **** 
  64:../../libDaisy//src/daisy_core.h **** /** 
  65:../../libDaisy//src/daisy_core.h ****     Computes cube.
  66:../../libDaisy//src/daisy_core.h ****     \param x Number to be cubed
  67:../../libDaisy//src/daisy_core.h ****     \return x ^ 3
  68:../../libDaisy//src/daisy_core.h **** */
  69:../../libDaisy//src/daisy_core.h **** FORCE_INLINE float cube(float x)
  70:../../libDaisy//src/daisy_core.h **** {
  71:../../libDaisy//src/daisy_core.h ****     return (x * x) * x;
  72:../../libDaisy//src/daisy_core.h **** }
  73:../../libDaisy//src/daisy_core.h **** 
  74:../../libDaisy//src/daisy_core.h **** /** 
  75:../../libDaisy//src/daisy_core.h ****     Converts unsigned 8-bit to float
  76:../../libDaisy//src/daisy_core.h ****     \param x Number to be scaled.
  77:../../libDaisy//src/daisy_core.h ****     \return Scaled number.
  78:../../libDaisy//src/daisy_core.h **** */
  79:../../libDaisy//src/daisy_core.h **** FORCE_INLINE float u82f(uint8_t x)
  80:../../libDaisy//src/daisy_core.h **** {
  81:../../libDaisy//src/daisy_core.h ****     return ((float)x - 127.f) * U82F_SCALE;
  82:../../libDaisy//src/daisy_core.h **** }
  83:../../libDaisy//src/daisy_core.h **** 
  84:../../libDaisy//src/daisy_core.h **** /**
  85:../../libDaisy//src/daisy_core.h ****     Converts float to unsigned 8-bit
  86:../../libDaisy//src/daisy_core.h **** */
  87:../../libDaisy//src/daisy_core.h **** FORCE_INLINE uint8_t f2u8(float x)
  88:../../libDaisy//src/daisy_core.h **** {
  89:../../libDaisy//src/daisy_core.h ****     x = x <= FBIPMIN ? FBIPMIN : x;
  90:../../libDaisy//src/daisy_core.h ****     x = x >= FBIPMAX ? FBIPMAX : x;
  91:../../libDaisy//src/daisy_core.h ****     return (uint8_t)((x * F2U8_SCALE) + F2U8_SCALE);
  92:../../libDaisy//src/daisy_core.h **** }
  93:../../libDaisy//src/daisy_core.h **** 
ARM GAS  C:\Users\danst\AppData\Local\Temp\cczkfCFF.s 			page 77


  94:../../libDaisy//src/daisy_core.h **** 
  95:../../libDaisy//src/daisy_core.h **** /** 
  96:../../libDaisy//src/daisy_core.h ****     Converts Signed 8-bit to float
  97:../../libDaisy//src/daisy_core.h ****     \param x Number to be scaled.
  98:../../libDaisy//src/daisy_core.h ****     \return Scaled number.
  99:../../libDaisy//src/daisy_core.h **** */
 100:../../libDaisy//src/daisy_core.h **** FORCE_INLINE float s82f(int8_t x)
 101:../../libDaisy//src/daisy_core.h **** {
 102:../../libDaisy//src/daisy_core.h ****     return (float)x * S82F_SCALE;
 103:../../libDaisy//src/daisy_core.h **** }
 104:../../libDaisy//src/daisy_core.h **** 
 105:../../libDaisy//src/daisy_core.h **** /**
 106:../../libDaisy//src/daisy_core.h ****     Converts float to Signed 8-bit
 107:../../libDaisy//src/daisy_core.h **** */
 108:../../libDaisy//src/daisy_core.h **** FORCE_INLINE int8_t f2s8(float x)
 109:../../libDaisy//src/daisy_core.h **** {
 110:../../libDaisy//src/daisy_core.h ****     x = x <= FBIPMIN ? FBIPMIN : x;
 111:../../libDaisy//src/daisy_core.h ****     x = x >= FBIPMAX ? FBIPMAX : x;
 112:../../libDaisy//src/daisy_core.h ****     return (int32_t)(x * F2S8_SCALE);
 113:../../libDaisy//src/daisy_core.h **** }
 114:../../libDaisy//src/daisy_core.h **** 
 115:../../libDaisy//src/daisy_core.h **** /** 
 116:../../libDaisy//src/daisy_core.h ****     Converts Signed 16-bit to float
 117:../../libDaisy//src/daisy_core.h ****     \param x Number to be scaled.
 118:../../libDaisy//src/daisy_core.h ****     \return Scaled number.
 119:../../libDaisy//src/daisy_core.h **** */
 120:../../libDaisy//src/daisy_core.h **** FORCE_INLINE float s162f(int16_t x)
 121:../../libDaisy//src/daisy_core.h **** {
 122:../../libDaisy//src/daisy_core.h ****     return (float)x * S162F_SCALE;
 123:../../libDaisy//src/daisy_core.h **** }
 124:../../libDaisy//src/daisy_core.h **** 
 125:../../libDaisy//src/daisy_core.h **** /**
 126:../../libDaisy//src/daisy_core.h ****     Converts float to Signed 16-bit
 127:../../libDaisy//src/daisy_core.h **** */
 128:../../libDaisy//src/daisy_core.h **** FORCE_INLINE int16_t f2s16(float x)
 129:../../libDaisy//src/daisy_core.h **** {
 130:../../libDaisy//src/daisy_core.h ****     x = x <= FBIPMIN ? FBIPMIN : x;
 131:../../libDaisy//src/daisy_core.h ****     x = x >= FBIPMAX ? FBIPMAX : x;
 132:../../libDaisy//src/daisy_core.h ****     return (int32_t)(x * F2S16_SCALE);
 133:../../libDaisy//src/daisy_core.h **** }
 134:../../libDaisy//src/daisy_core.h **** 
 135:../../libDaisy//src/daisy_core.h **** /**
 136:../../libDaisy//src/daisy_core.h ****     Converts Signed 24-bit to float
 137:../../libDaisy//src/daisy_core.h ****  */
 138:../../libDaisy//src/daisy_core.h **** FORCE_INLINE float s242f(int32_t x)
 139:../../libDaisy//src/daisy_core.h **** {
 140:../../libDaisy//src/daisy_core.h ****     x = (x ^ S24SIGN) - S24SIGN; //sign extend aka ((x<<8)>>8)
 141:../../libDaisy//src/daisy_core.h ****     return (float)x * S242F_SCALE;
 142:../../libDaisy//src/daisy_core.h **** }
 143:../../libDaisy//src/daisy_core.h **** /**
 144:../../libDaisy//src/daisy_core.h ****     Converts float to Signed 24-bit
 145:../../libDaisy//src/daisy_core.h ****  */
 146:../../libDaisy//src/daisy_core.h **** FORCE_INLINE int32_t f2s24(float x)
 147:../../libDaisy//src/daisy_core.h **** {
 148:../../libDaisy//src/daisy_core.h ****     x = x <= FBIPMIN ? FBIPMIN : x;
 149:../../libDaisy//src/daisy_core.h ****     x = x >= FBIPMAX ? FBIPMAX : x;
 150:../../libDaisy//src/daisy_core.h ****     return (int32_t)(x * F2S24_SCALE);
ARM GAS  C:\Users\danst\AppData\Local\Temp\cczkfCFF.s 			page 78


 151:../../libDaisy//src/daisy_core.h **** }
 152:../../libDaisy//src/daisy_core.h **** 
 153:../../libDaisy//src/daisy_core.h **** /**
 154:../../libDaisy//src/daisy_core.h ****     Converts Signed 32-bit to float
 155:../../libDaisy//src/daisy_core.h ****  */
 156:../../libDaisy//src/daisy_core.h **** FORCE_INLINE float s322f(int32_t x)
 157:../../libDaisy//src/daisy_core.h **** {
 158:../../libDaisy//src/daisy_core.h ****     return (float)x * S322F_SCALE;
 159:../../libDaisy//src/daisy_core.h **** }
 160:../../libDaisy//src/daisy_core.h **** /**
 161:../../libDaisy//src/daisy_core.h ****     Converts float to Signed 24-bit
 162:../../libDaisy//src/daisy_core.h ****  */
 163:../../libDaisy//src/daisy_core.h **** FORCE_INLINE int32_t f2s32(float x)
 164:../../libDaisy//src/daisy_core.h **** {
 165:../../libDaisy//src/daisy_core.h ****     x = x <= FBIPMIN ? FBIPMIN : x;
 166:../../libDaisy//src/daisy_core.h ****     x = x >= FBIPMAX ? FBIPMAX : x;
 167:../../libDaisy//src/daisy_core.h ****     return (int32_t)(x * F2S32_SCALE);
 168:../../libDaisy//src/daisy_core.h **** }
 169:../../libDaisy//src/daisy_core.h **** 
 170:../../libDaisy//src/daisy_core.h **** 
 171:../../libDaisy//src/daisy_core.h **** /** Enums and a simple struct for defining a hardware pin on the MCU
 172:../../libDaisy//src/daisy_core.h ****  *  These correlate with the stm32 datasheet, and are used to configure
 173:../../libDaisy//src/daisy_core.h ****  *  the hardware.
 174:../../libDaisy//src/daisy_core.h ****  * 
 175:../../libDaisy//src/daisy_core.h ****  *  This along with the dsy_gpio_pin class should no longer be used.
 176:../../libDaisy//src/daisy_core.h ****  *  They are available for backwards compatability. 
 177:../../libDaisy//src/daisy_core.h ****  * 
 178:../../libDaisy//src/daisy_core.h ****  *  Please use GPIOPort enum and the Pin struct instead.
 179:../../libDaisy//src/daisy_core.h ****  */
 180:../../libDaisy//src/daisy_core.h **** typedef enum
 181:../../libDaisy//src/daisy_core.h **** {
 182:../../libDaisy//src/daisy_core.h ****     DSY_GPIOA, /**< & */
 183:../../libDaisy//src/daisy_core.h ****     DSY_GPIOB, /**< & */
 184:../../libDaisy//src/daisy_core.h ****     DSY_GPIOC, /**< & */
 185:../../libDaisy//src/daisy_core.h ****     DSY_GPIOD, /**< & */
 186:../../libDaisy//src/daisy_core.h ****     DSY_GPIOE, /**< & */
 187:../../libDaisy//src/daisy_core.h ****     DSY_GPIOF, /**< & */
 188:../../libDaisy//src/daisy_core.h ****     DSY_GPIOG, /**< & */
 189:../../libDaisy//src/daisy_core.h ****     DSY_GPIOH, /**< & */
 190:../../libDaisy//src/daisy_core.h ****     DSY_GPIOI, /**< & */
 191:../../libDaisy//src/daisy_core.h ****     DSY_GPIOJ, /**< & */
 192:../../libDaisy//src/daisy_core.h ****     DSY_GPIOK, /**< & */
 193:../../libDaisy//src/daisy_core.h ****     DSY_GPIOX, /** This is a non-existant port for unsupported bits of hardware. */
 194:../../libDaisy//src/daisy_core.h ****     DSY_GPIO_LAST, /** Final enum member */
 195:../../libDaisy//src/daisy_core.h **** } dsy_gpio_port;
 196:../../libDaisy//src/daisy_core.h **** 
 197:../../libDaisy//src/daisy_core.h **** /** Hardware define pins 
 198:../../libDaisy//src/daisy_core.h ****  *  
 199:../../libDaisy//src/daisy_core.h ****  *  The dsy_gpio_pin struct should no longer be used, and is only available for
 200:../../libDaisy//src/daisy_core.h ****  *  backwards compatability.
 201:../../libDaisy//src/daisy_core.h ****  * 
 202:../../libDaisy//src/daisy_core.h ****  *  Please use Pin struct instead.
 203:../../libDaisy//src/daisy_core.h ****  */
 204:../../libDaisy//src/daisy_core.h **** typedef struct
 205:../../libDaisy//src/daisy_core.h **** {
 206:../../libDaisy//src/daisy_core.h ****     dsy_gpio_port port; /**< & */
 207:../../libDaisy//src/daisy_core.h ****     uint8_t       pin;  /**< number 0-15 */
ARM GAS  C:\Users\danst\AppData\Local\Temp\cczkfCFF.s 			page 79


 208:../../libDaisy//src/daisy_core.h **** } dsy_gpio_pin;
 209:../../libDaisy//src/daisy_core.h **** 
 210:../../libDaisy//src/daisy_core.h **** /** Helper for creating pins from port/pin combos easily
 211:../../libDaisy//src/daisy_core.h ****  * 
 212:../../libDaisy//src/daisy_core.h ****  *  The dsy_gpio_pin struct should no longer be used, and is only available for
 213:../../libDaisy//src/daisy_core.h ****  *  backwards compatability.
 214:../../libDaisy//src/daisy_core.h ****  * 
 215:../../libDaisy//src/daisy_core.h ****  *  Please use Pin struct instead.
 216:../../libDaisy//src/daisy_core.h **** */
 217:../../libDaisy//src/daisy_core.h **** FORCE_INLINE dsy_gpio_pin dsy_pin(dsy_gpio_port port, uint8_t pin)
 218:../../libDaisy//src/daisy_core.h **** {
 219:../../libDaisy//src/daisy_core.h ****     dsy_gpio_pin p;
 220:../../libDaisy//src/daisy_core.h ****     p.port = port;
 221:../../libDaisy//src/daisy_core.h ****     p.pin  = pin;
 222:../../libDaisy//src/daisy_core.h ****     return p;
 223:../../libDaisy//src/daisy_core.h **** }
 224:../../libDaisy//src/daisy_core.h **** 
 225:../../libDaisy//src/daisy_core.h **** /** Helper for testing sameness of two dsy_gpio_pins
 226:../../libDaisy//src/daisy_core.h ****  *  \return    1 if same, 0 if different
 227:../../libDaisy//src/daisy_core.h ****  * 
 228:../../libDaisy//src/daisy_core.h ****  *  The dsy_gpio_pin struct should no longer be used, and is only available for
 229:../../libDaisy//src/daisy_core.h ****  *  backwards compatability.
 230:../../libDaisy//src/daisy_core.h ****  * 
 231:../../libDaisy//src/daisy_core.h ****  *  Please use Pin struct instead.
 232:../../libDaisy//src/daisy_core.h ****  */
 233:../../libDaisy//src/daisy_core.h **** FORCE_INLINE uint8_t dsy_pin_cmp(dsy_gpio_pin *a, dsy_gpio_pin *b)
 234:../../libDaisy//src/daisy_core.h **** {
 235:../../libDaisy//src/daisy_core.h ****     return ((a->port == b->port) && (a->pin == b->pin));
 236:../../libDaisy//src/daisy_core.h **** }
 237:../../libDaisy//src/daisy_core.h **** 
 238:../../libDaisy//src/daisy_core.h **** #ifdef __cplusplus
 239:../../libDaisy//src/daisy_core.h **** 
 240:../../libDaisy//src/daisy_core.h **** namespace daisy
 241:../../libDaisy//src/daisy_core.h **** {
 242:../../libDaisy//src/daisy_core.h **** /** @brief GPIO Port names */
 243:../../libDaisy//src/daisy_core.h **** enum GPIOPort
 244:../../libDaisy//src/daisy_core.h **** {
 245:../../libDaisy//src/daisy_core.h ****     PORTA, /**< Port A */
 246:../../libDaisy//src/daisy_core.h ****     PORTB, /**< Port B */
 247:../../libDaisy//src/daisy_core.h ****     PORTC, /**< Port C */
 248:../../libDaisy//src/daisy_core.h ****     PORTD, /**< Port D */
 249:../../libDaisy//src/daisy_core.h ****     PORTE, /**< Port E */
 250:../../libDaisy//src/daisy_core.h ****     PORTF, /**< Port F */
 251:../../libDaisy//src/daisy_core.h ****     PORTG, /**< Port G */
 252:../../libDaisy//src/daisy_core.h ****     PORTH, /**< Port H */
 253:../../libDaisy//src/daisy_core.h ****     PORTI, /**< Port I */
 254:../../libDaisy//src/daisy_core.h ****     PORTJ, /**< Port J */
 255:../../libDaisy//src/daisy_core.h ****     PORTK, /**< Port K */
 256:../../libDaisy//src/daisy_core.h ****     PORTX, /**< Used as a dummy port to signal an invalid pin. */
 257:../../libDaisy//src/daisy_core.h **** };
 258:../../libDaisy//src/daisy_core.h **** 
 259:../../libDaisy//src/daisy_core.h **** /** @brief representation of hardware port/pin combination */
 260:../../libDaisy//src/daisy_core.h **** struct Pin
 261:../../libDaisy//src/daisy_core.h **** {
 262:../../libDaisy//src/daisy_core.h ****     GPIOPort port;
 263:../../libDaisy//src/daisy_core.h ****     uint8_t  pin;
 264:../../libDaisy//src/daisy_core.h **** 
ARM GAS  C:\Users\danst\AppData\Local\Temp\cczkfCFF.s 			page 80


 265:../../libDaisy//src/daisy_core.h ****     /** @brief Constructor creates a valid pin. 
 266:../../libDaisy//src/daisy_core.h ****      *  @param pt GPIOPort between PA, and PK corresponding to STM32 Port.
 267:../../libDaisy//src/daisy_core.h ****      *  @param pn pin number in range of 0-15
 268:../../libDaisy//src/daisy_core.h ****     */
 269:../../libDaisy//src/daisy_core.h ****     constexpr Pin(const GPIOPort pt, const uint8_t pn) : port(pt), pin(pn) {}
 270:../../libDaisy//src/daisy_core.h **** 
 271:../../libDaisy//src/daisy_core.h ****     /** @brief Basic Constructor creates an invalid Pin object */
 272:../../libDaisy//src/daisy_core.h ****     constexpr Pin() : port(PORTX), pin(255) {}
 273:../../libDaisy//src/daisy_core.h **** 
 274:../../libDaisy//src/daisy_core.h ****     /** @brief checks validity of a Pin 
 275:../../libDaisy//src/daisy_core.h ****      *  @retval returns true if the port is a valid hardware pin, otherwise false.
 276:../../libDaisy//src/daisy_core.h ****     */
 277:../../libDaisy//src/daisy_core.h ****     constexpr bool IsValid() const { return port != PORTX && pin < 16; }
 278:../../libDaisy//src/daisy_core.h **** 
 279:../../libDaisy//src/daisy_core.h ****     /** @brief comparison operator for checking equality between Pin objects */
 280:../../libDaisy//src/daisy_core.h ****     constexpr bool operator==(const Pin &rhs) const
 281:../../libDaisy//src/daisy_core.h ****     {
 282:../../libDaisy//src/daisy_core.h ****         return (rhs.port == port) && (rhs.pin == pin);
 283:../../libDaisy//src/daisy_core.h ****     }
 284:../../libDaisy//src/daisy_core.h **** 
 285:../../libDaisy//src/daisy_core.h ****     /** @brief comparison operator for checking inequality between Pin objects */
 286:../../libDaisy//src/daisy_core.h ****     constexpr bool operator!=(const Pin &rhs) const { return !operator==(rhs); }
 287:../../libDaisy//src/daisy_core.h **** 
 288:../../libDaisy//src/daisy_core.h ****     /** @brief conversion operation for converting to the old-style representation
 289:../../libDaisy//src/daisy_core.h ****      *         of a pin.
 290:../../libDaisy//src/daisy_core.h ****      * 
 291:../../libDaisy//src/daisy_core.h ****      *  This allows the new Pin type to be used in place of the older, dsy_gpio_pin
 292:../../libDaisy//src/daisy_core.h ****      *  type.
 293:../../libDaisy//src/daisy_core.h ****      */
 294:../../libDaisy//src/daisy_core.h ****     operator dsy_gpio_pin() const
 2349              		.loc 16 294 5 view .LVU633
 2350              	.LBE689:
 295:../../libDaisy//src/daisy_core.h ****     {
 296:../../libDaisy//src/daisy_core.h ****         return dsy_pin(static_cast<dsy_gpio_port>(port), pin);
 2351              		.loc 16 296 9 view .LVU634
 2352              	.LBB691:
 2353              	.LBB690:
 2354              	.LBI690:
 217:../../libDaisy//src/daisy_core.h **** {
 2355              		.loc 16 217 27 view .LVU635
 2356              	.LBE690:
 2357              	.LBE691:
 219:../../libDaisy//src/daisy_core.h ****     p.port = port;
 2358              		.loc 16 219 5 view .LVU636
 220:../../libDaisy//src/daisy_core.h ****     p.pin  = pin;
 2359              		.loc 16 220 5 view .LVU637
 221:../../libDaisy//src/daisy_core.h ****     return p;
 2360              		.loc 16 221 5 view .LVU638
 222:../../libDaisy//src/daisy_core.h **** }
 2361              		.loc 16 222 5 view .LVU639
 222:../../libDaisy//src/daisy_core.h **** }
 2362              		.loc 16 222 5 is_stmt 0 view .LVU640
 2363 00ec 8DF81060 		strb	r6, [sp, #16]
 2364              		.loc 12 177 53 view .LVU641
 2365 00f0 0DF16300 		add	r0, sp, #99
 2366 00f4 8DF81140 		strb	r4, [sp, #17]
 2367              	.LVL171:
ARM GAS  C:\Users\danst\AppData\Local\Temp\cczkfCFF.s 			page 81


 2368              		.loc 12 177 53 view .LVU642
 2369 00f8 0499     		ldr	r1, [sp, #16]
 2370 00fa FFF7FEFF 		bl	_ZN5daisy16AdcChannelConfig10InitSingleE12dsy_gpio_pin
 2371              	.LVL172:
 178:2Cats1Bag.cpp ****     adcConfig[ modulatorFinePitchKnob ].InitSingle( daisy::seed::A1 );
 2372              		.loc 12 178 5 is_stmt 1 view .LVU643
 2373              	.LBB692:
 2374              	.LBI692:
 294:../../libDaisy//src/daisy_core.h ****     {
 2375              		.loc 16 294 5 view .LVU644
 2376              	.LBE692:
 2377              		.loc 16 296 9 view .LVU645
 2378              	.LBB694:
 2379              	.LBB693:
 2380              	.LBI693:
 217:../../libDaisy//src/daisy_core.h **** {
 2381              		.loc 16 217 27 view .LVU646
 2382              	.LBE693:
 2383              	.LBE694:
 219:../../libDaisy//src/daisy_core.h ****     p.port = port;
 2384              		.loc 16 219 5 view .LVU647
 220:../../libDaisy//src/daisy_core.h ****     p.pin  = pin;
 2385              		.loc 16 220 5 view .LVU648
 221:../../libDaisy//src/daisy_core.h ****     return p;
 2386              		.loc 16 221 5 view .LVU649
 222:../../libDaisy//src/daisy_core.h **** }
 2387              		.loc 16 222 5 view .LVU650
 222:../../libDaisy//src/daisy_core.h **** }
 2388              		.loc 16 222 5 is_stmt 0 view .LVU651
 2389 00fe 0323     		movs	r3, #3
 2390 0100 8DF81440 		strb	r4, [sp, #20]
 2391              		.loc 12 178 51 view .LVU652
 2392 0104 1DA8     		add	r0, sp, #116
 2393 0106 8DF81530 		strb	r3, [sp, #21]
 2394              	.LVL173:
 2395              		.loc 12 178 51 view .LVU653
 2396 010a 0599     		ldr	r1, [sp, #20]
 2397 010c FFF7FEFF 		bl	_ZN5daisy16AdcChannelConfig10InitSingleE12dsy_gpio_pin
 2398              	.LVL174:
 179:2Cats1Bag.cpp ****     adcConfig[ modulatorFrequencyModKnob ].InitSingle( daisy::seed::A2 );
 2399              		.loc 12 179 5 is_stmt 1 view .LVU654
 2400              	.LBB695:
 2401              	.LBI695:
 294:../../libDaisy//src/daisy_core.h ****     {
 2402              		.loc 16 294 5 view .LVU655
 2403              	.LBE695:
 2404              		.loc 16 296 9 view .LVU656
 2405              	.LBB697:
 2406              	.LBB696:
 2407              	.LBI696:
 217:../../libDaisy//src/daisy_core.h **** {
 2408              		.loc 16 217 27 view .LVU657
 2409              	.LBE696:
 2410              	.LBE697:
 219:../../libDaisy//src/daisy_core.h ****     p.port = port;
 2411              		.loc 16 219 5 view .LVU658
 220:../../libDaisy//src/daisy_core.h ****     p.pin  = pin;
ARM GAS  C:\Users\danst\AppData\Local\Temp\cczkfCFF.s 			page 82


 2412              		.loc 16 220 5 view .LVU659
 221:../../libDaisy//src/daisy_core.h ****     return p;
 2413              		.loc 16 221 5 view .LVU660
 222:../../libDaisy//src/daisy_core.h **** }
 2414              		.loc 16 222 5 view .LVU661
 222:../../libDaisy//src/daisy_core.h **** }
 2415              		.loc 16 222 5 is_stmt 0 view .LVU662
 2416 0110 8DF81870 		strb	r7, [sp, #24]
 2417 0114 8DF81970 		strb	r7, [sp, #25]
 2418              	.LVL175:
 2419              		.loc 12 179 54 view .LVU663
 2420 0118 0DF18500 		add	r0, sp, #133
 2421 011c 0699     		ldr	r1, [sp, #24]
 2422 011e FFF7FEFF 		bl	_ZN5daisy16AdcChannelConfig10InitSingleE12dsy_gpio_pin
 2423              	.LVL176:
 180:2Cats1Bag.cpp **** 
 181:2Cats1Bag.cpp ****     adcConfig[ primaryCoarsePitchKnob ].InitSingle( daisy::seed::A3 );
 2424              		.loc 12 181 5 is_stmt 1 view .LVU664
 2425              	.LBB698:
 2426              	.LBI698:
 294:../../libDaisy//src/daisy_core.h ****     {
 2427              		.loc 16 294 5 view .LVU665
 2428              	.LBE698:
 2429              		.loc 16 296 9 view .LVU666
 2430              	.LBB700:
 2431              	.LBB699:
 2432              	.LBI699:
 217:../../libDaisy//src/daisy_core.h **** {
 2433              		.loc 16 217 27 view .LVU667
 2434              	.LBE699:
 2435              	.LBE700:
 219:../../libDaisy//src/daisy_core.h ****     p.port = port;
 2436              		.loc 16 219 5 view .LVU668
 220:../../libDaisy//src/daisy_core.h ****     p.pin  = pin;
 2437              		.loc 16 220 5 view .LVU669
 221:../../libDaisy//src/daisy_core.h ****     return p;
 2438              		.loc 16 221 5 view .LVU670
 222:../../libDaisy//src/daisy_core.h **** }
 2439              		.loc 16 222 5 view .LVU671
 222:../../libDaisy//src/daisy_core.h **** }
 2440              		.loc 16 222 5 is_stmt 0 view .LVU672
 2441 0122 0723     		movs	r3, #7
 2442 0124 8DF81C40 		strb	r4, [sp, #28]
 2443              		.loc 12 181 51 view .LVU673
 2444 0128 0CA8     		add	r0, sp, #48
 2445 012a 8DF81D30 		strb	r3, [sp, #29]
 2446              	.LVL177:
 2447              		.loc 12 181 51 view .LVU674
 2448 012e 0799     		ldr	r1, [sp, #28]
 2449 0130 FFF7FEFF 		bl	_ZN5daisy16AdcChannelConfig10InitSingleE12dsy_gpio_pin
 2450              	.LVL178:
 182:2Cats1Bag.cpp ****     adcConfig[ primaryFinePitchKnob ].InitSingle( daisy::seed::A4 );
 2451              		.loc 12 182 5 is_stmt 1 view .LVU675
 2452              	.LBB701:
 2453              	.LBI701:
 294:../../libDaisy//src/daisy_core.h ****     {
 2454              		.loc 16 294 5 view .LVU676
ARM GAS  C:\Users\danst\AppData\Local\Temp\cczkfCFF.s 			page 83


 2455              	.LBE701:
 2456              		.loc 16 296 9 view .LVU677
 2457              	.LBB703:
 2458              	.LBB702:
 2459              	.LBI702:
 217:../../libDaisy//src/daisy_core.h **** {
 2460              		.loc 16 217 27 view .LVU678
 2461              	.LBE702:
 2462              	.LBE703:
 219:../../libDaisy//src/daisy_core.h ****     p.port = port;
 2463              		.loc 16 219 5 view .LVU679
 220:../../libDaisy//src/daisy_core.h ****     p.pin  = pin;
 2464              		.loc 16 220 5 view .LVU680
 221:../../libDaisy//src/daisy_core.h ****     return p;
 2465              		.loc 16 221 5 view .LVU681
 222:../../libDaisy//src/daisy_core.h **** }
 2466              		.loc 16 222 5 view .LVU682
 222:../../libDaisy//src/daisy_core.h **** }
 2467              		.loc 16 222 5 is_stmt 0 view .LVU683
 2468 0134 0623     		movs	r3, #6
 2469 0136 8DF82040 		strb	r4, [sp, #32]
 2470              		.loc 12 182 49 view .LVU684
 2471 013a 0DF14100 		add	r0, sp, #65
 2472 013e 8DF82130 		strb	r3, [sp, #33]
 2473              	.LVL179:
 2474              		.loc 12 182 49 view .LVU685
 2475 0142 0899     		ldr	r1, [sp, #32]
 2476 0144 FFF7FEFF 		bl	_ZN5daisy16AdcChannelConfig10InitSingleE12dsy_gpio_pin
 2477              	.LVL180:
 183:2Cats1Bag.cpp ****     adcConfig[ primaryWaveshapeKnob ].InitSingle( daisy::seed::A5 );
 2478              		.loc 12 183 5 is_stmt 1 view .LVU686
 2479              	.LBB704:
 2480              	.LBI704:
 294:../../libDaisy//src/daisy_core.h ****     {
 2481              		.loc 16 294 5 view .LVU687
 2482              	.LBE704:
 2483              		.loc 16 296 9 view .LVU688
 2484              	.LBB706:
 2485              	.LBB705:
 2486              	.LBI705:
 217:../../libDaisy//src/daisy_core.h **** {
 2487              		.loc 16 217 27 view .LVU689
 2488              	.LBE705:
 2489              	.LBE706:
 219:../../libDaisy//src/daisy_core.h ****     p.port = port;
 2490              		.loc 16 219 5 view .LVU690
 220:../../libDaisy//src/daisy_core.h ****     p.pin  = pin;
 2491              		.loc 16 220 5 view .LVU691
 221:../../libDaisy//src/daisy_core.h ****     return p;
 2492              		.loc 16 221 5 view .LVU692
 222:../../libDaisy//src/daisy_core.h **** }
 2493              		.loc 16 222 5 view .LVU693
 222:../../libDaisy//src/daisy_core.h **** }
 2494              		.loc 16 222 5 is_stmt 0 view .LVU694
 2495 0148 8DF82460 		strb	r6, [sp, #36]
 2496 014c 8DF82570 		strb	r7, [sp, #37]
 2497              	.LVL181:
ARM GAS  C:\Users\danst\AppData\Local\Temp\cczkfCFF.s 			page 84


 222:../../libDaisy//src/daisy_core.h **** }
 2498              		.loc 16 222 5 view .LVU695
 2499 0150 0427     		movs	r7, #4
 2500              		.loc 12 183 49 view .LVU696
 2501 0152 0999     		ldr	r1, [sp, #36]
 2502 0154 0DF15200 		add	r0, sp, #82
 2503 0158 FFF7FEFF 		bl	_ZN5daisy16AdcChannelConfig10InitSingleE12dsy_gpio_pin
 2504              	.LVL182:
 184:2Cats1Bag.cpp **** 	
 185:2Cats1Bag.cpp ****     adcConfig[ folderTimbreKnob ].InitSingle( daisy::seed::A6 );
 2505              		.loc 12 185 5 is_stmt 1 view .LVU697
 2506              	.LBB707:
 2507              	.LBI707:
 294:../../libDaisy//src/daisy_core.h ****     {
 2508              		.loc 16 294 5 view .LVU698
 2509              	.LBE707:
 2510              		.loc 16 296 9 view .LVU699
 2511              	.LBB709:
 2512              	.LBB708:
 2513              	.LBI708:
 217:../../libDaisy//src/daisy_core.h **** {
 2514              		.loc 16 217 27 view .LVU700
 2515              	.LBE708:
 2516              	.LBE709:
 219:../../libDaisy//src/daisy_core.h ****     p.port = port;
 2517              		.loc 16 219 5 view .LVU701
 220:../../libDaisy//src/daisy_core.h ****     p.pin  = pin;
 2518              		.loc 16 220 5 view .LVU702
 221:../../libDaisy//src/daisy_core.h ****     return p;
 2519              		.loc 16 221 5 view .LVU703
 222:../../libDaisy//src/daisy_core.h **** }
 2520              		.loc 16 222 5 view .LVU704
 222:../../libDaisy//src/daisy_core.h **** }
 2521              		.loc 16 222 5 is_stmt 0 view .LVU705
 2522 015c 8DF82860 		strb	r6, [sp, #40]
 2523 0160 8DF82970 		strb	r7, [sp, #41]
 2524              	.LVL183:
 2525              		.loc 12 185 45 view .LVU706
 2526 0164 0DF19600 		add	r0, sp, #150
 2527 0168 0A99     		ldr	r1, [sp, #40]
 2528 016a FFF7FEFF 		bl	_ZN5daisy16AdcChannelConfig10InitSingleE12dsy_gpio_pin
 2529              	.LVL184:
 186:2Cats1Bag.cpp ****     adcConfig[ folderSymmetryKnob ].InitSingle( daisy::seed::A7 );
 2530              		.loc 12 186 5 is_stmt 1 view .LVU707
 2531              	.LBB710:
 2532              	.LBI710:
 294:../../libDaisy//src/daisy_core.h ****     {
 2533              		.loc 16 294 5 view .LVU708
 2534              	.LBE710:
 2535              		.loc 16 296 9 view .LVU709
 2536              	.LBB712:
 2537              	.LBB711:
 2538              	.LBI711:
 217:../../libDaisy//src/daisy_core.h **** {
 2539              		.loc 16 217 27 view .LVU710
 2540              	.LBE711:
 2541              	.LBE712:
ARM GAS  C:\Users\danst\AppData\Local\Temp\cczkfCFF.s 			page 85


 219:../../libDaisy//src/daisy_core.h ****     p.port = port;
 2542              		.loc 16 219 5 view .LVU711
 220:../../libDaisy//src/daisy_core.h ****     p.pin  = pin;
 2543              		.loc 16 220 5 view .LVU712
 221:../../libDaisy//src/daisy_core.h ****     return p;
 2544              		.loc 16 221 5 view .LVU713
 222:../../libDaisy//src/daisy_core.h **** }
 2545              		.loc 16 222 5 view .LVU714
 222:../../libDaisy//src/daisy_core.h **** }
 2546              		.loc 16 222 5 is_stmt 0 view .LVU715
 2547 016e 0523     		movs	r3, #5
 2548 0170 8DF82C40 		strb	r4, [sp, #44]
 2549              		.loc 12 186 47 view .LVU716
 2550 0174 0DF1A700 		add	r0, sp, #167
 2551 0178 8DF82D30 		strb	r3, [sp, #45]
 2552              	.LVL185:
 2553              		.loc 12 186 47 view .LVU717
 2554 017c 0B99     		ldr	r1, [sp, #44]
 2555 017e FFF7FEFF 		bl	_ZN5daisy16AdcChannelConfig10InitSingleE12dsy_gpio_pin
 2556              	.LVL186:
 187:2Cats1Bag.cpp **** 
 188:2Cats1Bag.cpp ****     hw.adc.Init( adcConfig, NUM_ADC_CHANNELS );
 2557              		.loc 12 188 5 is_stmt 1 view .LVU718
 2558              		.loc 12 188 16 is_stmt 0 view .LVU719
 2559 0182 3B46     		mov	r3, r7
 2560 0184 0822     		movs	r2, #8
 2561 0186 0CA9     		add	r1, sp, #48
 2562 0188 3648     		ldr	r0, .L122+40
 2563 018a FFF7FEFF 		bl	_ZN5daisy9AdcHandle4InitEPNS_16AdcChannelConfigEjNS0_12OverSamplingE
 2564              	.LVL187:
 189:2Cats1Bag.cpp ****     hw.adc.Start();
 2565              		.loc 12 189 5 is_stmt 1 view .LVU720
 2566              		.loc 12 189 17 is_stmt 0 view .LVU721
 2567 018e 3548     		ldr	r0, .L122+40
 2568 0190 2F4C     		ldr	r4, .L122+20
 2569 0192 2E4F     		ldr	r7, .L122+16
 2570 0194 344E     		ldr	r6, .L122+44
 2571 0196 FFF7FEFF 		bl	_ZN5daisy9AdcHandle5StartEv
 2572              	.LVL188:
 2573 019a 2DE0     		b	.L118
 2574              	.L114:
 190:2Cats1Bag.cpp **** 
 191:2Cats1Bag.cpp **** 	while( true ){
 192:2Cats1Bag.cpp **** 		// DEBOUNCE THE BUTTONS BEFORE WE USE THEM
 193:2Cats1Bag.cpp **** 		modulatorRangeSelectButton.Debounce();
 194:2Cats1Bag.cpp **** 		modulatorWaveSelectButton.Debounce();
 195:2Cats1Bag.cpp **** 		primaryWaveSelectButton.Debounce(); 
 196:2Cats1Bag.cpp **** 
 197:2Cats1Bag.cpp **** 		handleMidi();
 198:2Cats1Bag.cpp **** 		handleKnobs();
 199:2Cats1Bag.cpp **** 		
 200:2Cats1Bag.cpp **** 		// SET PRIMARY PULSEWIDTH / WAVESHAPE
 201:2Cats1Bag.cpp **** 		primary.SetPW( primaryWaveSelectButton.Pressed()? fmap( primaryWaveshapeAdjust, 0.2, 0.8 ) : prim
 2575              		.loc 12 201 16 discriminator 2 view .LVU722
 2576 019c 98ED000A 		vldr.32	s0, [r8]
 2577              	.L115:
 2578              		.loc 12 201 16 discriminator 4 view .LVU723
ARM GAS  C:\Users\danst\AppData\Local\Temp\cczkfCFF.s 			page 86


 2579 01a0 2C48     		ldr	r0, .L122+24
 202:2Cats1Bag.cpp **** 
 203:2Cats1Bag.cpp **** 		setModulatorFrequency();
 204:2Cats1Bag.cpp **** 		setPrimaryFrequency();
 205:2Cats1Bag.cpp **** 
 206:2Cats1Bag.cpp **** 		// SET THE WAVEFORM ACCORDING TO THE BUTTON STATE
 207:2Cats1Bag.cpp **** 		primary.SetWaveshape( primaryWaveSelectButton.Pressed()? 1.0 : 0.0 );		
 2580              		.loc 12 207 23 discriminator 4 view .LVU724
 2581 01a2 B7EE008A 		vmov.f32	s16, #1.0e+0
 201:2Cats1Bag.cpp **** 
 2582              		.loc 12 201 16 discriminator 4 view .LVU725
 2583 01a6 FFF7FEFF 		bl	_ZN7daisysp23VariableShapeOscillator5SetPWEf
 2584              	.LVL189:
 203:2Cats1Bag.cpp **** 		setPrimaryFrequency();
 2585              		.loc 12 203 3 is_stmt 1 discriminator 4 view .LVU726
 203:2Cats1Bag.cpp **** 		setPrimaryFrequency();
 2586              		.loc 12 203 24 is_stmt 0 discriminator 4 view .LVU727
 2587 01aa FFF7FEFF 		bl	_Z21setModulatorFrequencyv
 2588              	.LVL190:
 204:2Cats1Bag.cpp **** 
 2589              		.loc 12 204 3 is_stmt 1 discriminator 4 view .LVU728
 204:2Cats1Bag.cpp **** 
 2590              		.loc 12 204 22 is_stmt 0 discriminator 4 view .LVU729
 2591 01ae FFF7FEFF 		bl	_Z19setPrimaryFrequencyv
 2592              	.LVL191:
 2593              		.loc 12 207 3 is_stmt 1 discriminator 4 view .LVU730
 2594              	.LBB713:
 2595              	.LBI713:
 2596              		.loc 1 79 17 discriminator 4 view .LVU731
 2597              	.LBB714:
 2598              		.loc 1 79 35 discriminator 4 view .LVU732
 2599              		.loc 1 79 35 is_stmt 0 discriminator 4 view .LVU733
 2600              	.LBE714:
 2601              	.LBE713:
 2602              		.loc 12 207 23 discriminator 4 view .LVU734
 2603 01b2 A37A     		ldrb	r3, [r4, #10]	@ zero_extendqisi2
 2604 01b4 9FED2D0A 		vldr.32	s0, .L122+48
 2605 01b8 FF2B     		cmp	r3, #255
 2606 01ba 2648     		ldr	r0, .L122+24
 2607 01bc 08FE000A 		vseleq.f32	s0, s16, s0
 2608 01c0 FFF7FEFF 		bl	_ZN7daisysp23VariableShapeOscillator12SetWaveshapeEf
 2609              	.LVL192:
 208:2Cats1Bag.cpp **** 		
 209:2Cats1Bag.cpp **** 		// SET THE WAVEFORM ACCORDING TO THE BUTTON STATE
 210:2Cats1Bag.cpp **** 		modulator.SetWaveform( modulatorWaveSelectButton.Pressed()? 
 2610              		.loc 12 210 3 is_stmt 1 discriminator 4 view .LVU735
 2611              	.LBB715:
 2612              	.LBI715:
 2613              		.loc 1 79 17 discriminator 4 view .LVU736
 2614              	.LBB716:
 2615              		.loc 1 79 35 discriminator 4 view .LVU737
 2616              		.loc 1 79 35 is_stmt 0 discriminator 4 view .LVU738
 2617              	.LBE716:
 2618              	.LBE715:
 2619              		.loc 12 210 24 discriminator 4 view .LVU739
 2620 01c4 BB7A     		ldrb	r3, [r7, #10]	@ zero_extendqisi2
 2621              	.LBB717:
ARM GAS  C:\Users\danst\AppData\Local\Temp\cczkfCFF.s 			page 87


 2622              	.LBB718:
 2623              		.loc 13 173 31 discriminator 4 view .LVU740
 2624 01c6 B2EE027A 		vmov.f32	s14, #9.0e+0
 2625 01ca D6ED006A 		vldr.32	s13, [r6]
 2626              	.LBE718:
 2627              	.LBE717:
 2628              		.loc 12 210 24 discriminator 4 view .LVU741
 2629 01ce FF2B     		cmp	r3, #255
 2630              	.LBB737:
 2631              	.LBB733:
 2632              		.loc 13 173 31 discriminator 4 view .LVU742
 2633 01d0 B0EE480A 		vmov.f32	s0, s16
 2634              	.LBB719:
 2635              	.LBB720:
 2636              	.LBB721:
  47:../../DaisySP//Source/Utility/dsp.h **** #else
 2637              		.loc 13 47 5 discriminator 4 view .LVU743
 2638 01d4 F2EE047A 		vmov.f32	s15, #1.0e+1
 2639              	.LBE721:
 2640              	.LBE720:
 2641              	.LBE719:
 2642              	.LBE733:
 2643              	.LBE737:
 211:2Cats1Bag.cpp **** 			modulator.WAVE_SIN : 
 212:2Cats1Bag.cpp **** 			modulator.WAVE_POLYBLEP_TRI 
 213:2Cats1Bag.cpp **** 		);
 214:2Cats1Bag.cpp **** 
 215:2Cats1Bag.cpp **** 		// SET THE TIMBRE
 216:2Cats1Bag.cpp **** 		fold.SetGain( fmap( folderTimbreAdjust, 1.0, 10.0 ) );
 2644              		.loc 12 216 15 discriminator 4 view .LVU744
 2645 01d8 2548     		ldr	r0, .L122+52
 210:2Cats1Bag.cpp **** 			modulator.WAVE_SIN : 
 2646              		.loc 12 210 24 discriminator 4 view .LVU745
 2647 01da 0CBF     		ite	eq
 2648 01dc 0023     		moveq	r3, #0
 2649 01de 0523     		movne	r3, #5
 2650              	.LVL193:
 2651              	.LBB738:
 2652              	.LBI738:
  64:../../DaisySP//Source/Synthesis/oscillator.h ****     }
  65:../../DaisySP//Source/Synthesis/oscillator.h **** 
  66:../../DaisySP//Source/Synthesis/oscillator.h **** 
  67:../../DaisySP//Source/Synthesis/oscillator.h ****     /** Sets the amplitude of the waveform.
  68:../../DaisySP//Source/Synthesis/oscillator.h ****     */
  69:../../DaisySP//Source/Synthesis/oscillator.h ****     inline void SetAmp(const float a) { amp_ = a; }
  70:../../DaisySP//Source/Synthesis/oscillator.h ****     /** Sets the waveform to be synthesized by the Process() function.
  71:../../DaisySP//Source/Synthesis/oscillator.h ****     */
  72:../../DaisySP//Source/Synthesis/oscillator.h ****     inline void SetWaveform(const uint8_t wf)
 2653              		.loc 7 72 17 is_stmt 1 discriminator 4 view .LVU746
 2654              	.LBB739:
  73:../../DaisySP//Source/Synthesis/oscillator.h ****     {
  74:../../DaisySP//Source/Synthesis/oscillator.h ****         waveform_ = wf < WAVE_LAST ? wf : WAVE_SIN;
 2655              		.loc 7 74 9 discriminator 4 view .LVU747
 2656              	.LBE739:
 2657              	.LBE738:
 2658              	.LBB741:
 2659              	.LBB734:
ARM GAS  C:\Users\danst\AppData\Local\Temp\cczkfCFF.s 			page 88


 2660              		.loc 13 173 31 is_stmt 0 discriminator 4 view .LVU748
 2661 01e0 A6EE870A 		vfma.f32	s0, s13, s14
 2662              	.LBB730:
 2663              	.LBB724:
 2664              	.LBB725:
  36:../../DaisySP//Source/Utility/dsp.h **** #else
 2665              		.loc 13 36 5 discriminator 4 view .LVU749
 2666              		.syntax unified
 2667              	@ 36 "../../DaisySP//Source/Utility/dsp.h" 1
 2668 01e4 80FE080A 		vmaxnm.f32 s0, s0, s16
 2669              	@ 0 "" 2
 2670              		.thumb
 2671              		.syntax unified
 2672              	.LBE725:
 2673              	.LBE724:
 2674              	.LBB727:
 2675              	.LBB722:
  47:../../DaisySP//Source/Utility/dsp.h **** #else
 2676              		.loc 13 47 5 discriminator 4 view .LVU750
 2677              		.syntax unified
 2678              	@ 47 "../../DaisySP//Source/Utility/dsp.h" 1
 2679 01e8 80FE670A 		vminnm.f32 s0, s0, s15
 2680              	@ 0 "" 2
 2681              		.thumb
 2682              		.syntax unified
 2683              	.LBE722:
 2684              	.LBE727:
 2685              	.LBE730:
 2686              	.LBE734:
 2687              	.LBE741:
 2688              	.LBB742:
 2689              	.LBB740:
 2690              		.loc 7 74 19 discriminator 4 view .LVU751
 2691 01ec 2B70     		strb	r3, [r5]
 2692              	.LVL194:
 2693              		.loc 7 74 19 discriminator 4 view .LVU752
 2694              	.LBE740:
 2695              	.LBE742:
 2696              		.loc 12 216 3 is_stmt 1 discriminator 4 view .LVU753
 2697              	.LBB743:
 2698              	.LBI717:
 161:../../DaisySP//Source/Utility/dsp.h **** {
 2699              		.loc 13 161 1 discriminator 4 view .LVU754
 2700              	.LBE743:
 163:../../DaisySP//Source/Utility/dsp.h ****     {
 2701              		.loc 13 163 5 discriminator 4 view .LVU755
 2702              	.LBB744:
 2703              	.LBB735:
 172:../../DaisySP//Source/Utility/dsp.h ****         default: return fclamp(min + in * (max - min), min, max);
 2704              		.loc 13 172 9 discriminator 4 view .LVU756
 2705              		.loc 13 173 9 discriminator 4 view .LVU757
 2706              		.loc 13 173 18 discriminator 4 view .LVU758
 2707              	.LBB731:
 2708              	.LBI719:
  56:../../DaisySP//Source/Utility/dsp.h **** {
 2709              		.loc 13 56 14 discriminator 4 view .LVU759
 2710              	.LBE731:
ARM GAS  C:\Users\danst\AppData\Local\Temp\cczkfCFF.s 			page 89


 2711              	.LBE735:
 2712              	.LBE744:
  58:../../DaisySP//Source/Utility/dsp.h **** }
 2713              		.loc 13 58 5 discriminator 4 view .LVU760
 2714              	.LBB745:
 2715              	.LBB736:
 2716              	.LBB732:
 2717              	.LBB728:
 2718              	.LBI724:
  32:../../DaisySP//Source/Utility/dsp.h **** {
 2719              		.loc 13 32 14 discriminator 4 view .LVU761
 2720              	.LBB726:
  34:../../DaisySP//Source/Utility/dsp.h **** #ifdef __arm__
 2721              		.loc 13 34 5 discriminator 4 view .LVU762
  36:../../DaisySP//Source/Utility/dsp.h **** #else
 2722              		.loc 13 36 5 discriminator 4 view .LVU763
  40:../../DaisySP//Source/Utility/dsp.h **** }
 2723              		.loc 13 40 5 discriminator 4 view .LVU764
  40:../../DaisySP//Source/Utility/dsp.h **** }
 2724              		.loc 13 40 5 is_stmt 0 discriminator 4 view .LVU765
 2725              	.LBE726:
 2726              	.LBE728:
 2727              	.LBB729:
 2728              	.LBI720:
  43:../../DaisySP//Source/Utility/dsp.h **** {
 2729              		.loc 13 43 14 is_stmt 1 discriminator 4 view .LVU766
 2730              	.LBB723:
  45:../../DaisySP//Source/Utility/dsp.h **** #ifdef __arm__
 2731              		.loc 13 45 5 discriminator 4 view .LVU767
  47:../../DaisySP//Source/Utility/dsp.h **** #else
 2732              		.loc 13 47 5 discriminator 4 view .LVU768
  51:../../DaisySP//Source/Utility/dsp.h **** }
 2733              		.loc 13 51 5 discriminator 4 view .LVU769
  51:../../DaisySP//Source/Utility/dsp.h **** }
 2734              		.loc 13 51 5 is_stmt 0 discriminator 4 view .LVU770
 2735              	.LBE723:
 2736              	.LBE729:
 2737              	.LBE732:
 2738              	.LBE736:
 2739              	.LBE745:
 2740              		.loc 12 216 15 discriminator 4 view .LVU771
 2741 01ee FFF7FEFF 		bl	_ZN7daisysp10Wavefolder7SetGainEf
 2742              	.LVL195:
 217:2Cats1Bag.cpp **** 
 218:2Cats1Bag.cpp **** 		System::Delay( 1 );
 2743              		.loc 12 218 3 is_stmt 1 discriminator 4 view .LVU772
 2744              		.loc 12 218 16 is_stmt 0 discriminator 4 view .LVU773
 2745 01f2 0120     		movs	r0, #1
 2746 01f4 FFF7FEFF 		bl	_ZN5daisy6System5DelayEm
 2747              	.LVL196:
 191:2Cats1Bag.cpp **** 		// DEBOUNCE THE BUTTONS BEFORE WE USE THEM
 2748              		.loc 12 191 2 is_stmt 1 discriminator 4 view .LVU774
 2749              	.L118:
 191:2Cats1Bag.cpp **** 		// DEBOUNCE THE BUTTONS BEFORE WE USE THEM
 2750              		.loc 12 191 2 view .LVU775
 193:2Cats1Bag.cpp **** 		modulatorWaveSelectButton.Debounce();
 2751              		.loc 12 193 3 view .LVU776
ARM GAS  C:\Users\danst\AppData\Local\Temp\cczkfCFF.s 			page 90


 193:2Cats1Bag.cpp **** 		modulatorWaveSelectButton.Debounce();
 2752              		.loc 12 193 38 is_stmt 0 view .LVU777
 2753 01f8 1348     		ldr	r0, .L122+12
 2754 01fa FFF7FEFF 		bl	_ZN5daisy6Switch8DebounceEv
 2755              	.LVL197:
 194:2Cats1Bag.cpp **** 		primaryWaveSelectButton.Debounce(); 
 2756              		.loc 12 194 3 is_stmt 1 view .LVU778
 194:2Cats1Bag.cpp **** 		primaryWaveSelectButton.Debounce(); 
 2757              		.loc 12 194 37 is_stmt 0 view .LVU779
 2758 01fe 1348     		ldr	r0, .L122+16
 2759 0200 FFF7FEFF 		bl	_ZN5daisy6Switch8DebounceEv
 2760              	.LVL198:
 195:2Cats1Bag.cpp **** 
 2761              		.loc 12 195 3 is_stmt 1 view .LVU780
 195:2Cats1Bag.cpp **** 
 2762              		.loc 12 195 35 is_stmt 0 view .LVU781
 2763 0204 1248     		ldr	r0, .L122+20
 2764 0206 FFF7FEFF 		bl	_ZN5daisy6Switch8DebounceEv
 2765              	.LVL199:
 197:2Cats1Bag.cpp **** 		handleKnobs();
 2766              		.loc 12 197 3 is_stmt 1 view .LVU782
 197:2Cats1Bag.cpp **** 		handleKnobs();
 2767              		.loc 12 197 13 is_stmt 0 view .LVU783
 2768 020a FFF7FEFF 		bl	_Z10handleMidiv
 2769              	.LVL200:
 198:2Cats1Bag.cpp **** 		
 2770              		.loc 12 198 3 is_stmt 1 view .LVU784
 198:2Cats1Bag.cpp **** 		
 2771              		.loc 12 198 14 is_stmt 0 view .LVU785
 2772 020e FFF7FEFF 		bl	_Z11handleKnobsv
 2773              	.LVL201:
 201:2Cats1Bag.cpp **** 
 2774              		.loc 12 201 3 is_stmt 1 view .LVU786
 2775              	.LBB746:
 2776              	.LBI746:
 2777              		.loc 1 79 17 view .LVU787
 2778              	.LBB747:
 2779              		.loc 1 79 35 view .LVU788
 2780              		.loc 1 79 35 is_stmt 0 view .LVU789
 2781              	.LBE747:
 2782              	.LBE746:
 201:2Cats1Bag.cpp **** 
 2783              		.loc 12 201 16 view .LVU790
 2784 0212 A37A     		ldrb	r3, [r4, #10]	@ zero_extendqisi2
 2785 0214 FF2B     		cmp	r3, #255
 2786 0216 C1D1     		bne	.L114
 2787              	.LVL202:
 2788              	.LBB748:
 2789              	.LBI748:
 161:../../DaisySP//Source/Utility/dsp.h **** {
 2790              		.loc 13 161 1 is_stmt 1 discriminator 1 view .LVU791
 2791              	.LBE748:
 163:../../DaisySP//Source/Utility/dsp.h ****     {
 2792              		.loc 13 163 5 discriminator 1 view .LVU792
 2793              	.LBB760:
 2794              	.LBB749:
 172:../../DaisySP//Source/Utility/dsp.h ****         default: return fclamp(min + in * (max - min), min, max);
ARM GAS  C:\Users\danst\AppData\Local\Temp\cczkfCFF.s 			page 91


 2795              		.loc 13 172 9 discriminator 1 view .LVU793
 2796              		.loc 13 173 9 discriminator 1 view .LVU794
 2797              		.loc 13 173 18 discriminator 1 view .LVU795
 2798              		.loc 13 173 31 is_stmt 0 discriminator 1 view .LVU796
 2799 0218 DFED167A 		vldr.32	s15, .L122+56
 2800 021c 98ED006A 		vldr.32	s12, [r8]
 2801 0220 B0EE670A 		vmov.f32	s0, s15
 2802 0224 DFED146A 		vldr.32	s13, .L122+60
 2803              	.LBB750:
 2804              	.LBB751:
 2805              	.LBB752:
  47:../../DaisySP//Source/Utility/dsp.h **** #else
 2806              		.loc 13 47 5 discriminator 1 view .LVU797
 2807 0228 9FED147A 		vldr.32	s14, .L122+64
 2808              	.LBE752:
 2809              	.LBE751:
 2810              	.LBE750:
 2811              		.loc 13 173 31 discriminator 1 view .LVU798
 2812 022c A6EE260A 		vfma.f32	s0, s12, s13
 2813              	.LVL203:
 2814              	.LBB757:
 2815              	.LBI750:
  56:../../DaisySP//Source/Utility/dsp.h **** {
 2816              		.loc 13 56 14 is_stmt 1 discriminator 1 view .LVU799
 2817              	.LBE757:
 2818              	.LBE749:
 2819              	.LBE760:
  58:../../DaisySP//Source/Utility/dsp.h **** }
 2820              		.loc 13 58 5 discriminator 1 view .LVU800
 2821              	.LBB761:
 2822              	.LBB759:
 2823              	.LBB758:
 2824              	.LBB754:
 2825              	.LBI754:
  32:../../DaisySP//Source/Utility/dsp.h **** {
 2826              		.loc 13 32 14 discriminator 1 view .LVU801
 2827              	.LBB755:
  34:../../DaisySP//Source/Utility/dsp.h **** #ifdef __arm__
 2828              		.loc 13 34 5 discriminator 1 view .LVU802
  36:../../DaisySP//Source/Utility/dsp.h **** #else
 2829              		.loc 13 36 5 discriminator 1 view .LVU803
 2830              		.syntax unified
 2831              	@ 36 "../../DaisySP//Source/Utility/dsp.h" 1
 2832 0230 80FE270A 		vmaxnm.f32 s0, s0, s15
 2833              	@ 0 "" 2
 2834              	.LVL204:
  40:../../DaisySP//Source/Utility/dsp.h **** }
 2835              		.loc 13 40 5 discriminator 1 view .LVU804
  40:../../DaisySP//Source/Utility/dsp.h **** }
 2836              		.loc 13 40 5 is_stmt 0 discriminator 1 view .LVU805
 2837              		.thumb
 2838              		.syntax unified
 2839              	.LBE755:
 2840              	.LBE754:
 2841              	.LBB756:
 2842              	.LBI751:
  43:../../DaisySP//Source/Utility/dsp.h **** {
ARM GAS  C:\Users\danst\AppData\Local\Temp\cczkfCFF.s 			page 92


 2843              		.loc 13 43 14 is_stmt 1 discriminator 1 view .LVU806
 2844              	.LBB753:
  45:../../DaisySP//Source/Utility/dsp.h **** #ifdef __arm__
 2845              		.loc 13 45 5 discriminator 1 view .LVU807
  47:../../DaisySP//Source/Utility/dsp.h **** #else
 2846              		.loc 13 47 5 discriminator 1 view .LVU808
 2847              		.syntax unified
 2848              	@ 47 "../../DaisySP//Source/Utility/dsp.h" 1
 2849 0234 80FE470A 		vminnm.f32 s0, s0, s14
 2850              	@ 0 "" 2
 2851              	.LVL205:
  51:../../DaisySP//Source/Utility/dsp.h **** }
 2852              		.loc 13 51 5 discriminator 1 view .LVU809
  51:../../DaisySP//Source/Utility/dsp.h **** }
 2853              		.loc 13 51 5 is_stmt 0 discriminator 1 view .LVU810
 2854              		.thumb
 2855              		.syntax unified
 2856              	.LBE753:
 2857              	.LBE756:
 2858              	.LBE758:
 2859              	.LBE759:
 2860              	.LBE761:
 2861 0238 B2E7     		b	.L115
 2862              	.L123:
 2863 023a 00BF     		.align	2
 2864              	.L122:
 2865 023c 00000000 		.word	.LANCHOR6
 2866 0240 00000000 		.word	midi
 2867 0244 0000C842 		.word	1120403456
 2868 0248 00000000 		.word	.LANCHOR15
 2869 024c 00000000 		.word	.LANCHOR18
 2870 0250 00000000 		.word	.LANCHOR19
 2871 0254 00000000 		.word	.LANCHOR3
 2872 0258 00000000 		.word	.LANCHOR0
 2873 025c DB0F4940 		.word	1078530011
 2874 0260 00000000 		.word	_Z13AudioCallbackPKPKfPPfj
 2875 0264 18000000 		.word	.LANCHOR6+24
 2876 0268 00000000 		.word	.LANCHOR12
 2877 026c 00000000 		.word	0
 2878 0270 00000000 		.word	.LANCHOR5
 2879 0274 CDCC4C3E 		.word	1045220557
 2880 0278 9A99193F 		.word	1058642330
 2881 027c CDCC4C3F 		.word	1061997773
 2882 0280 00000000 		.word	.LANCHOR11
 2883              		.cfi_endproc
 2884              	.LFE4430:
 2886              		.section	.text.startup._GLOBAL__sub_I_hw,"ax",%progbits
 2887              		.align	1
 2888              		.p2align 2,,3
 2889              		.syntax unified
 2890              		.thumb
 2891              		.thumb_func
 2892              		.fpu fpv5-d16
 2894              	_GLOBAL__sub_I_hw:
 2895              	.LFB5012:
 219:2Cats1Bag.cpp **** 	}
 220:2Cats1Bag.cpp **** }...
ARM GAS  C:\Users\danst\AppData\Local\Temp\cczkfCFF.s 			page 93


 2896              		.loc 12 220 1 is_stmt 1 view -0
 2897              		.cfi_startproc
 2898              		@ args = 0, pretend = 0, frame = 0
 2899              		@ frame_needed = 0, uses_anonymous_args = 0
 2900              	.LBB803:
 2901              	.LBI803:
 2902              		.loc 12 220 1 view .LVU812
 2903              	.LVL206:
 2904              	.LBB804:
 2905              	.LBB805:
 2906              	.LBI805:
  21:../../libDaisy//src/daisy_seed.h ****     ~DaisySeed() {}
 2907              		.loc 2 21 5 view .LVU813
 2908              	.LBB806:
 2909              	.LBB807:
 2910              	.LBI807:
 2911              		.file 17 "../../libDaisy//src/per/qspi.h"
   1:../../libDaisy//src/per/qspi.h **** #ifndef DSY_QSPI
   2:../../libDaisy//src/per/qspi.h **** #define DSY_QSPI /**< Macro */
   3:../../libDaisy//src/per/qspi.h **** 
   4:../../libDaisy//src/per/qspi.h **** #ifndef UNIT_TEST // for unit tests, a dummy implementation
   5:../../libDaisy//src/per/qspi.h **** 
   6:../../libDaisy//src/per/qspi.h **** #include <cstdint>
   7:../../libDaisy//src/per/qspi.h **** #include "daisy_core.h" // Added for dsy_gpio_pin typedef
   8:../../libDaisy//src/per/qspi.h **** 
   9:../../libDaisy//src/per/qspi.h **** #define DSY_QSPI_TEXT       \
  10:../../libDaisy//src/per/qspi.h ****     __attribute__((section( \
  11:../../libDaisy//src/per/qspi.h ****         ".qspiflash_text"))) /**< used for reading memory in memory_mapped mode. */
  12:../../libDaisy//src/per/qspi.h **** #define DSY_QSPI_DATA       \
  13:../../libDaisy//src/per/qspi.h ****     __attribute__((section( \
  14:../../libDaisy//src/per/qspi.h ****         ".qspiflash_data"))) /**< used for reading memory in memory_mapped mode. */
  15:../../libDaisy//src/per/qspi.h **** #define DSY_QSPI_BSS        \
  16:../../libDaisy//src/per/qspi.h ****     __attribute__((section( \
  17:../../libDaisy//src/per/qspi.h ****         ".qspiflash_bss"))) /**< used for reading memory in memory_mapped mode. */
  18:../../libDaisy//src/per/qspi.h **** 
  19:../../libDaisy//src/per/qspi.h **** namespace daisy
  20:../../libDaisy//src/per/qspi.h **** {
  21:../../libDaisy//src/per/qspi.h **** /** @addtogroup serial
  22:../../libDaisy//src/per/qspi.h **** @{
  23:../../libDaisy//src/per/qspi.h **** */
  24:../../libDaisy//src/per/qspi.h **** 
  25:../../libDaisy//src/per/qspi.h **** /** 
  26:../../libDaisy//src/per/qspi.h ****  Driver for QSPI peripheral to interface with external flash memory. \n 
  27:../../libDaisy//src/per/qspi.h ****     Currently supported QSPI Devices: \n 
  28:../../libDaisy//src/per/qspi.h ****     * IS25LP080D
  29:../../libDaisy//src/per/qspi.h **** */
  30:../../libDaisy//src/per/qspi.h **** class QSPIHandle
  31:../../libDaisy//src/per/qspi.h **** {
  32:../../libDaisy//src/per/qspi.h ****   public:
  33:../../libDaisy//src/per/qspi.h ****     enum Result
  34:../../libDaisy//src/per/qspi.h ****     {
  35:../../libDaisy//src/per/qspi.h ****         OK = 0,
  36:../../libDaisy//src/per/qspi.h ****         ERR
  37:../../libDaisy//src/per/qspi.h ****     };
  38:../../libDaisy//src/per/qspi.h **** 
  39:../../libDaisy//src/per/qspi.h ****     /** Indicates the current status of the module. 
  40:../../libDaisy//src/per/qspi.h ****          *  Warnings are indicated by a leading W.
ARM GAS  C:\Users\danst\AppData\Local\Temp\cczkfCFF.s 			page 94


  41:../../libDaisy//src/per/qspi.h ****          *  Errors are indicated by a leading E and cause an immediate exit.
  42:../../libDaisy//src/per/qspi.h ****          * 
  43:../../libDaisy//src/per/qspi.h ****          *  \param GOOD - No errors have been reported.
  44:../../libDaisy//src/per/qspi.h ****          *  \param E_HAL_ERROR - HAL code did not return HAL_OK.
  45:../../libDaisy//src/per/qspi.h ****          *  \param E_SWITCHING_MODES - An error was encountered while switching QSPI peripheral mod
  46:../../libDaisy//src/per/qspi.h ****          *  \param E_INVALID_MODE - QSPI should not be written to while the program is executing fr
  47:../../libDaisy//src/per/qspi.h ****          */
  48:../../libDaisy//src/per/qspi.h ****     enum Status
  49:../../libDaisy//src/per/qspi.h ****     {
  50:../../libDaisy//src/per/qspi.h ****         GOOD = 0,
  51:../../libDaisy//src/per/qspi.h ****         E_HAL_ERROR,
  52:../../libDaisy//src/per/qspi.h ****         E_SWITCHING_MODES,
  53:../../libDaisy//src/per/qspi.h ****         E_INVALID_MODE,
  54:../../libDaisy//src/per/qspi.h ****     };
  55:../../libDaisy//src/per/qspi.h **** 
  56:../../libDaisy//src/per/qspi.h ****     /** Configuration structure for interfacing with QSPI Driver */
  57:../../libDaisy//src/per/qspi.h ****     struct Config
  58:../../libDaisy//src/per/qspi.h ****     {
  59:../../libDaisy//src/per/qspi.h ****         /** Flash Devices supported. (Both of these are more-or-less the same, just different sizes
  60:../../libDaisy//src/per/qspi.h ****         enum Device
  61:../../libDaisy//src/per/qspi.h ****         {
  62:../../libDaisy//src/per/qspi.h ****             IS25LP080D,  /**< & */
  63:../../libDaisy//src/per/qspi.h ****             IS25LP064A,  /**< & */
  64:../../libDaisy//src/per/qspi.h ****             DEVICE_LAST, /**< & */
  65:../../libDaisy//src/per/qspi.h ****         };
  66:../../libDaisy//src/per/qspi.h **** 
  67:../../libDaisy//src/per/qspi.h ****         /** 
  68:../../libDaisy//src/per/qspi.h ****         Modes of operation.
  69:../../libDaisy//src/per/qspi.h ****         Memory Mapped mode: QSPI configured so that the QSPI can be
  70:../../libDaisy//src/per/qspi.h ****         read from starting address 0x90000000. Writing is not
  71:../../libDaisy//src/per/qspi.h ****         possible in this mode. \n 
  72:../../libDaisy//src/per/qspi.h ****         Indirect Polling mode: Device driver enabled. 
  73:../../libDaisy//src/per/qspi.h ****         */
  74:../../libDaisy//src/per/qspi.h ****         enum Mode
  75:../../libDaisy//src/per/qspi.h ****         {
  76:../../libDaisy//src/per/qspi.h ****             MEMORY_MAPPED,    /**< & */
  77:../../libDaisy//src/per/qspi.h ****             INDIRECT_POLLING, /**< & */
  78:../../libDaisy//src/per/qspi.h ****             MODE_LAST,
  79:../../libDaisy//src/per/qspi.h ****         };
  80:../../libDaisy//src/per/qspi.h **** 
  81:../../libDaisy//src/per/qspi.h ****         //SCK,  CE# (active low)
  82:../../libDaisy//src/per/qspi.h ****         struct
  83:../../libDaisy//src/per/qspi.h ****         {
  84:../../libDaisy//src/per/qspi.h ****             dsy_gpio_pin io0; /**< & */
  85:../../libDaisy//src/per/qspi.h ****             dsy_gpio_pin io1; /**< & */
  86:../../libDaisy//src/per/qspi.h ****             dsy_gpio_pin io2; /**< & */
  87:../../libDaisy//src/per/qspi.h ****             dsy_gpio_pin io3; /**< & */
  88:../../libDaisy//src/per/qspi.h ****             dsy_gpio_pin clk; /**< & */
  89:../../libDaisy//src/per/qspi.h ****             dsy_gpio_pin ncs; /**< & */
  90:../../libDaisy//src/per/qspi.h ****         } pin_config;
  91:../../libDaisy//src/per/qspi.h **** 
  92:../../libDaisy//src/per/qspi.h ****         Device device;
  93:../../libDaisy//src/per/qspi.h ****         Mode   mode;
  94:../../libDaisy//src/per/qspi.h ****     };
  95:../../libDaisy//src/per/qspi.h **** 
  96:../../libDaisy//src/per/qspi.h ****     /** 
  97:../../libDaisy//src/per/qspi.h ****         Initializes QSPI peripheral, and Resets, and prepares memory for access.
ARM GAS  C:\Users\danst\AppData\Local\Temp\cczkfCFF.s 			page 95


  98:../../libDaisy//src/per/qspi.h ****         \param config should be populated with the mode, device and pin_config before calling this 
  99:../../libDaisy//src/per/qspi.h ****         \return Result::OK or Result::ERR
 100:../../libDaisy//src/per/qspi.h ****         */
 101:../../libDaisy//src/per/qspi.h ****     Result Init(const Config& config);
 102:../../libDaisy//src/per/qspi.h **** 
 103:../../libDaisy//src/per/qspi.h ****     /** Returns the current config. */
 104:../../libDaisy//src/per/qspi.h ****     const Config& GetConfig() const;
 105:../../libDaisy//src/per/qspi.h **** 
 106:../../libDaisy//src/per/qspi.h ****     // Couldn't this just be called before anything else in init? That
 107:../../libDaisy//src/per/qspi.h ****     // would make manually calling it unnecessary.
 108:../../libDaisy//src/per/qspi.h ****     /** 
 109:../../libDaisy//src/per/qspi.h ****         Deinitializes the peripheral
 110:../../libDaisy//src/per/qspi.h ****         This should be called before reinitializing QSPI in a different mode.
 111:../../libDaisy//src/per/qspi.h ****         \return Result::OK or Result::ERR
 112:../../libDaisy//src/per/qspi.h ****         */
 113:../../libDaisy//src/per/qspi.h ****     Result DeInit();
 114:../../libDaisy//src/per/qspi.h **** 
 115:../../libDaisy//src/per/qspi.h ****     /** 
 116:../../libDaisy//src/per/qspi.h ****         Writes a single page to to the specified address on the QSPI chip.
 117:../../libDaisy//src/per/qspi.h ****         For IS25LP*, page size is 256 bytes.
 118:../../libDaisy//src/per/qspi.h ****         \param address Address to write to
 119:../../libDaisy//src/per/qspi.h ****         \param size Buffer size
 120:../../libDaisy//src/per/qspi.h ****         \param buffer Buffer to write
 121:../../libDaisy//src/per/qspi.h ****         \return Result::OK or Result::ERR
 122:../../libDaisy//src/per/qspi.h ****         */
 123:../../libDaisy//src/per/qspi.h ****     Result WritePage(uint32_t address, uint32_t size, uint8_t* buffer);
 124:../../libDaisy//src/per/qspi.h **** 
 125:../../libDaisy//src/per/qspi.h ****     /** 
 126:../../libDaisy//src/per/qspi.h ****         Writes data in buffer to to the QSPI. Starting at address to address+size 
 127:../../libDaisy//src/per/qspi.h ****         \param address Address to write to
 128:../../libDaisy//src/per/qspi.h ****         \param size Buffer size
 129:../../libDaisy//src/per/qspi.h ****         \param buffer Buffer to write
 130:../../libDaisy//src/per/qspi.h ****         \return Result::OK or Result::ERR
 131:../../libDaisy//src/per/qspi.h ****         */
 132:../../libDaisy//src/per/qspi.h ****     Result Write(uint32_t address, uint32_t size, uint8_t* buffer);
 133:../../libDaisy//src/per/qspi.h **** 
 134:../../libDaisy//src/per/qspi.h ****     /** 
 135:../../libDaisy//src/per/qspi.h ****         Erases the area specified on the chip.
 136:../../libDaisy//src/per/qspi.h ****         Erasures will happen by 4K, 32K or 64K increments.
 137:../../libDaisy//src/per/qspi.h ****         Smallest erase possible is 4kB at a time. (on IS25LP*)
 138:../../libDaisy//src/per/qspi.h ****         \param start_addr Address to begin erasing from
 139:../../libDaisy//src/per/qspi.h ****         \param end_addr  Address to stop erasing at
 140:../../libDaisy//src/per/qspi.h ****         \return Result::OK or Result::ERR
 141:../../libDaisy//src/per/qspi.h ****         */
 142:../../libDaisy//src/per/qspi.h ****     Result Erase(uint32_t start_addr, uint32_t end_addr);
 143:../../libDaisy//src/per/qspi.h **** 
 144:../../libDaisy//src/per/qspi.h ****     /**  
 145:../../libDaisy//src/per/qspi.h ****          Erases a single sector of the chip.  
 146:../../libDaisy//src/per/qspi.h ****         TODO: Document the size of this function. 
 147:../../libDaisy//src/per/qspi.h ****         \param address Address of sector to erase
 148:../../libDaisy//src/per/qspi.h ****         \return Result::OK or Result::ERR
 149:../../libDaisy//src/per/qspi.h ****         */
 150:../../libDaisy//src/per/qspi.h ****     Result EraseSector(uint32_t address);
 151:../../libDaisy//src/per/qspi.h **** 
 152:../../libDaisy//src/per/qspi.h ****     /** Returns the current class status. Useful for debugging.
 153:../../libDaisy//src/per/qspi.h ****      *  \returns Status
 154:../../libDaisy//src/per/qspi.h ****      */
ARM GAS  C:\Users\danst\AppData\Local\Temp\cczkfCFF.s 			page 96


 155:../../libDaisy//src/per/qspi.h ****     Status GetStatus();
 156:../../libDaisy//src/per/qspi.h **** 
 157:../../libDaisy//src/per/qspi.h ****     /** Returns a pointer to the actual memory used 
 158:../../libDaisy//src/per/qspi.h ****      *  The memory at this address is read-only
 159:../../libDaisy//src/per/qspi.h ****      *  to write to it use the Write function.
 160:../../libDaisy//src/per/qspi.h ****      * 
 161:../../libDaisy//src/per/qspi.h ****      *  \param offset returns the pointer starting this 
 162:../../libDaisy//src/per/qspi.h ****      *                many bytes into the memory
 163:../../libDaisy//src/per/qspi.h ****     */
 164:../../libDaisy//src/per/qspi.h ****     void* GetData(uint32_t offset = 0);
 165:../../libDaisy//src/per/qspi.h **** 
 166:../../libDaisy//src/per/qspi.h ****     QSPIHandle() : pimpl_(nullptr) {}
 2912              		.loc 17 166 5 view .LVU814
 2913              	.LBE807:
 2914              	.LBE806:
 2915              	.LBE805:
 2916              	.LBE804:
 2917              	.LBE803:
 2918              		.loc 12 220 1 is_stmt 0 view .LVU815
 2919 0000 38B5     		push	{r3, r4, r5, lr}
 2920              		.cfi_def_cfa_offset 16
 2921              		.cfi_offset 3, -16
 2922              		.cfi_offset 4, -12
 2923              		.cfi_offset 5, -8
 2924              		.cfi_offset 14, -4
 2925              	.LBB857:
 2926              	.LBB855:
 2927              	.LBB825:
 2928              	.LBB823:
 2929              	.LBB812:
 2930              	.LBB808:
 2931              	.LBB809:
 2932              		.loc 17 166 34 view .LVU816
 2933 0002 1F48     		ldr	r0, .L126
 2934 0004 0025     		movs	r5, #0
 2935              	.LBE809:
 2936              	.LBE808:
 2937              	.LBE812:
 2938              	.LBE823:
 2939              	.LBE825:
   8:2Cats1Bag.cpp **** DaisySeed hw;
 2940              		.loc 12 8 11 view .LVU817
 2941 0006 1F4C     		ldr	r4, .L126+4
 2942 0008 1F49     		ldr	r1, .L126+8
 2943 000a 2246     		mov	r2, r4
 2944              	.LBB826:
 2945              	.LBB824:
 2946              	.LBB813:
 2947              	.LBB811:
 2948              	.LBB810:
 2949              		.loc 17 166 34 view .LVU818
 2950 000c 0560     		str	r5, [r0]
 2951              	.LVL207:
 2952              		.loc 17 166 34 view .LVU819
 2953              	.LBE810:
 2954              	.LBE811:
 2955              	.LBE813:
ARM GAS  C:\Users\danst\AppData\Local\Temp\cczkfCFF.s 			page 97


 2956              	.LBB814:
 2957              	.LBI814:
  76:../../libDaisy//src/hid/audio.h ****     ~AudioHandle() {}
 2958              		.loc 6 76 5 is_stmt 1 view .LVU820
 2959              	.LBB815:
 2960              	.LBB816:
  76:../../libDaisy//src/hid/audio.h ****     ~AudioHandle() {}
 2961              		.loc 6 76 35 is_stmt 0 view .LVU821
 2962 000e 4561     		str	r5, [r0, #20]
 2963              	.LVL208:
  76:../../libDaisy//src/hid/audio.h ****     ~AudioHandle() {}
 2964              		.loc 6 76 35 view .LVU822
 2965              	.LBE816:
 2966              	.LBE815:
 2967              	.LBE814:
 2968              	.LBB817:
 2969              	.LBI817:
  92:../../libDaisy//src/per/adc.h ****     ~AdcHandle() {}
 2970              		.loc 5 92 5 is_stmt 1 view .LVU823
  92:../../libDaisy//src/per/adc.h ****     ~AdcHandle() {}
 2971              		.loc 5 92 5 is_stmt 0 view .LVU824
 2972              	.LBE817:
 2973              	.LBB818:
 2974              	.LBI818:
 2975              		.file 18 "../../libDaisy//src/per/dac.h"
   1:../../libDaisy//src/per/dac.h **** #pragma once
   2:../../libDaisy//src/per/dac.h **** #ifndef DSY_DAC_H
   3:../../libDaisy//src/per/dac.h **** #define DSY_DAC_H
   4:../../libDaisy//src/per/dac.h **** 
   5:../../libDaisy//src/per/dac.h **** #include "daisy_core.h"
   6:../../libDaisy//src/per/dac.h **** 
   7:../../libDaisy//src/per/dac.h **** namespace daisy
   8:../../libDaisy//src/per/dac.h **** {
   9:../../libDaisy//src/per/dac.h **** /** @brief DAC handle for Built-in DAC Peripheral 
  10:../../libDaisy//src/per/dac.h ****  *  @ingroup per_analog
  11:../../libDaisy//src/per/dac.h ****  ** 
  12:../../libDaisy//src/per/dac.h ****  ** For now only Normal Mode is supported,
  13:../../libDaisy//src/per/dac.h ****  ** Sample and hold mode provides reduced power consumption, but requires a bit more setup.
  14:../../libDaisy//src/per/dac.h ****  **
  15:../../libDaisy//src/per/dac.h ****  ** For now connecting the DAC through other internal peripherals is also not supported.
  16:../../libDaisy//src/per/dac.h ****  **
  17:../../libDaisy//src/per/dac.h ****  ** Since the DAC channels have dedicated pins we don't need to pass in a pin config like with
  18:../../libDaisy//src/per/dac.h ****  ** other modules. However, it is still important to not try to use the DAC pins for anything else.
  19:../../libDaisy//src/per/dac.h ****  ** DAC Channel 1 is on PA4, and DAC Channel 2 is on PA5
  20:../../libDaisy//src/per/dac.h ****  ***/
  21:../../libDaisy//src/per/dac.h **** class DacHandle
  22:../../libDaisy//src/per/dac.h **** {
  23:../../libDaisy//src/per/dac.h ****   public:
  24:../../libDaisy//src/per/dac.h ****     /** Return Values for the DacHandle class */
  25:../../libDaisy//src/per/dac.h ****     enum class Result
  26:../../libDaisy//src/per/dac.h ****     {
  27:../../libDaisy//src/per/dac.h ****         OK,
  28:../../libDaisy//src/per/dac.h ****         ERR,
  29:../../libDaisy//src/per/dac.h ****     };
  30:../../libDaisy//src/per/dac.h **** 
  31:../../libDaisy//src/per/dac.h ****     /** Selects which channel(s) will be configured for use. */
  32:../../libDaisy//src/per/dac.h ****     enum class Channel
ARM GAS  C:\Users\danst\AppData\Local\Temp\cczkfCFF.s 			page 98


  33:../../libDaisy//src/per/dac.h ****     {
  34:../../libDaisy//src/per/dac.h ****         ONE,
  35:../../libDaisy//src/per/dac.h ****         TWO,
  36:../../libDaisy//src/per/dac.h ****         BOTH,
  37:../../libDaisy//src/per/dac.h ****     };
  38:../../libDaisy//src/per/dac.h **** 
  39:../../libDaisy//src/per/dac.h ****     /** Sets the Mode for the DAC channels.
  40:../../libDaisy//src/per/dac.h ****      **
  41:../../libDaisy//src/per/dac.h ****      ** Polling mode uses the blocking mode to transmit a single value at a time.
  42:../../libDaisy//src/per/dac.h ****      **
  43:../../libDaisy//src/per/dac.h ****      ** DMA mode uses a buffer, and periodically transmits it triggering a 
  44:../../libDaisy//src/per/dac.h ****      ** callback to fill the buffer when it is ready for more samples.
  45:../../libDaisy//src/per/dac.h ****      ***/
  46:../../libDaisy//src/per/dac.h ****     enum class Mode
  47:../../libDaisy//src/per/dac.h ****     {
  48:../../libDaisy//src/per/dac.h ****         POLLING,
  49:../../libDaisy//src/per/dac.h ****         DMA,
  50:../../libDaisy//src/per/dac.h ****     };
  51:../../libDaisy//src/per/dac.h **** 
  52:../../libDaisy//src/per/dac.h ****     /** Sets the number of bits per sample transmitted out of the DAC.
  53:../../libDaisy//src/per/dac.h ****      ** The output range will be: 0V - VDDA
  54:../../libDaisy//src/per/dac.h ****      ** The resolution will be roughly: bitdepth / (VDDA - 0V) 
  55:../../libDaisy//src/per/dac.h ****      ***/
  56:../../libDaisy//src/per/dac.h ****     enum class BitDepth
  57:../../libDaisy//src/per/dac.h ****     {
  58:../../libDaisy//src/per/dac.h ****         BITS_8,
  59:../../libDaisy//src/per/dac.h ****         BITS_12
  60:../../libDaisy//src/per/dac.h ****     };
  61:../../libDaisy//src/per/dac.h **** 
  62:../../libDaisy//src/per/dac.h ****     /** Sets whether the DAC output is buffered for higher drive ability. */
  63:../../libDaisy//src/per/dac.h ****     enum class BufferState
  64:../../libDaisy//src/per/dac.h ****     {
  65:../../libDaisy//src/per/dac.h ****         ENABLED,
  66:../../libDaisy//src/per/dac.h ****         DISABLED,
  67:../../libDaisy//src/per/dac.h ****     };
  68:../../libDaisy//src/per/dac.h **** 
  69:../../libDaisy//src/per/dac.h ****     /** Configuration structure for initializing the DAC structure. */
  70:../../libDaisy//src/per/dac.h ****     struct Config
  71:../../libDaisy//src/per/dac.h ****     {
  72:../../libDaisy//src/per/dac.h ****         /** Target Samplerate in Hz used to configure the internal 
  73:../../libDaisy//src/per/dac.h ****          ** timebase for DMA mode. Does nothing in POLLING mode.
  74:../../libDaisy//src/per/dac.h ****          ** If the value is 0 at Init time this will default to 48000Hz 
  75:../../libDaisy//src/per/dac.h ****          ** otherwise the driver will attempt meet the target.*/
  76:../../libDaisy//src/per/dac.h ****         uint32_t target_samplerate;
  77:../../libDaisy//src/per/dac.h **** 
  78:../../libDaisy//src/per/dac.h ****         Channel     chn;
  79:../../libDaisy//src/per/dac.h ****         Mode        mode;
  80:../../libDaisy//src/per/dac.h ****         BitDepth    bitdepth;
  81:../../libDaisy//src/per/dac.h ****         BufferState buff_state;
  82:../../libDaisy//src/per/dac.h ****     };
  83:../../libDaisy//src/per/dac.h **** 
  84:../../libDaisy//src/per/dac.h ****     DacHandle() : pimpl_(nullptr) {}
 2976              		.loc 18 84 5 is_stmt 1 view .LVU825
 2977              	.LBB819:
 2978              	.LBB820:
 2979              		.loc 18 84 33 is_stmt 0 view .LVU826
 2980 0010 0562     		str	r5, [r0, #32]
ARM GAS  C:\Users\danst\AppData\Local\Temp\cczkfCFF.s 			page 99


 2981              	.LVL209:
 2982              		.loc 18 84 33 view .LVU827
 2983              	.LBE820:
 2984              	.LBE819:
 2985              	.LBE818:
 2986              	.LBB821:
 2987              	.LBI821:
  40:../../libDaisy//src/hid/usb.h **** 
 2988              		.loc 4 40 5 is_stmt 1 view .LVU828
  40:../../libDaisy//src/hid/usb.h **** 
 2989              		.loc 4 40 5 is_stmt 0 view .LVU829
 2990              	.LBE821:
 2991              	.LBB822:
 2992              	.LBI822:
  77:../../libDaisy//src/sys/system.h ****     ~System() {}
 2993              		.loc 3 77 5 is_stmt 1 view .LVU830
  77:../../libDaisy//src/sys/system.h ****     ~System() {}
 2994              		.loc 3 77 5 is_stmt 0 view .LVU831
 2995              	.LBE822:
 2996              	.LBE824:
 2997              	.LBE826:
   8:2Cats1Bag.cpp **** DaisySeed hw;
 2998              		.loc 12 8 11 view .LVU832
 2999 0012 FFF7FEFF 		bl	__aeabi_atexit
 3000              	.LVL210:
 3001              	.LBB827:
 3002              	.LBI827:
  84:../../libDaisy//src/hid/midi.h ****     ~MidiHandler() {}
 3003              		.loc 10 84 5 is_stmt 1 view .LVU833
 3004              	.LBB828:
 3005              	.LBB829:
 3006              	.LBB830:
 3007              	.LBI830:
 3008              		.file 19 "../../libDaisy//src/per/uart.h"
   1:../../libDaisy//src/per/uart.h **** /* 
   2:../../libDaisy//src/per/uart.h **** TODO
   3:../../libDaisy//src/per/uart.h **** - UART1 defaults to DMA, add flexible config for DMA on all periphs
   4:../../libDaisy//src/per/uart.h **** - Transmit function improvements.
   5:../../libDaisy//src/per/uart.h **** - Overflow handling, etc. for Rx Queue.
   6:../../libDaisy//src/per/uart.h **** */
   7:../../libDaisy//src/per/uart.h **** 
   8:../../libDaisy//src/per/uart.h **** #pragma once
   9:../../libDaisy//src/per/uart.h **** #ifndef DSY_UART_H
  10:../../libDaisy//src/per/uart.h **** #define DSY_UART_H /**< macro */
  11:../../libDaisy//src/per/uart.h **** #include "daisy_core.h"
  12:../../libDaisy//src/per/uart.h **** 
  13:../../libDaisy//src/per/uart.h **** 
  14:../../libDaisy//src/per/uart.h **** namespace daisy
  15:../../libDaisy//src/per/uart.h **** {
  16:../../libDaisy//src/per/uart.h **** /** @addtogroup serial
  17:../../libDaisy//src/per/uart.h ****     @{
  18:../../libDaisy//src/per/uart.h ****     */
  19:../../libDaisy//src/per/uart.h **** 
  20:../../libDaisy//src/per/uart.h **** /** 
  21:../../libDaisy//src/per/uart.h ****     Uart Peripheral
  22:../../libDaisy//src/per/uart.h ****     @author shensley
  23:../../libDaisy//src/per/uart.h ****     @date March 2020
ARM GAS  C:\Users\danst\AppData\Local\Temp\cczkfCFF.s 			page 100


  24:../../libDaisy//src/per/uart.h ****     */
  25:../../libDaisy//src/per/uart.h **** class UartHandler
  26:../../libDaisy//src/per/uart.h **** {
  27:../../libDaisy//src/per/uart.h ****   public:
  28:../../libDaisy//src/per/uart.h ****     struct Config
  29:../../libDaisy//src/per/uart.h ****     {
  30:../../libDaisy//src/per/uart.h ****         enum class Peripheral
  31:../../libDaisy//src/per/uart.h ****         {
  32:../../libDaisy//src/per/uart.h ****             USART_1,
  33:../../libDaisy//src/per/uart.h ****             USART_2,
  34:../../libDaisy//src/per/uart.h ****             USART_3,
  35:../../libDaisy//src/per/uart.h ****             UART_4,
  36:../../libDaisy//src/per/uart.h ****             UART_5,
  37:../../libDaisy//src/per/uart.h ****             USART_6,
  38:../../libDaisy//src/per/uart.h ****             UART_7,
  39:../../libDaisy//src/per/uart.h ****             UART_8,
  40:../../libDaisy//src/per/uart.h ****             LPUART_1,
  41:../../libDaisy//src/per/uart.h ****         };
  42:../../libDaisy//src/per/uart.h **** 
  43:../../libDaisy//src/per/uart.h ****         enum class StopBits
  44:../../libDaisy//src/per/uart.h ****         {
  45:../../libDaisy//src/per/uart.h ****             BITS_0_5,
  46:../../libDaisy//src/per/uart.h ****             BITS_1,
  47:../../libDaisy//src/per/uart.h ****             BITS_1_5,
  48:../../libDaisy//src/per/uart.h ****             BITS_2,
  49:../../libDaisy//src/per/uart.h ****         };
  50:../../libDaisy//src/per/uart.h **** 
  51:../../libDaisy//src/per/uart.h ****         enum class Parity
  52:../../libDaisy//src/per/uart.h ****         {
  53:../../libDaisy//src/per/uart.h ****             NONE,
  54:../../libDaisy//src/per/uart.h ****             EVEN,
  55:../../libDaisy//src/per/uart.h ****             ODD,
  56:../../libDaisy//src/per/uart.h ****         };
  57:../../libDaisy//src/per/uart.h **** 
  58:../../libDaisy//src/per/uart.h ****         enum class Mode
  59:../../libDaisy//src/per/uart.h ****         {
  60:../../libDaisy//src/per/uart.h ****             RX,
  61:../../libDaisy//src/per/uart.h ****             TX,
  62:../../libDaisy//src/per/uart.h ****             TX_RX,
  63:../../libDaisy//src/per/uart.h ****         };
  64:../../libDaisy//src/per/uart.h **** 
  65:../../libDaisy//src/per/uart.h ****         enum class WordLength
  66:../../libDaisy//src/per/uart.h ****         {
  67:../../libDaisy//src/per/uart.h ****             BITS_7,
  68:../../libDaisy//src/per/uart.h ****             BITS_8,
  69:../../libDaisy//src/per/uart.h ****             BITS_9,
  70:../../libDaisy//src/per/uart.h ****         };
  71:../../libDaisy//src/per/uart.h **** 
  72:../../libDaisy//src/per/uart.h ****         struct
  73:../../libDaisy//src/per/uart.h ****         {
  74:../../libDaisy//src/per/uart.h ****             dsy_gpio_pin tx; /**< & */
  75:../../libDaisy//src/per/uart.h ****             dsy_gpio_pin rx; /**< & */
  76:../../libDaisy//src/per/uart.h ****         } pin_config;        /**< & */
  77:../../libDaisy//src/per/uart.h **** 
  78:../../libDaisy//src/per/uart.h ****         Config()
  79:../../libDaisy//src/per/uart.h ****         {
  80:../../libDaisy//src/per/uart.h ****             // user must init periph, pin_config, and periph
ARM GAS  C:\Users\danst\AppData\Local\Temp\cczkfCFF.s 			page 101


  81:../../libDaisy//src/per/uart.h ****             stopbits   = StopBits::BITS_1;
  82:../../libDaisy//src/per/uart.h ****             parity     = Parity::NONE;
  83:../../libDaisy//src/per/uart.h ****             wordlength = WordLength::BITS_8;
  84:../../libDaisy//src/per/uart.h ****             baudrate   = 4800;
  85:../../libDaisy//src/per/uart.h ****         }
  86:../../libDaisy//src/per/uart.h **** 
  87:../../libDaisy//src/per/uart.h ****         Peripheral periph;
  88:../../libDaisy//src/per/uart.h ****         StopBits   stopbits;
  89:../../libDaisy//src/per/uart.h ****         Parity     parity;
  90:../../libDaisy//src/per/uart.h ****         Mode       mode;
  91:../../libDaisy//src/per/uart.h ****         WordLength wordlength;
  92:../../libDaisy//src/per/uart.h ****         uint32_t   baudrate;
  93:../../libDaisy//src/per/uart.h ****     };
  94:../../libDaisy//src/per/uart.h **** 
  95:../../libDaisy//src/per/uart.h **** 
  96:../../libDaisy//src/per/uart.h ****     UartHandler() : pimpl_(nullptr) {}
 3009              		.loc 19 96 5 view .LVU834
 3010              		.loc 19 96 5 is_stmt 0 view .LVU835
 3011              	.LBE830:
 3012              	.LBB835:
 3013              	.LBI835:
  21:../../libDaisy//src/util/ringbuffer.h **** 
 3014              		.loc 14 21 5 is_stmt 1 view .LVU836
  21:../../libDaisy//src/util/ringbuffer.h **** 
 3015              		.loc 14 21 5 is_stmt 0 view .LVU837
 3016              	.LBE835:
 3017              	.LBB836:
 3018              	.LBI836:
  19:../../libDaisy//src/hid/usb_midi.h **** 
  20:../../libDaisy//src/hid/usb_midi.h ****     struct Config
  21:../../libDaisy//src/hid/usb_midi.h ****     {
  22:../../libDaisy//src/hid/usb_midi.h ****         enum Periph
  23:../../libDaisy//src/hid/usb_midi.h ****         {
  24:../../libDaisy//src/hid/usb_midi.h ****             INTERNAL = 0,
  25:../../libDaisy//src/hid/usb_midi.h ****             EXTERNAL
  26:../../libDaisy//src/hid/usb_midi.h ****         };
  27:../../libDaisy//src/hid/usb_midi.h **** 
  28:../../libDaisy//src/hid/usb_midi.h ****         Periph periph;
  29:../../libDaisy//src/hid/usb_midi.h ****     };
  30:../../libDaisy//src/hid/usb_midi.h **** 
  31:../../libDaisy//src/hid/usb_midi.h ****     void Init(Config config);
  32:../../libDaisy//src/hid/usb_midi.h **** 
  33:../../libDaisy//src/hid/usb_midi.h ****     void    StartRx();
  34:../../libDaisy//src/hid/usb_midi.h ****     size_t  Readable();
  35:../../libDaisy//src/hid/usb_midi.h ****     uint8_t Rx();
  36:../../libDaisy//src/hid/usb_midi.h ****     bool    RxActive();
  37:../../libDaisy//src/hid/usb_midi.h ****     void    FlushRx();
  38:../../libDaisy//src/hid/usb_midi.h ****     void    Tx(uint8_t* buffer, size_t size);
  39:../../libDaisy//src/hid/usb_midi.h **** 
  40:../../libDaisy//src/hid/usb_midi.h ****     class Impl;
  41:../../libDaisy//src/hid/usb_midi.h **** 
  42:../../libDaisy//src/hid/usb_midi.h ****     MidiUsbTransport() : pimpl_(nullptr) {}
 3019              		.loc 11 42 5 is_stmt 1 view .LVU838
 3020              		.loc 11 42 5 is_stmt 0 view .LVU839
 3021              	.LBE836:
 3022              	.LBB841:
 3023              	.LBB831:
ARM GAS  C:\Users\danst\AppData\Local\Temp\cczkfCFF.s 			page 102


 3024              	.LBB832:
 3025              		.loc 19 96 35 view .LVU840
 3026 0016 1D48     		ldr	r0, .L126+12
 3027              	.LBE832:
 3028              	.LBE831:
 3029              	.LBE841:
 3030              	.LBE829:
  84:../../libDaisy//src/hid/midi.h ****     ~MidiHandler() {}
 3031              		.loc 10 84 5 view .LVU841
 3032 0018 1D49     		ldr	r1, .L126+16
 3033 001a 4FF60F02 		movw	r2, #63503
 3034              	.LBB845:
 3035              	.LBB842:
 3036              	.LBB837:
 3037              	.LBB838:
 3038              		.loc 11 42 40 view .LVU842
 3039 001e 00F51043 		add	r3, r0, #36864
 3040              	.LBE838:
 3041              	.LBE837:
 3042              	.LBE842:
 3043              	.LBB843:
 3044              	.LBB834:
 3045              	.LBB833:
 3046              		.loc 19 96 35 view .LVU843
 3047 0022 0560     		str	r5, [r0]
 3048              	.LBE833:
 3049              	.LBE834:
 3050              	.LBE843:
 3051              	.LBB844:
 3052              	.LBB840:
 3053              	.LBB839:
 3054              		.loc 11 42 40 view .LVU844
 3055 0024 C3F8A850 		str	r5, [r3, #168]
 3056              	.LBE839:
 3057              	.LBE840:
 3058              	.LBE844:
  84:../../libDaisy//src/hid/midi.h ****     ~MidiHandler() {}
 3059              		.loc 10 84 19 view .LVU845
 3060 0028 0725     		movs	r5, #7
 3061              	.LBE845:
  84:../../libDaisy//src/hid/midi.h ****     ~MidiHandler() {}
 3062              		.loc 10 84 5 view .LVU846
 3063 002a C3F8AC10 		str	r1, [r3, #172]
 3064 002e A3F8B020 		strh	r2, [r3, #176]	@ movhi
 3065              	.LBE828:
 3066              	.LBE827:
   9:2Cats1Bag.cpp **** MidiUsbHandler midi;
 3067              		.loc 12 9 16 view .LVU847
 3068 0032 2246     		mov	r2, r4
 3069              	.LBB848:
 3070              	.LBB847:
 3071              	.LBB846:
  84:../../libDaisy//src/hid/midi.h ****     ~MidiHandler() {}
 3072              		.loc 10 84 19 view .LVU848
 3073 0034 83F8B250 		strb	r5, [r3, #178]
 3074              	.LVL211:
  84:../../libDaisy//src/hid/midi.h ****     ~MidiHandler() {}
ARM GAS  C:\Users\danst\AppData\Local\Temp\cczkfCFF.s 			page 103


 3075              		.loc 10 84 19 view .LVU849
 3076              	.LBE846:
 3077              	.LBE847:
 3078              	.LBE848:
   9:2Cats1Bag.cpp **** MidiUsbHandler midi;
 3079              		.loc 12 9 16 view .LVU850
 3080 0038 1649     		ldr	r1, .L126+20
 3081 003a FFF7FEFF 		bl	__aeabi_atexit
 3082              	.LVL212:
 3083              	.LBB849:
 3084              	.LBI849:
  15:../../DaisySP//Source/Synthesis/oscillator.h ****     ~Oscillator() {}
 3085              		.loc 7 15 5 is_stmt 1 view .LVU851
  15:../../DaisySP//Source/Synthesis/oscillator.h ****     ~Oscillator() {}
 3086              		.loc 7 15 5 is_stmt 0 view .LVU852
 3087              	.LBE849:
  10:2Cats1Bag.cpp **** Oscillator modulator;
 3088              		.loc 12 10 12 view .LVU853
 3089 003e 2246     		mov	r2, r4
 3090 0040 1549     		ldr	r1, .L126+24
 3091 0042 1648     		ldr	r0, .L126+28
 3092 0044 FFF7FEFF 		bl	__aeabi_atexit
 3093              	.LVL213:
 3094              	.LBB850:
 3095              	.LBI850:
  24:../../DaisySP//Source/Synthesis/variableshapeosc.h ****     ~VariableShapeOscillator() {}
 3096              		.loc 8 24 5 is_stmt 1 view .LVU854
  24:../../DaisySP//Source/Synthesis/variableshapeosc.h ****     ~VariableShapeOscillator() {}
 3097              		.loc 8 24 5 is_stmt 0 view .LVU855
 3098              	.LBE850:
  48:2Cats1Bag.cpp **** Switch primaryWaveSelectButton, 
 3099              		.loc 12 48 8 view .LVU856
 3100 0048 154D     		ldr	r5, .L126+32
  11:2Cats1Bag.cpp **** VariableShapeOscillator primary;
 3101              		.loc 12 11 25 view .LVU857
 3102 004a 2246     		mov	r2, r4
 3103 004c 1549     		ldr	r1, .L126+36
 3104 004e 1648     		ldr	r0, .L126+40
 3105 0050 FFF7FEFF 		bl	__aeabi_atexit
 3106              	.LVL214:
 3107              	.LBB851:
 3108              	.LBI851:
  19:wavefolder.h  ****         ~Wavefolder(){}
 3109              		.loc 9 19 9 is_stmt 1 view .LVU858
  19:wavefolder.h  ****         ~Wavefolder(){}
 3110              		.loc 9 19 9 is_stmt 0 view .LVU859
 3111              	.LBE851:
  12:2Cats1Bag.cpp **** Wavefolder fold;
 3112              		.loc 12 12 12 view .LVU860
 3113 0054 2246     		mov	r2, r4
 3114 0056 1549     		ldr	r1, .L126+44
 3115 0058 1548     		ldr	r0, .L126+48
 3116 005a FFF7FEFF 		bl	__aeabi_atexit
 3117              	.LVL215:
 3118              	.LBB852:
 3119              	.LBI852:
  41:../../libDaisy//src/hid/switch.h ****     ~Switch() {}
ARM GAS  C:\Users\danst\AppData\Local\Temp\cczkfCFF.s 			page 104


 3120              		.loc 1 41 5 is_stmt 1 view .LVU861
  41:../../libDaisy//src/hid/switch.h ****     ~Switch() {}
 3121              		.loc 1 41 5 is_stmt 0 view .LVU862
 3122              	.LBE852:
  48:2Cats1Bag.cpp **** Switch primaryWaveSelectButton, 
 3123              		.loc 12 48 8 view .LVU863
 3124 005e 2246     		mov	r2, r4
 3125 0060 2946     		mov	r1, r5
 3126 0062 1448     		ldr	r0, .L126+52
 3127 0064 FFF7FEFF 		bl	__aeabi_atexit
 3128              	.LVL216:
 3129              	.LBB853:
 3130              	.LBI853:
  41:../../libDaisy//src/hid/switch.h ****     ~Switch() {}
 3131              		.loc 1 41 5 is_stmt 1 view .LVU864
  41:../../libDaisy//src/hid/switch.h ****     ~Switch() {}
 3132              		.loc 1 41 5 is_stmt 0 view .LVU865
 3133              	.LBE853:
  49:2Cats1Bag.cpp **** 	modulatorWaveSelectButton, 
 3134              		.loc 12 49 2 view .LVU866
 3135 0068 2246     		mov	r2, r4
 3136 006a 2946     		mov	r1, r5
 3137 006c 1248     		ldr	r0, .L126+56
 3138 006e FFF7FEFF 		bl	__aeabi_atexit
 3139              	.LVL217:
 3140              	.LBB854:
 3141              	.LBI854:
  41:../../libDaisy//src/hid/switch.h ****     ~Switch() {}
 3142              		.loc 1 41 5 is_stmt 1 view .LVU867
  41:../../libDaisy//src/hid/switch.h ****     ~Switch() {}
 3143              		.loc 1 41 5 is_stmt 0 view .LVU868
 3144              	.LBE854:
  50:2Cats1Bag.cpp **** 	modulatorRangeSelectButton;
 3145              		.loc 12 50 2 view .LVU869
 3146 0072 2246     		mov	r2, r4
 3147 0074 2946     		mov	r1, r5
 3148 0076 1148     		ldr	r0, .L126+60
 3149              	.LBE855:
 3150              	.LBE857:
 3151              		.loc 12 220 1 view .LVU870
 3152 0078 BDE83840 		pop	{r3, r4, r5, lr}
 3153              		.cfi_restore 14
 3154              		.cfi_restore 5
 3155              		.cfi_restore 4
 3156              		.cfi_restore 3
 3157              		.cfi_def_cfa_offset 0
 3158              	.LBB858:
 3159              	.LBB856:
  50:2Cats1Bag.cpp **** 	modulatorRangeSelectButton;
 3160              		.loc 12 50 2 view .LVU871
 3161 007c FFF7FEBF 		b	__aeabi_atexit
 3162              	.LVL218:
 3163              	.L127:
 3164              		.align	2
 3165              	.L126:
 3166 0080 00000000 		.word	.LANCHOR6
 3167 0084 00000000 		.word	__dso_handle
ARM GAS  C:\Users\danst\AppData\Local\Temp\cczkfCFF.s 			page 105


 3168 0088 00000000 		.word	_ZN5daisy9DaisySeedD1Ev
 3169 008c 00000000 		.word	midi
 3170 0090 80707FF0 		.word	-260083584
 3171 0094 00000000 		.word	_ZN5daisy11MidiHandlerINS_16MidiUsbTransportEED1Ev
 3172 0098 00000000 		.word	_ZN7daisysp10OscillatorD1Ev
 3173 009c 00000000 		.word	.LANCHOR0
 3174 00a0 00000000 		.word	_ZN5daisy6SwitchD1Ev
 3175 00a4 00000000 		.word	_ZN7daisysp23VariableShapeOscillatorD1Ev
 3176 00a8 00000000 		.word	.LANCHOR3
 3177 00ac 00000000 		.word	_ZN7daisysp10WavefolderD1Ev
 3178 00b0 00000000 		.word	.LANCHOR5
 3179 00b4 00000000 		.word	.LANCHOR19
 3180 00b8 00000000 		.word	.LANCHOR18
 3181 00bc 00000000 		.word	.LANCHOR15
 3182              	.LBE856:
 3183              	.LBE858:
 3184              		.cfi_endproc
 3185              	.LFE5012:
 3187              		.section	.init_array,"aw",%init_array
 3188              		.align	2
 3189 0000 00000000 		.word	_GLOBAL__sub_I_hw(target1)
 3190              		.global	modulatorRangeSelectButton
 3191              		.global	modulatorWaveSelectButton
 3192              		.global	primaryWaveSelectButton
 3193              		.global	modulatorMidiNote
 3194              		.global	primaryMidiNote
 3195              		.global	twoSemitonesRatio
 3196              		.global	folderSymmetryAdjust
 3197              		.global	folderTimbreAdjust
 3198              		.global	primaryWaveshapeAdjust
 3199              		.global	primaryFrequency
 3200              		.global	primaryFinePitchAdjust
 3201              		.global	primaryCoarsePitchAdjust
 3202              		.global	modulatorFrequency
 3203              		.global	modulatorFinePitchAdjust
 3204              		.global	modulatorCoarsePitchAdjust
 3205              		.global	modulatorFrequencyModAmountAdjust
 3206              		.global	fold
 3207              		.global	primary
 3208              		.global	modulator
 3209              		.global	midi
 3210              		.global	hw
 3211              		.section	.bss.fold,"aw",%nobits
 3212              		.align	2
 3213              		.set	.LANCHOR5,. + 0
 3216              	fold:
 3217 0000 00000000 		.space	4
 3218              		.section	.bss.folderSymmetryAdjust,"aw",%nobits
 3219              		.align	2
 3220              		.set	.LANCHOR4,. + 0
 3223              	folderSymmetryAdjust:
 3224 0000 00000000 		.space	4
 3225              		.section	.bss.folderTimbreAdjust,"aw",%nobits
 3226              		.align	2
 3227              		.set	.LANCHOR12,. + 0
 3230              	folderTimbreAdjust:
 3231 0000 00000000 		.space	4
ARM GAS  C:\Users\danst\AppData\Local\Temp\cczkfCFF.s 			page 106


 3232              		.section	.bss.hw,"aw",%nobits
 3233              		.align	2
 3234              		.set	.LANCHOR6,. + 0
 3237              	hw:
 3238 0000 00000000 		.space	60
 3238      00000000 
 3238      00000000 
 3238      00000000 
 3238      00000000 
 3239              		.section	.bss.midi,"aw",%nobits
 3240              		.align	2
 3243              	midi:
 3244 0000 00000000 		.space	37044
 3244      00000000 
 3244      00000000 
 3244      00000000 
 3244      00000000 
 3245              		.section	.bss.modulator,"aw",%nobits
 3246              		.align	2
 3247              		.set	.LANCHOR0,. + 0
 3250              	modulator:
 3251 0000 00000000 		.space	48
 3251      00000000 
 3251      00000000 
 3251      00000000 
 3251      00000000 
 3252              		.section	.bss.modulatorCoarsePitchAdjust,"aw",%nobits
 3253              		.align	2
 3254              		.set	.LANCHOR7,. + 0
 3257              	modulatorCoarsePitchAdjust:
 3258 0000 00000000 		.space	4
 3259              		.section	.bss.modulatorFinePitchAdjust,"aw",%nobits
 3260              		.align	2
 3261              		.set	.LANCHOR8,. + 0
 3264              	modulatorFinePitchAdjust:
 3265 0000 00000000 		.space	4
 3266              		.section	.bss.modulatorFrequency,"aw",%nobits
 3267              		.align	2
 3268              		.set	.LANCHOR17,. + 0
 3271              	modulatorFrequency:
 3272 0000 00000000 		.space	4
 3273              		.section	.bss.modulatorFrequencyModAmountAdjust,"aw",%nobits
 3274              		.align	2
 3275              		.set	.LANCHOR1,. + 0
 3278              	modulatorFrequencyModAmountAdjust:
 3279 0000 00000000 		.space	4
 3280              		.section	.bss.modulatorRangeSelectButton,"aw",%nobits
 3281              		.align	2
 3282              		.set	.LANCHOR15,. + 0
 3285              	modulatorRangeSelectButton:
 3286 0000 00000000 		.space	16
 3286      00000000 
 3286      00000000 
 3286      00000000 
 3287              		.section	.bss.modulatorWaveSelectButton,"aw",%nobits
 3288              		.align	2
 3289              		.set	.LANCHOR18,. + 0
ARM GAS  C:\Users\danst\AppData\Local\Temp\cczkfCFF.s 			page 107


 3292              	modulatorWaveSelectButton:
 3293 0000 00000000 		.space	16
 3293      00000000 
 3293      00000000 
 3293      00000000 
 3294              		.section	.bss.primary,"aw",%nobits
 3295              		.align	2
 3296              		.set	.LANCHOR3,. + 0
 3299              	primary:
 3300 0000 00000000 		.space	44
 3300      00000000 
 3300      00000000 
 3300      00000000 
 3300      00000000 
 3301              		.section	.bss.primaryCoarsePitchAdjust,"aw",%nobits
 3302              		.align	2
 3303              		.set	.LANCHOR9,. + 0
 3306              	primaryCoarsePitchAdjust:
 3307 0000 00000000 		.space	4
 3308              		.section	.bss.primaryFinePitchAdjust,"aw",%nobits
 3309              		.align	2
 3310              		.set	.LANCHOR10,. + 0
 3313              	primaryFinePitchAdjust:
 3314 0000 00000000 		.space	4
 3315              		.section	.bss.primaryFrequency,"aw",%nobits
 3316              		.align	2
 3317              		.set	.LANCHOR2,. + 0
 3320              	primaryFrequency:
 3321 0000 00000000 		.space	4
 3322              		.section	.bss.primaryWaveSelectButton,"aw",%nobits
 3323              		.align	2
 3324              		.set	.LANCHOR19,. + 0
 3327              	primaryWaveSelectButton:
 3328 0000 00000000 		.space	16
 3328      00000000 
 3328      00000000 
 3328      00000000 
 3329              		.section	.bss.primaryWaveshapeAdjust,"aw",%nobits
 3330              		.align	2
 3331              		.set	.LANCHOR11,. + 0
 3334              	primaryWaveshapeAdjust:
 3335 0000 00000000 		.space	4
 3336              		.section	.data.modulatorMidiNote,"aw"
 3337              		.align	2
 3338              		.set	.LANCHOR16,. + 0
 3341              	modulatorMidiNote:
 3342 0000 18000000 		.word	24
 3343              		.section	.data.primaryMidiNote,"aw"
 3344              		.align	2
 3345              		.set	.LANCHOR13,. + 0
 3348              	primaryMidiNote:
 3349 0000 18000000 		.word	24
 3350              		.section	.data.twoSemitonesRatio,"aw"
 3351              		.align	2
 3352              		.set	.LANCHOR14,. + 0
 3355              	twoSemitonesRatio:
 3356 0000 7A8FF33D 		.word	1039372154
ARM GAS  C:\Users\danst\AppData\Local\Temp\cczkfCFF.s 			page 108


 3357              		.text
 3358              	.Letext0:
 3359              		.file 20 "c:\\users\\danst\\documents\\daisytoolchain-0.3.3\\windows\\arm-none-eabi\\include\\mach
 3360              		.file 21 "c:\\users\\danst\\documents\\daisytoolchain-0.3.3\\windows\\arm-none-eabi\\include\\sys\
 3361              		.file 22 "c:\\users\\danst\\documents\\daisytoolchain-0.3.3\\windows\\arm-none-eabi\\include\\stdi
 3362              		.file 23 "c:\\users\\danst\\documents\\daisytoolchain-0.3.3\\windows\\lib\\gcc\\arm-none-eabi\\10.
 3363              		.file 24 "c:\\users\\danst\\documents\\daisytoolchain-0.3.3\\windows\\arm-none-eabi\\include\\c++\
 3364              		.file 25 "c:\\users\\danst\\documents\\daisytoolchain-0.3.3\\windows\\arm-none-eabi\\include\\c++\
 3365              		.file 26 "c:\\users\\danst\\documents\\daisytoolchain-0.3.3\\windows\\arm-none-eabi\\include\\c++\
 3366              		.file 27 "c:\\users\\danst\\documents\\daisytoolchain-0.3.3\\windows\\arm-none-eabi\\include\\c++\
 3367              		.file 28 "c:\\users\\danst\\documents\\daisytoolchain-0.3.3\\windows\\arm-none-eabi\\include\\c++\
 3368              		.file 29 "c:\\users\\danst\\documents\\daisytoolchain-0.3.3\\windows\\arm-none-eabi\\include\\c++\
 3369              		.file 30 "c:\\users\\danst\\documents\\daisytoolchain-0.3.3\\windows\\arm-none-eabi\\include\\c++\
 3370              		.file 31 "c:\\users\\danst\\documents\\daisytoolchain-0.3.3\\windows\\arm-none-eabi\\include\\c++\
 3371              		.file 32 "c:\\users\\danst\\documents\\daisytoolchain-0.3.3\\windows\\arm-none-eabi\\include\\c++\
 3372              		.file 33 "c:\\users\\danst\\documents\\daisytoolchain-0.3.3\\windows\\arm-none-eabi\\include\\c++\
 3373              		.file 34 "c:\\users\\danst\\documents\\daisytoolchain-0.3.3\\windows\\arm-none-eabi\\include\\c++\
 3374              		.file 35 "c:\\users\\danst\\documents\\daisytoolchain-0.3.3\\windows\\arm-none-eabi\\include\\c++\
 3375              		.file 36 "c:\\users\\danst\\documents\\daisytoolchain-0.3.3\\windows\\arm-none-eabi\\include\\c++\
 3376              		.file 37 "c:\\users\\danst\\documents\\daisytoolchain-0.3.3\\windows\\arm-none-eabi\\include\\c++\
 3377              		.file 38 "c:\\users\\danst\\documents\\daisytoolchain-0.3.3\\windows\\arm-none-eabi\\include\\c++\
 3378              		.file 39 "c:\\users\\danst\\documents\\daisytoolchain-0.3.3\\windows\\arm-none-eabi\\include\\c++\
 3379              		.file 40 "c:\\users\\danst\\documents\\daisytoolchain-0.3.3\\windows\\arm-none-eabi\\include\\c++\
 3380              		.file 41 "c:\\users\\danst\\documents\\daisytoolchain-0.3.3\\windows\\arm-none-eabi\\include\\c++\
 3381              		.file 42 "c:\\users\\danst\\documents\\daisytoolchain-0.3.3\\windows\\arm-none-eabi\\include\\sys\
 3382              		.file 43 "c:\\users\\danst\\documents\\daisytoolchain-0.3.3\\windows\\arm-none-eabi\\include\\sys\
 3383              		.file 44 "c:\\users\\danst\\documents\\daisytoolchain-0.3.3\\windows\\arm-none-eabi\\include\\sys\
 3384              		.file 45 "c:\\users\\danst\\documents\\daisytoolchain-0.3.3\\windows\\arm-none-eabi\\include\\math
 3385              		.file 46 "c:\\users\\danst\\documents\\daisytoolchain-0.3.3\\windows\\arm-none-eabi\\include\\stdl
 3386              		.file 47 "c:\\users\\danst\\documents\\daisytoolchain-0.3.3\\windows\\arm-none-eabi\\include\\c++\
 3387              		.file 48 "c:\\users\\danst\\documents\\daisytoolchain-0.3.3\\windows\\arm-none-eabi\\include\\c++\
 3388              		.file 49 "../../libDaisy//src/per/tim.h"
 3389              		.file 50 "../../libDaisy//src/per/sai.h"
 3390              		.file 51 "../../libDaisy//src/util/wav_format.h"
 3391              		.file 52 "../../libDaisy//src/dev/max11300.h"
 3392              		.file 53 "../../libDaisy//src/per/gpio.h"
 3393              		.file 54 "../../libDaisy//src/dev/sdram.h"
 3394              		.file 55 "c:\\users\\danst\\documents\\daisytoolchain-0.3.3\\windows\\lib\\gcc\\arm-none-eabi\\10.
 3395              		.file 56 "c:\\users\\danst\\documents\\daisytoolchain-0.3.3\\windows\\arm-none-eabi\\include\\stdi
 3396              		.file 57 "c:\\users\\danst\\documents\\daisytoolchain-0.3.3\\windows\\arm-none-eabi\\include\\stri
 3397              		.file 58 "../../DaisySP//Source/Control/adenv.h"
 3398              		.file 59 "c:\\users\\danst\\documents\\daisytoolchain-0.3.3\\windows\\arm-none-eabi\\include\\wcha
 3399              		.file 60 "c:\\users\\danst\\documents\\daisytoolchain-0.3.3\\windows\\arm-none-eabi\\include\\loca
 3400              		.file 61 "../../libDaisy//src/dev/sr_595.h"
 3401              		.file 62 "<built-in>"
ARM GAS  C:\Users\danst\AppData\Local\Temp\cczkfCFF.s 			page 109


DEFINED SYMBOLS
                            *ABS*:00000000 2Cats1Bag.cpp
C:\Users\danst\AppData\Local\Temp\cczkfCFF.s:17     .text._ZN5daisy6SwitchD2Ev:00000000 $t
C:\Users\danst\AppData\Local\Temp\cczkfCFF.s:26     .text._ZN5daisy6SwitchD2Ev:00000000 _ZN5daisy6SwitchD2Ev
C:\Users\danst\AppData\Local\Temp\cczkfCFF.s:26     .text._ZN5daisy6SwitchD2Ev:00000000 _ZN5daisy6SwitchD1Ev
C:\Users\danst\AppData\Local\Temp\cczkfCFF.s:43     .text._ZN5daisy9DaisySeedD2Ev:00000000 $t
C:\Users\danst\AppData\Local\Temp\cczkfCFF.s:51     .text._ZN5daisy9DaisySeedD2Ev:00000000 _ZN5daisy9DaisySeedD2Ev
C:\Users\danst\AppData\Local\Temp\cczkfCFF.s:51     .text._ZN5daisy9DaisySeedD2Ev:00000000 _ZN5daisy9DaisySeedD1Ev
C:\Users\danst\AppData\Local\Temp\cczkfCFF.s:92     .text._ZN7daisysp10OscillatorD2Ev:00000000 $t
C:\Users\danst\AppData\Local\Temp\cczkfCFF.s:100    .text._ZN7daisysp10OscillatorD2Ev:00000000 _ZN7daisysp10OscillatorD2Ev
C:\Users\danst\AppData\Local\Temp\cczkfCFF.s:100    .text._ZN7daisysp10OscillatorD2Ev:00000000 _ZN7daisysp10OscillatorD1Ev
C:\Users\danst\AppData\Local\Temp\cczkfCFF.s:117    .text._ZN7daisysp23VariableShapeOscillatorD2Ev:00000000 $t
C:\Users\danst\AppData\Local\Temp\cczkfCFF.s:125    .text._ZN7daisysp23VariableShapeOscillatorD2Ev:00000000 _ZN7daisysp23VariableShapeOscillatorD2Ev
C:\Users\danst\AppData\Local\Temp\cczkfCFF.s:125    .text._ZN7daisysp23VariableShapeOscillatorD2Ev:00000000 _ZN7daisysp23VariableShapeOscillatorD1Ev
C:\Users\danst\AppData\Local\Temp\cczkfCFF.s:142    .text._ZN7daisysp10WavefolderD2Ev:00000000 $t
C:\Users\danst\AppData\Local\Temp\cczkfCFF.s:150    .text._ZN7daisysp10WavefolderD2Ev:00000000 _ZN7daisysp10WavefolderD2Ev
C:\Users\danst\AppData\Local\Temp\cczkfCFF.s:150    .text._ZN7daisysp10WavefolderD2Ev:00000000 _ZN7daisysp10WavefolderD1Ev
C:\Users\danst\AppData\Local\Temp\cczkfCFF.s:167    .text._ZN5daisy11MidiHandlerINS_16MidiUsbTransportEED2Ev:00000000 $t
C:\Users\danst\AppData\Local\Temp\cczkfCFF.s:175    .text._ZN5daisy11MidiHandlerINS_16MidiUsbTransportEED2Ev:00000000 _ZN5daisy11MidiHandlerINS_16MidiUsbTransportEED2Ev
C:\Users\danst\AppData\Local\Temp\cczkfCFF.s:175    .text._ZN5daisy11MidiHandlerINS_16MidiUsbTransportEED2Ev:00000000 _ZN5daisy11MidiHandlerINS_16MidiUsbTransportEED1Ev
C:\Users\danst\AppData\Local\Temp\cczkfCFF.s:198    .text._Z13AudioCallbackPKPKfPPfj:00000000 $t
C:\Users\danst\AppData\Local\Temp\cczkfCFF.s:206    .text._Z13AudioCallbackPKPKfPPfj:00000000 _Z13AudioCallbackPKPKfPPfj
C:\Users\danst\AppData\Local\Temp\cczkfCFF.s:439    .text._Z13AudioCallbackPKPKfPPfj:000000ac $d
C:\Users\danst\AppData\Local\Temp\cczkfCFF.s:449    .text._Z11handleKnobsv:00000000 $t
C:\Users\danst\AppData\Local\Temp\cczkfCFF.s:457    .text._Z11handleKnobsv:00000000 _Z11handleKnobsv
C:\Users\danst\AppData\Local\Temp\cczkfCFF.s:560    .text._Z11handleKnobsv:00000078 $d
C:\Users\danst\AppData\Local\Temp\cczkfCFF.s:573    .text._Z19setPrimaryFrequencyv:00000000 $t
C:\Users\danst\AppData\Local\Temp\cczkfCFF.s:581    .text._Z19setPrimaryFrequencyv:00000000 _Z19setPrimaryFrequencyv
C:\Users\danst\AppData\Local\Temp\cczkfCFF.s:805    .text._Z19setPrimaryFrequencyv:0000008c $d
C:\Users\danst\AppData\Local\Temp\cczkfCFF.s:816    .text._Z21setModulatorFrequencyv:00000000 $t
C:\Users\danst\AppData\Local\Temp\cczkfCFF.s:824    .text._Z21setModulatorFrequencyv:00000000 _Z21setModulatorFrequencyv
C:\Users\danst\AppData\Local\Temp\cczkfCFF.s:1174   .text._Z21setModulatorFrequencyv:000000c8 $d
C:\Users\danst\AppData\Local\Temp\cczkfCFF.s:1194   .text._ZN5daisy11MidiHandlerINS_16MidiUsbTransportEE5ParseEh:00000000 $t
C:\Users\danst\AppData\Local\Temp\cczkfCFF.s:1202   .text._ZN5daisy11MidiHandlerINS_16MidiUsbTransportEE5ParseEh:00000000 _ZN5daisy11MidiHandlerINS_16MidiUsbTransportEE5ParseEh
C:\Users\danst\AppData\Local\Temp\cczkfCFF.s:1226   .text._ZN5daisy11MidiHandlerINS_16MidiUsbTransportEE5ParseEh:00000012 $d
C:\Users\danst\AppData\Local\Temp\cczkfCFF.s:1230   .text._ZN5daisy11MidiHandlerINS_16MidiUsbTransportEE5ParseEh:00000016 $t
C:\Users\danst\AppData\Local\Temp\cczkfCFF.s:1807   .text._Z10handleMidiv:00000000 $t
C:\Users\danst\AppData\Local\Temp\cczkfCFF.s:1815   .text._Z10handleMidiv:00000000 _Z10handleMidiv
C:\Users\danst\AppData\Local\Temp\cczkfCFF.s:2089   .text._Z10handleMidiv:000000b8 $d
C:\Users\danst\AppData\Local\Temp\cczkfCFF.s:3243   .bss.midi:00000000 midi
C:\Users\danst\AppData\Local\Temp\cczkfCFF.s:2102   .text.startup.main:00000000 $t
C:\Users\danst\AppData\Local\Temp\cczkfCFF.s:2110   .text.startup.main:00000000 main
C:\Users\danst\AppData\Local\Temp\cczkfCFF.s:2865   .text.startup.main:0000023c $d
C:\Users\danst\AppData\Local\Temp\cczkfCFF.s:2887   .text.startup._GLOBAL__sub_I_hw:00000000 $t
C:\Users\danst\AppData\Local\Temp\cczkfCFF.s:2894   .text.startup._GLOBAL__sub_I_hw:00000000 _GLOBAL__sub_I_hw
C:\Users\danst\AppData\Local\Temp\cczkfCFF.s:3166   .text.startup._GLOBAL__sub_I_hw:00000080 $d
C:\Users\danst\AppData\Local\Temp\cczkfCFF.s:3188   .init_array:00000000 $d
C:\Users\danst\AppData\Local\Temp\cczkfCFF.s:3285   .bss.modulatorRangeSelectButton:00000000 modulatorRangeSelectButton
C:\Users\danst\AppData\Local\Temp\cczkfCFF.s:3292   .bss.modulatorWaveSelectButton:00000000 modulatorWaveSelectButton
C:\Users\danst\AppData\Local\Temp\cczkfCFF.s:3327   .bss.primaryWaveSelectButton:00000000 primaryWaveSelectButton
C:\Users\danst\AppData\Local\Temp\cczkfCFF.s:3341   .data.modulatorMidiNote:00000000 modulatorMidiNote
C:\Users\danst\AppData\Local\Temp\cczkfCFF.s:3348   .data.primaryMidiNote:00000000 primaryMidiNote
C:\Users\danst\AppData\Local\Temp\cczkfCFF.s:3355   .data.twoSemitonesRatio:00000000 twoSemitonesRatio
C:\Users\danst\AppData\Local\Temp\cczkfCFF.s:3223   .bss.folderSymmetryAdjust:00000000 folderSymmetryAdjust
C:\Users\danst\AppData\Local\Temp\cczkfCFF.s:3230   .bss.folderTimbreAdjust:00000000 folderTimbreAdjust
C:\Users\danst\AppData\Local\Temp\cczkfCFF.s:3334   .bss.primaryWaveshapeAdjust:00000000 primaryWaveshapeAdjust
C:\Users\danst\AppData\Local\Temp\cczkfCFF.s:3320   .bss.primaryFrequency:00000000 primaryFrequency
ARM GAS  C:\Users\danst\AppData\Local\Temp\cczkfCFF.s 			page 110


C:\Users\danst\AppData\Local\Temp\cczkfCFF.s:3313   .bss.primaryFinePitchAdjust:00000000 primaryFinePitchAdjust
C:\Users\danst\AppData\Local\Temp\cczkfCFF.s:3306   .bss.primaryCoarsePitchAdjust:00000000 primaryCoarsePitchAdjust
C:\Users\danst\AppData\Local\Temp\cczkfCFF.s:3271   .bss.modulatorFrequency:00000000 modulatorFrequency
C:\Users\danst\AppData\Local\Temp\cczkfCFF.s:3264   .bss.modulatorFinePitchAdjust:00000000 modulatorFinePitchAdjust
C:\Users\danst\AppData\Local\Temp\cczkfCFF.s:3257   .bss.modulatorCoarsePitchAdjust:00000000 modulatorCoarsePitchAdjust
C:\Users\danst\AppData\Local\Temp\cczkfCFF.s:3278   .bss.modulatorFrequencyModAmountAdjust:00000000 modulatorFrequencyModAmountAdjust
C:\Users\danst\AppData\Local\Temp\cczkfCFF.s:3216   .bss.fold:00000000 fold
C:\Users\danst\AppData\Local\Temp\cczkfCFF.s:3299   .bss.primary:00000000 primary
C:\Users\danst\AppData\Local\Temp\cczkfCFF.s:3250   .bss.modulator:00000000 modulator
C:\Users\danst\AppData\Local\Temp\cczkfCFF.s:3237   .bss.hw:00000000 hw
C:\Users\danst\AppData\Local\Temp\cczkfCFF.s:3212   .bss.fold:00000000 $d
C:\Users\danst\AppData\Local\Temp\cczkfCFF.s:3219   .bss.folderSymmetryAdjust:00000000 $d
C:\Users\danst\AppData\Local\Temp\cczkfCFF.s:3226   .bss.folderTimbreAdjust:00000000 $d
C:\Users\danst\AppData\Local\Temp\cczkfCFF.s:3233   .bss.hw:00000000 $d
C:\Users\danst\AppData\Local\Temp\cczkfCFF.s:3240   .bss.midi:00000000 $d
C:\Users\danst\AppData\Local\Temp\cczkfCFF.s:3246   .bss.modulator:00000000 $d
C:\Users\danst\AppData\Local\Temp\cczkfCFF.s:3253   .bss.modulatorCoarsePitchAdjust:00000000 $d
C:\Users\danst\AppData\Local\Temp\cczkfCFF.s:3260   .bss.modulatorFinePitchAdjust:00000000 $d
C:\Users\danst\AppData\Local\Temp\cczkfCFF.s:3267   .bss.modulatorFrequency:00000000 $d
C:\Users\danst\AppData\Local\Temp\cczkfCFF.s:3274   .bss.modulatorFrequencyModAmountAdjust:00000000 $d
C:\Users\danst\AppData\Local\Temp\cczkfCFF.s:3281   .bss.modulatorRangeSelectButton:00000000 $d
C:\Users\danst\AppData\Local\Temp\cczkfCFF.s:3288   .bss.modulatorWaveSelectButton:00000000 $d
C:\Users\danst\AppData\Local\Temp\cczkfCFF.s:3295   .bss.primary:00000000 $d
C:\Users\danst\AppData\Local\Temp\cczkfCFF.s:3302   .bss.primaryCoarsePitchAdjust:00000000 $d
C:\Users\danst\AppData\Local\Temp\cczkfCFF.s:3309   .bss.primaryFinePitchAdjust:00000000 $d
C:\Users\danst\AppData\Local\Temp\cczkfCFF.s:3316   .bss.primaryFrequency:00000000 $d
C:\Users\danst\AppData\Local\Temp\cczkfCFF.s:3323   .bss.primaryWaveSelectButton:00000000 $d
C:\Users\danst\AppData\Local\Temp\cczkfCFF.s:3330   .bss.primaryWaveshapeAdjust:00000000 $d
C:\Users\danst\AppData\Local\Temp\cczkfCFF.s:3337   .data.modulatorMidiNote:00000000 $d
C:\Users\danst\AppData\Local\Temp\cczkfCFF.s:3344   .data.primaryMidiNote:00000000 $d
C:\Users\danst\AppData\Local\Temp\cczkfCFF.s:3351   .data.twoSemitonesRatio:00000000 $d
                           .group:00000000 _ZN5daisy6SwitchD5Ev
                           .group:00000000 _ZN5daisy9DaisySeedD5Ev
                           .group:00000000 _ZN7daisysp10OscillatorD5Ev
                           .group:00000000 _ZN7daisysp23VariableShapeOscillatorD5Ev
                           .group:00000000 _ZN7daisysp10WavefolderD5Ev
                           .group:00000000 _ZN5daisy11MidiHandlerINS_16MidiUsbTransportEED5Ev

UNDEFINED SYMBOLS
_ZN7daisysp10Oscillator7ProcessEv
_ZN7daisysp23VariableShapeOscillator11SetSyncFreqEf
_ZN7daisysp23VariableShapeOscillator7ProcessEv
_ZN7daisysp10Wavefolder7ProcessEf
_ZNK5daisy9AdcHandle8GetFloatEh
powf
_ZN7daisysp10Oscillator12CalcPhaseIncEf
memcpy
_ZN5daisy6System6GetNowEv
_ZN5daisy16MidiUsbTransport2RxEv
_ZN5daisy16MidiUsbTransport8ReadableEv
_ZN5daisy16MidiUsbTransport8RxActiveEv
_ZN5daisy16MidiUsbTransport7FlushRxEv
_ZN5daisy16MidiUsbTransport7StartRxEv
_ZN5daisy9DaisySeed9ConfigureEv
_ZN5daisy9DaisySeed4InitEb
_ZN5daisy9DaisySeed6GetPinEh
_ZN5daisy6Switch4InitE12dsy_gpio_pinf
ARM GAS  C:\Users\danst\AppData\Local\Temp\cczkfCFF.s 			page 111


_ZN5daisy16MidiUsbTransport4InitENS0_6ConfigE
_ZN5daisy9DaisySeed18SetAudioSampleRateENS_9SaiHandle6Config10SampleRateE
_ZN5daisy9DaisySeed15AudioSampleRateEv
_ZN7daisysp23VariableShapeOscillator4InitEf
_ZN5daisy9DaisySeed10StartAudioEPFvPKPKfPPfjE
_ZN5daisy16AdcChannelConfig10InitSingleE12dsy_gpio_pin
_ZN5daisy9AdcHandle4InitEPNS_16AdcChannelConfigEjNS0_12OverSamplingE
_ZN5daisy9AdcHandle5StartEv
_ZN7daisysp23VariableShapeOscillator5SetPWEf
_ZN7daisysp23VariableShapeOscillator12SetWaveshapeEf
_ZN7daisysp10Wavefolder7SetGainEf
_ZN5daisy6System5DelayEm
_ZN5daisy6Switch8DebounceEv
__aeabi_atexit
__dso_handle
