ARM GAS  C:\Users\danst\AppData\Local\Temp\ccAqJ3eO.s 			page 1


   1              		.cpu cortex-m7
   2              		.eabi_attribute 28, 1
   3              		.eabi_attribute 20, 1
   4              		.eabi_attribute 21, 1
   5              		.eabi_attribute 23, 3
   6              		.eabi_attribute 24, 1
   7              		.eabi_attribute 25, 1
   8              		.eabi_attribute 26, 1
   9              		.eabi_attribute 30, 2
  10              		.eabi_attribute 34, 1
  11              		.eabi_attribute 18, 4
  12              		.file	"2Cats1Bag.cpp"
  13              		.text
  14              	.Ltext0:
  15              		.cfi_sections	.debug_frame
  16              		.section	.text._ZN5daisy6SwitchD2Ev,"axG",%progbits,_ZN5daisy6SwitchD5Ev,comdat
  17              		.align	1
  18              		.p2align 2,,3
  19              		.weak	_ZN5daisy6SwitchD2Ev
  20              		.arch armv7e-m
  21              		.syntax unified
  22              		.thumb
  23              		.thumb_func
  24              		.fpu fpv5-d16
  26              	_ZN5daisy6SwitchD2Ev:
  27              	.LVL0:
  28              	.LFB1570:
  29              		.file 1 "../../libDaisy//src/hid/switch.h"
   1:../../libDaisy//src/hid/switch.h **** #pragma once
   2:../../libDaisy//src/hid/switch.h **** #ifndef DSY_SWITCH_H
   3:../../libDaisy//src/hid/switch.h **** #define DSY_SWITCH_H
   4:../../libDaisy//src/hid/switch.h **** #include "daisy_core.h"
   5:../../libDaisy//src/hid/switch.h **** #include "per/gpio.h"
   6:../../libDaisy//src/hid/switch.h **** #include "sys/system.h"
   7:../../libDaisy//src/hid/switch.h **** 
   8:../../libDaisy//src/hid/switch.h **** namespace daisy
   9:../../libDaisy//src/hid/switch.h **** {
  10:../../libDaisy//src/hid/switch.h **** /** 
  11:../../libDaisy//src/hid/switch.h ****     Generic Class for handling momentary/latching switches \n 
  12:../../libDaisy//src/hid/switch.h ****     Inspired/influenced by Mutable Instruments (pichenettes) Switch classes
  13:../../libDaisy//src/hid/switch.h ****     @author Stephen Hensley
  14:../../libDaisy//src/hid/switch.h ****     @date December 2019
  15:../../libDaisy//src/hid/switch.h ****     @ingroup controls
  16:../../libDaisy//src/hid/switch.h **** */
  17:../../libDaisy//src/hid/switch.h **** class Switch
  18:../../libDaisy//src/hid/switch.h **** {
  19:../../libDaisy//src/hid/switch.h ****   public:
  20:../../libDaisy//src/hid/switch.h ****     /** Specifies the expected behavior of the switch */
  21:../../libDaisy//src/hid/switch.h ****     enum Type
  22:../../libDaisy//src/hid/switch.h ****     {
  23:../../libDaisy//src/hid/switch.h ****         TYPE_TOGGLE,    /**< & */
  24:../../libDaisy//src/hid/switch.h ****         TYPE_MOMENTARY, /**< & */
  25:../../libDaisy//src/hid/switch.h ****     };
  26:../../libDaisy//src/hid/switch.h ****     /** Specifies whether the pressed is HIGH or LOW. */
  27:../../libDaisy//src/hid/switch.h ****     enum Polarity
  28:../../libDaisy//src/hid/switch.h ****     {
  29:../../libDaisy//src/hid/switch.h ****         POLARITY_NORMAL,   /**< & */
ARM GAS  C:\Users\danst\AppData\Local\Temp\ccAqJ3eO.s 			page 2


  30:../../libDaisy//src/hid/switch.h ****         POLARITY_INVERTED, /**< & */
  31:../../libDaisy//src/hid/switch.h ****     };
  32:../../libDaisy//src/hid/switch.h **** 
  33:../../libDaisy//src/hid/switch.h ****     /** Specifies whether to use built-in Pull Up/Down resistors to hold button at a given state wh
  34:../../libDaisy//src/hid/switch.h ****     enum Pull
  35:../../libDaisy//src/hid/switch.h ****     {
  36:../../libDaisy//src/hid/switch.h ****         PULL_UP,   /**< & */
  37:../../libDaisy//src/hid/switch.h ****         PULL_DOWN, /**< & */
  38:../../libDaisy//src/hid/switch.h ****         PULL_NONE, /**< & */
  39:../../libDaisy//src/hid/switch.h ****     };
  40:../../libDaisy//src/hid/switch.h **** 
  41:../../libDaisy//src/hid/switch.h ****     Switch() {}
  42:../../libDaisy//src/hid/switch.h ****     ~Switch() {}
  30              		.loc 1 42 5 view -0
  31              		.cfi_startproc
  32              		@ args = 0, pretend = 0, frame = 0
  33              		@ frame_needed = 0, uses_anonymous_args = 0
  34              		@ link register save eliminated.
  35              		.loc 1 42 16 is_stmt 0 view .LVU1
  36 0000 7047     		bx	lr
  37              		.cfi_endproc
  38              	.LFE1570:
  40              		.weak	_ZN5daisy6SwitchD1Ev
  41              		.thumb_set _ZN5daisy6SwitchD1Ev,_ZN5daisy6SwitchD2Ev
  42 0002 00BF     		.section	.text._ZN5daisy9DaisySeedD2Ev,"axG",%progbits,_ZN5daisy9DaisySeedD5Ev,comdat
  43              		.align	1
  44              		.p2align 2,,3
  45              		.weak	_ZN5daisy9DaisySeedD2Ev
  46              		.syntax unified
  47              		.thumb
  48              		.thumb_func
  49              		.fpu fpv5-d16
  51              	_ZN5daisy9DaisySeedD2Ev:
  52              	.LVL1:
  53              	.LFB2167:
  54              		.file 2 "../../libDaisy//src/daisy_seed.h"
   1:../../libDaisy//src/daisy_seed.h **** #pragma once
   2:../../libDaisy//src/daisy_seed.h **** #ifndef DSY_SEED_H
   3:../../libDaisy//src/daisy_seed.h **** #define DSY_SEED_H
   4:../../libDaisy//src/daisy_seed.h **** 
   5:../../libDaisy//src/daisy_seed.h **** #include "daisy.h"
   6:../../libDaisy//src/daisy_seed.h **** 
   7:../../libDaisy//src/daisy_seed.h **** //Uncomment this out if you're still using the rev2 hardware
   8:../../libDaisy//src/daisy_seed.h **** //#define SEED_REV2
   9:../../libDaisy//src/daisy_seed.h **** 
  10:../../libDaisy//src/daisy_seed.h **** namespace daisy
  11:../../libDaisy//src/daisy_seed.h **** {
  12:../../libDaisy//src/daisy_seed.h **** /**
  13:../../libDaisy//src/daisy_seed.h ****    @brief This is the higher-level interface for the Daisy board. \n 
  14:../../libDaisy//src/daisy_seed.h ****     All basic peripheral configuration/initialization is setup here. \n
  15:../../libDaisy//src/daisy_seed.h **** 
  16:../../libDaisy//src/daisy_seed.h ****    @ingroup boards
  17:../../libDaisy//src/daisy_seed.h **** */
  18:../../libDaisy//src/daisy_seed.h **** class DaisySeed
  19:../../libDaisy//src/daisy_seed.h **** {
  20:../../libDaisy//src/daisy_seed.h ****   public:
  21:../../libDaisy//src/daisy_seed.h ****     DaisySeed() {}
ARM GAS  C:\Users\danst\AppData\Local\Temp\ccAqJ3eO.s 			page 3


  22:../../libDaisy//src/daisy_seed.h ****     ~DaisySeed() {}
  55              		.loc 2 22 5 is_stmt 1 view -0
  56              		.cfi_startproc
  57              		@ args = 0, pretend = 0, frame = 0
  58              		@ frame_needed = 0, uses_anonymous_args = 0
  59              		@ link register save eliminated.
  60              	.LBB389:
  61              	.LBI389:
  62              		.file 3 "../../libDaisy//src/sys/system.h"
   1:../../libDaisy//src/sys/system.h **** #ifndef DSY_SYSTEM_H
   2:../../libDaisy//src/sys/system.h **** #define DSY_SYSTEM_H
   3:../../libDaisy//src/sys/system.h **** 
   4:../../libDaisy//src/sys/system.h **** #ifndef UNIT_TEST // for unit tests, a dummy implementation is provided below
   5:../../libDaisy//src/sys/system.h **** 
   6:../../libDaisy//src/sys/system.h **** #include <cstdint>
   7:../../libDaisy//src/sys/system.h **** #include "per/tim.h"
   8:../../libDaisy//src/sys/system.h **** 
   9:../../libDaisy//src/sys/system.h **** namespace daisy
  10:../../libDaisy//src/sys/system.h **** {
  11:../../libDaisy//src/sys/system.h **** /** A handle for interacting with the Core System. 
  12:../../libDaisy//src/sys/system.h ****  ** This includes the Clock tree, MPU, global DMA initialization,
  13:../../libDaisy//src/sys/system.h ****  ** cache handling, and any other necessary global initiailzation
  14:../../libDaisy//src/sys/system.h ****  **
  15:../../libDaisy//src/sys/system.h ****  ** @author shensley
  16:../../libDaisy//src/sys/system.h ****  ** @ingroup system
  17:../../libDaisy//src/sys/system.h ****  */
  18:../../libDaisy//src/sys/system.h **** class System
  19:../../libDaisy//src/sys/system.h **** {
  20:../../libDaisy//src/sys/system.h ****   public:
  21:../../libDaisy//src/sys/system.h ****     /** Contains settings for initializing the System */
  22:../../libDaisy//src/sys/system.h ****     struct Config
  23:../../libDaisy//src/sys/system.h ****     {
  24:../../libDaisy//src/sys/system.h ****         /** Specifies the system clock frequency that feeds APB/AHB clocks, etc. */
  25:../../libDaisy//src/sys/system.h ****         enum class SysClkFreq
  26:../../libDaisy//src/sys/system.h ****         {
  27:../../libDaisy//src/sys/system.h ****             FREQ_400MHZ,
  28:../../libDaisy//src/sys/system.h ****             FREQ_480MHZ,
  29:../../libDaisy//src/sys/system.h ****         };
  30:../../libDaisy//src/sys/system.h **** 
  31:../../libDaisy//src/sys/system.h ****         /** Method to call on the struct to set to defaults
  32:../../libDaisy//src/sys/system.h ****          ** CPU Freq set to 400MHz
  33:../../libDaisy//src/sys/system.h ****          ** Cache Enabled 
  34:../../libDaisy//src/sys/system.h ****          ** */
  35:../../libDaisy//src/sys/system.h ****         void Defaults()
  36:../../libDaisy//src/sys/system.h ****         {
  37:../../libDaisy//src/sys/system.h ****             cpu_freq    = SysClkFreq::FREQ_400MHZ;
  38:../../libDaisy//src/sys/system.h ****             use_dcache  = true;
  39:../../libDaisy//src/sys/system.h ****             use_icache  = true;
  40:../../libDaisy//src/sys/system.h ****             skip_clocks = false;
  41:../../libDaisy//src/sys/system.h ****         }
  42:../../libDaisy//src/sys/system.h **** 
  43:../../libDaisy//src/sys/system.h ****         /** Method to call on the struct to set to boost mode:
  44:../../libDaisy//src/sys/system.h ****          ** CPU Freq set to 480MHz
  45:../../libDaisy//src/sys/system.h ****          ** Cache Enabled 
  46:../../libDaisy//src/sys/system.h ****          ** */
  47:../../libDaisy//src/sys/system.h ****         void Boost()
  48:../../libDaisy//src/sys/system.h ****         {
ARM GAS  C:\Users\danst\AppData\Local\Temp\ccAqJ3eO.s 			page 4


  49:../../libDaisy//src/sys/system.h ****             cpu_freq    = SysClkFreq::FREQ_480MHZ;
  50:../../libDaisy//src/sys/system.h ****             use_dcache  = true;
  51:../../libDaisy//src/sys/system.h ****             use_icache  = true;
  52:../../libDaisy//src/sys/system.h ****             skip_clocks = false;
  53:../../libDaisy//src/sys/system.h ****         }
  54:../../libDaisy//src/sys/system.h **** 
  55:../../libDaisy//src/sys/system.h ****         SysClkFreq cpu_freq;
  56:../../libDaisy//src/sys/system.h ****         bool       use_dcache;
  57:../../libDaisy//src/sys/system.h ****         bool       use_icache;
  58:../../libDaisy//src/sys/system.h ****         bool       skip_clocks;
  59:../../libDaisy//src/sys/system.h ****     };
  60:../../libDaisy//src/sys/system.h **** 
  61:../../libDaisy//src/sys/system.h ****     /** Describes the different regions of memory available to the Daisy
  62:../../libDaisy//src/sys/system.h ****      * 
  63:../../libDaisy//src/sys/system.h ****      */
  64:../../libDaisy//src/sys/system.h ****     enum MemoryRegion
  65:../../libDaisy//src/sys/system.h ****     {
  66:../../libDaisy//src/sys/system.h ****         INTERNAL_FLASH = 0,
  67:../../libDaisy//src/sys/system.h ****         ITCMRAM,
  68:../../libDaisy//src/sys/system.h ****         DTCMRAM,
  69:../../libDaisy//src/sys/system.h ****         SRAM_D1,
  70:../../libDaisy//src/sys/system.h ****         SRAM_D2,
  71:../../libDaisy//src/sys/system.h ****         SRAM_D3,
  72:../../libDaisy//src/sys/system.h ****         SDRAM,
  73:../../libDaisy//src/sys/system.h ****         QSPI,
  74:../../libDaisy//src/sys/system.h ****         INVALID_ADDRESS,
  75:../../libDaisy//src/sys/system.h ****     };
  76:../../libDaisy//src/sys/system.h **** 
  77:../../libDaisy//src/sys/system.h ****     System() {}
  78:../../libDaisy//src/sys/system.h ****     ~System() {}
  63              		.loc 3 78 5 view .LVU3
  64              		.loc 3 78 5 is_stmt 0 view .LVU4
  65              	.LBE389:
  66              	.LBB390:
  67              	.LBI390:
  68              		.file 4 "../../libDaisy//src/hid/usb.h"
   1:../../libDaisy//src/hid/usb.h **** #pragma once
   2:../../libDaisy//src/hid/usb.h **** #ifndef DSY_HID_USB_H
   3:../../libDaisy//src/hid/usb.h **** #define DSY_HID_USB_H
   4:../../libDaisy//src/hid/usb.h **** #include <stdint.h>
   5:../../libDaisy//src/hid/usb.h **** #include <stdlib.h>
   6:../../libDaisy//src/hid/usb.h **** 
   7:../../libDaisy//src/hid/usb.h **** namespace daisy
   8:../../libDaisy//src/hid/usb.h **** /** @addtogroup human_interface
   9:../../libDaisy//src/hid/usb.h ****     @{
  10:../../libDaisy//src/hid/usb.h **** */
  11:../../libDaisy//src/hid/usb.h **** 
  12:../../libDaisy//src/hid/usb.h **** {
  13:../../libDaisy//src/hid/usb.h **** /** 
  14:../../libDaisy//src/hid/usb.h ****     @brief Interface for initializing and using the USB Peripherals on the daisy
  15:../../libDaisy//src/hid/usb.h ****     @author Stephen Hensley
  16:../../libDaisy//src/hid/usb.h ****     @date December 2019
  17:../../libDaisy//src/hid/usb.h **** */
  18:../../libDaisy//src/hid/usb.h **** class UsbHandle
  19:../../libDaisy//src/hid/usb.h **** {
  20:../../libDaisy//src/hid/usb.h ****   public:
  21:../../libDaisy//src/hid/usb.h ****     /** Return values for USBHandle Functions */
ARM GAS  C:\Users\danst\AppData\Local\Temp\ccAqJ3eO.s 			page 5


  22:../../libDaisy//src/hid/usb.h ****     enum class Result
  23:../../libDaisy//src/hid/usb.h ****     {
  24:../../libDaisy//src/hid/usb.h ****         OK,
  25:../../libDaisy//src/hid/usb.h ****         ERR,
  26:../../libDaisy//src/hid/usb.h ****     };
  27:../../libDaisy//src/hid/usb.h **** 
  28:../../libDaisy//src/hid/usb.h ****     /** Specified which of the two USB Peripherals to initialize. */
  29:../../libDaisy//src/hid/usb.h ****     enum UsbPeriph
  30:../../libDaisy//src/hid/usb.h ****     {
  31:../../libDaisy//src/hid/usb.h ****         FS_INTERNAL, /**< Internal pin */
  32:../../libDaisy//src/hid/usb.h ****         FS_EXTERNAL, /**< FS External D+ pin is Pin 38 (GPIO32). FS External D- pin is Pin 37 (GPIO
  33:../../libDaisy//src/hid/usb.h ****         FS_BOTH,     /**< Both */
  34:../../libDaisy//src/hid/usb.h ****     };
  35:../../libDaisy//src/hid/usb.h **** 
  36:../../libDaisy//src/hid/usb.h **** 
  37:../../libDaisy//src/hid/usb.h ****     /** Function called upon reception of a buffer */
  38:../../libDaisy//src/hid/usb.h ****     typedef void (*ReceiveCallback)(uint8_t* buff, uint32_t* len);
  39:../../libDaisy//src/hid/usb.h **** 
  40:../../libDaisy//src/hid/usb.h ****     UsbHandle() {}
  41:../../libDaisy//src/hid/usb.h **** 
  42:../../libDaisy//src/hid/usb.h ****     ~UsbHandle() {}
  69              		.loc 4 42 5 is_stmt 1 view .LVU5
  70              		.loc 4 42 5 is_stmt 0 view .LVU6
  71              	.LBE390:
  72              	.LBB391:
  73              	.LBI391:
  74              		.file 5 "../../libDaisy//src/per/adc.h"
   1:../../libDaisy//src/per/adc.h **** #pragma once
   2:../../libDaisy//src/per/adc.h **** #ifndef DSY_ADC_H
   3:../../libDaisy//src/per/adc.h **** #define DSY_ADC_H /**< Macro */
   4:../../libDaisy//src/per/adc.h **** #include <stdint.h>
   5:../../libDaisy//src/per/adc.h **** #include <stdlib.h>
   6:../../libDaisy//src/per/adc.h **** #include "daisy_core.h"
   7:../../libDaisy//src/per/adc.h **** #include "per/gpio.h"
   8:../../libDaisy//src/per/adc.h **** 
   9:../../libDaisy//src/per/adc.h **** #define DSY_ADC_MAX_CHANNELS 16 /**< Maximum number of ADC channels */
  10:../../libDaisy//src/per/adc.h **** 
  11:../../libDaisy//src/per/adc.h **** namespace daisy
  12:../../libDaisy//src/per/adc.h **** {
  13:../../libDaisy//src/per/adc.h **** /** @addtogroup per_analog
  14:../../libDaisy//src/per/adc.h ****     @{
  15:../../libDaisy//src/per/adc.h **** */
  16:../../libDaisy//src/per/adc.h **** 
  17:../../libDaisy//src/per/adc.h **** /* While there may not be many configuration options here,
  18:../../libDaisy//src/per/adc.h **** using a struct like this allows us to add more configuration
  19:../../libDaisy//src/per/adc.h **** later without breaking existing functionality.
  20:../../libDaisy//src/per/adc.h **** */
  21:../../libDaisy//src/per/adc.h **** 
  22:../../libDaisy//src/per/adc.h **** /** @brief   Configuration Structure for an ADC Channel 
  23:../../libDaisy//src/per/adc.h ****  *  @details This can be used to configure a a single input, 
  24:../../libDaisy//src/per/adc.h ****  *           or a multiplexed input, allowing up to 8 inputs on 
  25:../../libDaisy//src/per/adc.h ****  *           one channel.
  26:../../libDaisy//src/per/adc.h ****  *  @note    Sharing data lines to multiple muxes _is_ possible, but
  27:../../libDaisy//src/per/adc.h ****  *           each channel sharing data lines must be set to the maximum
  28:../../libDaisy//src/per/adc.h ****  *           number of channels, even if some multiplexers have fewer
  29:../../libDaisy//src/per/adc.h ****  *           inputs connected.
  30:../../libDaisy//src/per/adc.h **** */
ARM GAS  C:\Users\danst\AppData\Local\Temp\ccAqJ3eO.s 			page 6


  31:../../libDaisy//src/per/adc.h **** struct AdcChannelConfig
  32:../../libDaisy//src/per/adc.h **** {
  33:../../libDaisy//src/per/adc.h ****     /** Which pin to use for multiplexing */
  34:../../libDaisy//src/per/adc.h ****     enum MuxPin
  35:../../libDaisy//src/per/adc.h ****     {
  36:../../libDaisy//src/per/adc.h ****         MUX_SEL_0,    /**< & */
  37:../../libDaisy//src/per/adc.h ****         MUX_SEL_1,    /**< & */
  38:../../libDaisy//src/per/adc.h ****         MUX_SEL_2,    /**< & */
  39:../../libDaisy//src/per/adc.h ****         MUX_SEL_LAST, /**< & */
  40:../../libDaisy//src/per/adc.h ****     };
  41:../../libDaisy//src/per/adc.h **** 
  42:../../libDaisy//src/per/adc.h ****     /** Initializes a single ADC pin as an ADC. 
  43:../../libDaisy//src/per/adc.h ****     \param pin Pin to init.
  44:../../libDaisy//src/per/adc.h ****      */
  45:../../libDaisy//src/per/adc.h ****     void InitSingle(dsy_gpio_pin pin);
  46:../../libDaisy//src/per/adc.h **** 
  47:../../libDaisy//src/per/adc.h ****     /** 
  48:../../libDaisy//src/per/adc.h ****     Initializes a single ADC pin as a Multiplexed ADC.
  49:../../libDaisy//src/per/adc.h ****     Requires a CD405X Multiplexer connected to the pin.
  50:../../libDaisy//src/per/adc.h ****     You only need to supply the mux pins that are required,
  51:../../libDaisy//src/per/adc.h ****     e.g. a 4052 mux would only require mux_0 and mux_1.
  52:../../libDaisy//src/per/adc.h ****     Internal Callbacks handle the pin addressing.
  53:../../libDaisy//src/per/adc.h ****     \param mux_channels must be 1-8
  54:../../libDaisy//src/per/adc.h ****     \param mux_0 First mux pin
  55:../../libDaisy//src/per/adc.h ****     \param mux_1 Second mux pin
  56:../../libDaisy//src/per/adc.h ****     \param mux_2 Third mux pin
  57:../../libDaisy//src/per/adc.h ****     \param adc_pin &
  58:../../libDaisy//src/per/adc.h ****     */
  59:../../libDaisy//src/per/adc.h ****     void InitMux(dsy_gpio_pin adc_pin,
  60:../../libDaisy//src/per/adc.h ****                  size_t       mux_channels,
  61:../../libDaisy//src/per/adc.h ****                  dsy_gpio_pin mux_0,
  62:../../libDaisy//src/per/adc.h ****                  dsy_gpio_pin mux_1 = {DSY_GPIOX, 0},
  63:../../libDaisy//src/per/adc.h ****                  dsy_gpio_pin mux_2 = {DSY_GPIOX, 0});
  64:../../libDaisy//src/per/adc.h **** 
  65:../../libDaisy//src/per/adc.h ****     dsy_gpio pin_;                   /**< & */
  66:../../libDaisy//src/per/adc.h ****     dsy_gpio mux_pin_[MUX_SEL_LAST]; /**< & */
  67:../../libDaisy//src/per/adc.h ****     uint8_t  mux_channels_;          /**< & */
  68:../../libDaisy//src/per/adc.h **** };
  69:../../libDaisy//src/per/adc.h **** 
  70:../../libDaisy//src/per/adc.h **** /**
  71:../../libDaisy//src/per/adc.h ****    @brief Handler for analog to digital conversion
  72:../../libDaisy//src/per/adc.h **** */
  73:../../libDaisy//src/per/adc.h **** class AdcHandle
  74:../../libDaisy//src/per/adc.h **** {
  75:../../libDaisy//src/per/adc.h ****   public:
  76:../../libDaisy//src/per/adc.h ****     /** Supported oversampling amounts */
  77:../../libDaisy//src/per/adc.h ****     enum OverSampling
  78:../../libDaisy//src/per/adc.h ****     {
  79:../../libDaisy//src/per/adc.h ****         OVS_NONE, /**< & */
  80:../../libDaisy//src/per/adc.h ****         OVS_4,    /**< & */
  81:../../libDaisy//src/per/adc.h ****         OVS_8,    /**< & */
  82:../../libDaisy//src/per/adc.h ****         OVS_16,   /**< & */
  83:../../libDaisy//src/per/adc.h ****         OVS_32,   /**< & */
  84:../../libDaisy//src/per/adc.h ****         OVS_64,   /**< & */
  85:../../libDaisy//src/per/adc.h ****         OVS_128,  /**< & */
  86:../../libDaisy//src/per/adc.h ****         OVS_256,  /**< & */
  87:../../libDaisy//src/per/adc.h ****         OVS_512,  /**< & */
ARM GAS  C:\Users\danst\AppData\Local\Temp\ccAqJ3eO.s 			page 7


  88:../../libDaisy//src/per/adc.h ****         OVS_1024, /**< & */
  89:../../libDaisy//src/per/adc.h ****         OVS_LAST, /**< & */
  90:../../libDaisy//src/per/adc.h ****     };
  91:../../libDaisy//src/per/adc.h **** 
  92:../../libDaisy//src/per/adc.h ****     AdcHandle() {}
  93:../../libDaisy//src/per/adc.h ****     ~AdcHandle() {}
  75              		.loc 5 93 5 is_stmt 1 view .LVU7
  76              		.loc 5 93 5 is_stmt 0 view .LVU8
  77              	.LBE391:
  78              	.LBB392:
  79              	.LBI392:
  80              		.file 6 "../../libDaisy//src/hid/audio.h"
   1:../../libDaisy//src/hid/audio.h **** #ifndef DSY_AUDIO_H
   2:../../libDaisy//src/hid/audio.h **** #define DSY_AUDIO_H /**< & */
   3:../../libDaisy//src/hid/audio.h **** 
   4:../../libDaisy//src/hid/audio.h **** #include "per/sai.h"
   5:../../libDaisy//src/hid/audio.h **** 
   6:../../libDaisy//src/hid/audio.h **** namespace daisy
   7:../../libDaisy//src/hid/audio.h **** {
   8:../../libDaisy//src/hid/audio.h **** /** @brief Audio Engine Handle
   9:../../libDaisy//src/hid/audio.h ****  *  @ingroup audio 
  10:../../libDaisy//src/hid/audio.h ****  *  @details This class allows for higher level access to an audio engine.
  11:../../libDaisy//src/hid/audio.h ****  *           If you're using a SOM like the DaisySeed or DaisyPatchSM (or any 
  12:../../libDaisy//src/hid/audio.h ****  *            board that includes one of those objects) then the intialization
  13:../../libDaisy//src/hid/audio.h ****  *            is already taken  care of.
  14:../../libDaisy//src/hid/audio.h ****  *           If you're setting up your own custom hardware, or need to make changes
  15:../../libDaisy//src/hid/audio.h ****  *           you will have to take the following steps:
  16:../../libDaisy//src/hid/audio.h ****  *             1. Create and Initialize an SaiHandle or two depending on your requirements
  17:../../libDaisy//src/hid/audio.h ****  *             2. Initialize the Audio Handle with the desired settings and the Initialized SaiHand
  18:../../libDaisy//src/hid/audio.h ****  *             3. If the connected codec requires special configuration or initialization, do so
  19:../../libDaisy//src/hid/audio.h ****  *             4. Write a callback method using either the AudioCallback or the InterleavingAudioCa
  20:../../libDaisy//src/hid/audio.h ****  *             5. Start the Audio using one of the StartAudio function
  21:../../libDaisy//src/hid/audio.h ****  */
  22:../../libDaisy//src/hid/audio.h **** class AudioHandle
  23:../../libDaisy//src/hid/audio.h **** {
  24:../../libDaisy//src/hid/audio.h ****   public:
  25:../../libDaisy//src/hid/audio.h ****     /** Manually configurable details about the Audio Engine */
  26:../../libDaisy//src/hid/audio.h ****     /** TODO: Figure out how to get samplerate in here. */
  27:../../libDaisy//src/hid/audio.h ****     struct Config
  28:../../libDaisy//src/hid/audio.h ****     {
  29:../../libDaisy//src/hid/audio.h ****         size_t                        blocksize;
  30:../../libDaisy//src/hid/audio.h ****         SaiHandle::Config::SampleRate samplerate;
  31:../../libDaisy//src/hid/audio.h ****         float                         postgain;
  32:../../libDaisy//src/hid/audio.h ****     };
  33:../../libDaisy//src/hid/audio.h **** 
  34:../../libDaisy//src/hid/audio.h ****     enum class Result
  35:../../libDaisy//src/hid/audio.h ****     {
  36:../../libDaisy//src/hid/audio.h ****         OK,
  37:../../libDaisy//src/hid/audio.h ****         ERR,
  38:../../libDaisy//src/hid/audio.h ****     };
  39:../../libDaisy//src/hid/audio.h **** 
  40:../../libDaisy//src/hid/audio.h ****     /** Non-Interleaving input buffer
  41:../../libDaisy//src/hid/audio.h ****      * Buffer arranged by float[chn][sample] 
  42:../../libDaisy//src/hid/audio.h ****      * const so that the user can't modify the input
  43:../../libDaisy//src/hid/audio.h ****      */
  44:../../libDaisy//src/hid/audio.h ****     typedef const float* const* InputBuffer;
  45:../../libDaisy//src/hid/audio.h **** 
ARM GAS  C:\Users\danst\AppData\Local\Temp\ccAqJ3eO.s 			page 8


  46:../../libDaisy//src/hid/audio.h ****     /** Non-Interleaving output buffer
  47:../../libDaisy//src/hid/audio.h ****      * Arranged by float[chn][sample] 
  48:../../libDaisy//src/hid/audio.h ****      */
  49:../../libDaisy//src/hid/audio.h ****     typedef float** OutputBuffer;
  50:../../libDaisy//src/hid/audio.h **** 
  51:../../libDaisy//src/hid/audio.h ****     /** Type for a Non-Interleaving audio callback 
  52:../../libDaisy//src/hid/audio.h ****      * Non-Interleaving audio callbacks in daisy will be of this type
  53:../../libDaisy//src/hid/audio.h ****      */
  54:../../libDaisy//src/hid/audio.h ****     typedef void (*AudioCallback)(InputBuffer  in,
  55:../../libDaisy//src/hid/audio.h ****                                   OutputBuffer out,
  56:../../libDaisy//src/hid/audio.h ****                                   size_t       size);
  57:../../libDaisy//src/hid/audio.h **** 
  58:../../libDaisy//src/hid/audio.h ****     /** Interleaving Input buffer
  59:../../libDaisy//src/hid/audio.h ****      ** audio is prepared as { L0, R0, L1, R1, . . . LN, RN }]
  60:../../libDaisy//src/hid/audio.h ****      ** this is const, as the user shouldn't modify it
  61:../../libDaisy//src/hid/audio.h ****     */
  62:../../libDaisy//src/hid/audio.h ****     typedef const float* InterleavingInputBuffer;
  63:../../libDaisy//src/hid/audio.h **** 
  64:../../libDaisy//src/hid/audio.h ****     /** Interleaving Output buffer 
  65:../../libDaisy//src/hid/audio.h ****      ** audio is prepared as { L0, R0, L1, R1, . . . LN, RN }
  66:../../libDaisy//src/hid/audio.h ****     */
  67:../../libDaisy//src/hid/audio.h ****     typedef float* InterleavingOutputBuffer;
  68:../../libDaisy//src/hid/audio.h **** 
  69:../../libDaisy//src/hid/audio.h ****     /** Interleaving Audio Callback 
  70:../../libDaisy//src/hid/audio.h ****      * Interleaving audio callbacks in daisy must be of this type
  71:../../libDaisy//src/hid/audio.h ****      */
  72:../../libDaisy//src/hid/audio.h ****     typedef void (*InterleavingAudioCallback)(InterleavingInputBuffer  in,
  73:../../libDaisy//src/hid/audio.h ****                                               InterleavingOutputBuffer out,
  74:../../libDaisy//src/hid/audio.h ****                                               size_t                   size);
  75:../../libDaisy//src/hid/audio.h **** 
  76:../../libDaisy//src/hid/audio.h ****     AudioHandle() : pimpl_(nullptr) {}
  77:../../libDaisy//src/hid/audio.h ****     ~AudioHandle() {}
  81              		.loc 6 77 5 is_stmt 1 view .LVU9
  82              		.loc 6 77 5 is_stmt 0 view .LVU10
  83              	.LBE392:
  84              		.loc 2 22 19 view .LVU11
  85 0000 7047     		bx	lr
  86              		.cfi_endproc
  87              	.LFE2167:
  89              		.weak	_ZN5daisy9DaisySeedD1Ev
  90              		.thumb_set _ZN5daisy9DaisySeedD1Ev,_ZN5daisy9DaisySeedD2Ev
  91 0002 00BF     		.section	.text._ZN7daisysp10OscillatorD2Ev,"axG",%progbits,_ZN7daisysp10OscillatorD5Ev,comdat
  92              		.align	1
  93              		.p2align 2,,3
  94              		.weak	_ZN7daisysp10OscillatorD2Ev
  95              		.syntax unified
  96              		.thumb
  97              		.thumb_func
  98              		.fpu fpv5-d16
 100              	_ZN7daisysp10OscillatorD2Ev:
 101              	.LVL2:
 102              	.LFB3857:
 103              		.file 7 "../../DaisySP//Source/Synthesis/oscillator.h"
   1:../../DaisySP//Source/Synthesis/oscillator.h **** #pragma once
   2:../../DaisySP//Source/Synthesis/oscillator.h **** #ifndef DSY_OSCILLATOR_H
   3:../../DaisySP//Source/Synthesis/oscillator.h **** #define DSY_OSCILLATOR_H
   4:../../DaisySP//Source/Synthesis/oscillator.h **** #include <stdint.h>
ARM GAS  C:\Users\danst\AppData\Local\Temp\ccAqJ3eO.s 			page 9


   5:../../DaisySP//Source/Synthesis/oscillator.h **** #include "Utility/dsp.h"
   6:../../DaisySP//Source/Synthesis/oscillator.h **** #ifdef __cplusplus
   7:../../DaisySP//Source/Synthesis/oscillator.h **** 
   8:../../DaisySP//Source/Synthesis/oscillator.h **** namespace daisysp
   9:../../DaisySP//Source/Synthesis/oscillator.h **** {
  10:../../DaisySP//Source/Synthesis/oscillator.h **** /** Synthesis of several waveforms, including polyBLEP bandlimited waveforms.
  11:../../DaisySP//Source/Synthesis/oscillator.h **** */
  12:../../DaisySP//Source/Synthesis/oscillator.h **** class Oscillator
  13:../../DaisySP//Source/Synthesis/oscillator.h **** {
  14:../../DaisySP//Source/Synthesis/oscillator.h ****   public:
  15:../../DaisySP//Source/Synthesis/oscillator.h ****     Oscillator() {}
  16:../../DaisySP//Source/Synthesis/oscillator.h ****     ~Oscillator() {}
 104              		.loc 7 16 5 is_stmt 1 view -0
 105              		.cfi_startproc
 106              		@ args = 0, pretend = 0, frame = 0
 107              		@ frame_needed = 0, uses_anonymous_args = 0
 108              		@ link register save eliminated.
 109              		.loc 7 16 20 is_stmt 0 view .LVU13
 110 0000 7047     		bx	lr
 111              		.cfi_endproc
 112              	.LFE3857:
 114              		.weak	_ZN7daisysp10OscillatorD1Ev
 115              		.thumb_set _ZN7daisysp10OscillatorD1Ev,_ZN7daisysp10OscillatorD2Ev
 116              		.section	.text._ZN7daisysp23VariableShapeOscillatorD2Ev,"axG",%progbits,_ZN7daisysp23VariableShape
 117              		.align	1
 118              		.p2align 2,,3
 119              		.weak	_ZN7daisysp23VariableShapeOscillatorD2Ev
 120              		.syntax unified
 121              		.thumb
 122              		.thumb_func
 123              		.fpu fpv5-d16
 125              	_ZN7daisysp23VariableShapeOscillatorD2Ev:
 126              	.LVL3:
 127              	.LFB4331:
 128              		.file 8 "../../DaisySP//Source/Synthesis/variableshapeosc.h"
   1:../../DaisySP//Source/Synthesis/variableshapeosc.h **** #pragma once
   2:../../DaisySP//Source/Synthesis/variableshapeosc.h **** #ifndef DSY_VARIABLESHAPEOSCILLATOR_H
   3:../../DaisySP//Source/Synthesis/variableshapeosc.h **** #define DSY_VARIABLESHAPEOSCILLATOR_H
   4:../../DaisySP//Source/Synthesis/variableshapeosc.h **** 
   5:../../DaisySP//Source/Synthesis/variableshapeosc.h **** #include <stdint.h>
   6:../../DaisySP//Source/Synthesis/variableshapeosc.h **** #ifdef __cplusplus
   7:../../DaisySP//Source/Synthesis/variableshapeosc.h **** 
   8:../../DaisySP//Source/Synthesis/variableshapeosc.h **** /** @file variableshapeosc.h */
   9:../../DaisySP//Source/Synthesis/variableshapeosc.h **** 
  10:../../DaisySP//Source/Synthesis/variableshapeosc.h **** namespace daisysp
  11:../../DaisySP//Source/Synthesis/variableshapeosc.h **** {
  12:../../DaisySP//Source/Synthesis/variableshapeosc.h **** /**         
  13:../../DaisySP//Source/Synthesis/variableshapeosc.h ****        @brief Variable Waveshape Oscillator. 
  14:../../DaisySP//Source/Synthesis/variableshapeosc.h ****        @author Ben Sergentanis
  15:../../DaisySP//Source/Synthesis/variableshapeosc.h ****        @date Dec 2020 
  16:../../DaisySP//Source/Synthesis/variableshapeosc.h ****        Continuously variable waveform. \n \n
  17:../../DaisySP//Source/Synthesis/variableshapeosc.h ****        Ported from pichenettes/eurorack/plaits/dsp/oscillator/variable_shape_oscillator.h \n 
  18:../../DaisySP//Source/Synthesis/variableshapeosc.h ****        \n to an independent module. \n
  19:../../DaisySP//Source/Synthesis/variableshapeosc.h ****        Original code written by Emilie Gillet in 2016. \n
  20:../../DaisySP//Source/Synthesis/variableshapeosc.h **** */
  21:../../DaisySP//Source/Synthesis/variableshapeosc.h **** class VariableShapeOscillator
  22:../../DaisySP//Source/Synthesis/variableshapeosc.h **** {
ARM GAS  C:\Users\danst\AppData\Local\Temp\ccAqJ3eO.s 			page 10


  23:../../DaisySP//Source/Synthesis/variableshapeosc.h ****   public:
  24:../../DaisySP//Source/Synthesis/variableshapeosc.h ****     VariableShapeOscillator() {}
  25:../../DaisySP//Source/Synthesis/variableshapeosc.h ****     ~VariableShapeOscillator() {}
 129              		.loc 8 25 5 is_stmt 1 view -0
 130              		.cfi_startproc
 131              		@ args = 0, pretend = 0, frame = 0
 132              		@ frame_needed = 0, uses_anonymous_args = 0
 133              		@ link register save eliminated.
 134              		.loc 8 25 33 is_stmt 0 view .LVU15
 135 0000 7047     		bx	lr
 136              		.cfi_endproc
 137              	.LFE4331:
 139              		.weak	_ZN7daisysp23VariableShapeOscillatorD1Ev
 140              		.thumb_set _ZN7daisysp23VariableShapeOscillatorD1Ev,_ZN7daisysp23VariableShapeOscillatorD2Ev
 141              		.section	.text._ZN7daisysp10WavefolderD2Ev,"axG",%progbits,_ZN7daisysp10WavefolderD5Ev,comdat
 142              		.align	1
 143              		.p2align 2,,3
 144              		.weak	_ZN7daisysp10WavefolderD2Ev
 145              		.syntax unified
 146              		.thumb
 147              		.thumb_func
 148              		.fpu fpv5-d16
 150              	_ZN7daisysp10WavefolderD2Ev:
 151              	.LVL4:
 152              	.LFB4423:
 153              		.file 9 "wavefolder.h"
   1:wavefolder.h  **** #pragma once
   2:wavefolder.h  **** #ifndef DSY_WAVEFOLDER_H
   3:wavefolder.h  **** #define DSY_WAVEFOLDER_H
   4:wavefolder.h  **** 
   5:wavefolder.h  **** #include <stdint.h>
   6:wavefolder.h  **** #include "Utility/dsp.h"
   7:wavefolder.h  **** #ifdef __cplusplus
   8:wavefolder.h  **** 
   9:wavefolder.h  **** /** @file Wavefolder.h */
  10:wavefolder.h  **** 
  11:wavefolder.h  **** namespace daisysp
  12:wavefolder.h  **** {
  13:wavefolder.h  **** /**  
  14:wavefolder.h  ****        @brief Wavefolder
  15:wavefolder.h  ****        @date August 2022
  16:wavefolder.h  **** */
  17:wavefolder.h  **** class Wavefolder {
  18:wavefolder.h  ****     public:
  19:wavefolder.h  ****         Wavefolder(){}
  20:wavefolder.h  ****         ~Wavefolder(){}
 154              		.loc 9 20 9 is_stmt 1 view -0
 155              		.cfi_startproc
 156              		@ args = 0, pretend = 0, frame = 0
 157              		@ frame_needed = 0, uses_anonymous_args = 0
 158              		@ link register save eliminated.
 159              		.loc 9 20 23 is_stmt 0 view .LVU17
 160 0000 7047     		bx	lr
 161              		.cfi_endproc
 162              	.LFE4423:
 164              		.weak	_ZN7daisysp10WavefolderD1Ev
 165              		.thumb_set _ZN7daisysp10WavefolderD1Ev,_ZN7daisysp10WavefolderD2Ev
ARM GAS  C:\Users\danst\AppData\Local\Temp\ccAqJ3eO.s 			page 11


 166              		.section	.text._ZN5daisy11MidiHandlerINS_16MidiUsbTransportEED2Ev,"axG",%progbits,_ZN5daisy11MidiH
 167              		.align	1
 168              		.p2align 2,,3
 169              		.weak	_ZN5daisy11MidiHandlerINS_16MidiUsbTransportEED2Ev
 170              		.syntax unified
 171              		.thumb
 172              		.thumb_func
 173              		.fpu fpv5-d16
 175              	_ZN5daisy11MidiHandlerINS_16MidiUsbTransportEED2Ev:
 176              	.LVL5:
 177              	.LFB5013:
 178              		.file 10 "../../libDaisy//src/hid/midi.h"
   1:../../libDaisy//src/hid/midi.h **** #pragma once
   2:../../libDaisy//src/hid/midi.h **** #ifndef DSY_MIDI_H
   3:../../libDaisy//src/hid/midi.h **** #define DSY_MIDI_H
   4:../../libDaisy//src/hid/midi.h **** 
   5:../../libDaisy//src/hid/midi.h **** // TODO: make this adjustable
   6:../../libDaisy//src/hid/midi.h **** #define SYSEX_BUFFER_LEN 128
   7:../../libDaisy//src/hid/midi.h **** 
   8:../../libDaisy//src/hid/midi.h **** #include <stdint.h>
   9:../../libDaisy//src/hid/midi.h **** #include <stdlib.h>
  10:../../libDaisy//src/hid/midi.h **** #include "per/uart.h"
  11:../../libDaisy//src/hid/midi.h **** #include "util/ringbuffer.h"
  12:../../libDaisy//src/hid/midi.h **** #include "hid/MidiEvent.h"
  13:../../libDaisy//src/hid/midi.h **** #include "hid/usb_midi.h"
  14:../../libDaisy//src/hid/midi.h **** #include "sys/system.h"
  15:../../libDaisy//src/hid/midi.h **** 
  16:../../libDaisy//src/hid/midi.h **** namespace daisy
  17:../../libDaisy//src/hid/midi.h **** {
  18:../../libDaisy//src/hid/midi.h **** /** @brief   Transport layer for sending and receiving MIDI data over UART 
  19:../../libDaisy//src/hid/midi.h ****  *  @details This is the mode of communication used for TRS and DIN MIDI
  20:../../libDaisy//src/hid/midi.h ****  *  @ingroup midi
  21:../../libDaisy//src/hid/midi.h **** */
  22:../../libDaisy//src/hid/midi.h **** class MidiUartTransport
  23:../../libDaisy//src/hid/midi.h **** {
  24:../../libDaisy//src/hid/midi.h ****   public:
  25:../../libDaisy//src/hid/midi.h ****     MidiUartTransport() {}
  26:../../libDaisy//src/hid/midi.h ****     ~MidiUartTransport() {}
  27:../../libDaisy//src/hid/midi.h **** 
  28:../../libDaisy//src/hid/midi.h ****     struct Config
  29:../../libDaisy//src/hid/midi.h ****     {
  30:../../libDaisy//src/hid/midi.h ****         UartHandler::Config::Peripheral periph;
  31:../../libDaisy//src/hid/midi.h ****         dsy_gpio_pin                    rx;
  32:../../libDaisy//src/hid/midi.h ****         dsy_gpio_pin                    tx;
  33:../../libDaisy//src/hid/midi.h **** 
  34:../../libDaisy//src/hid/midi.h ****         Config()
  35:../../libDaisy//src/hid/midi.h ****         {
  36:../../libDaisy//src/hid/midi.h ****             periph = UartHandler::Config::Peripheral::USART_1;
  37:../../libDaisy//src/hid/midi.h ****             rx     = {DSY_GPIOB, 7};
  38:../../libDaisy//src/hid/midi.h ****             tx     = {DSY_GPIOB, 6};
  39:../../libDaisy//src/hid/midi.h ****         }
  40:../../libDaisy//src/hid/midi.h ****     };
  41:../../libDaisy//src/hid/midi.h **** 
  42:../../libDaisy//src/hid/midi.h ****     inline void Init(Config config)
  43:../../libDaisy//src/hid/midi.h ****     {
  44:../../libDaisy//src/hid/midi.h ****         UartHandler::Config uart_config;
  45:../../libDaisy//src/hid/midi.h **** 
ARM GAS  C:\Users\danst\AppData\Local\Temp\ccAqJ3eO.s 			page 12


  46:../../libDaisy//src/hid/midi.h ****         //defaults
  47:../../libDaisy//src/hid/midi.h ****         uart_config.baudrate   = 31250;
  48:../../libDaisy//src/hid/midi.h ****         uart_config.stopbits   = UartHandler::Config::StopBits::BITS_1;
  49:../../libDaisy//src/hid/midi.h ****         uart_config.parity     = UartHandler::Config::Parity::NONE;
  50:../../libDaisy//src/hid/midi.h ****         uart_config.mode       = UartHandler::Config::Mode::TX_RX;
  51:../../libDaisy//src/hid/midi.h ****         uart_config.wordlength = UartHandler::Config::WordLength::BITS_8;
  52:../../libDaisy//src/hid/midi.h **** 
  53:../../libDaisy//src/hid/midi.h ****         //user settings
  54:../../libDaisy//src/hid/midi.h ****         uart_config.periph        = config.periph;
  55:../../libDaisy//src/hid/midi.h ****         uart_config.pin_config.rx = config.rx;
  56:../../libDaisy//src/hid/midi.h ****         uart_config.pin_config.tx = config.tx;
  57:../../libDaisy//src/hid/midi.h **** 
  58:../../libDaisy//src/hid/midi.h ****         uart_.Init(uart_config);
  59:../../libDaisy//src/hid/midi.h ****     }
  60:../../libDaisy//src/hid/midi.h **** 
  61:../../libDaisy//src/hid/midi.h ****     inline void    StartRx() { uart_.StartRx(); }
  62:../../libDaisy//src/hid/midi.h ****     inline size_t  Readable() { return uart_.Readable(); }
  63:../../libDaisy//src/hid/midi.h ****     inline uint8_t Rx() { return uart_.PopRx(); }
  64:../../libDaisy//src/hid/midi.h ****     inline bool    RxActive() { return uart_.RxActive(); }
  65:../../libDaisy//src/hid/midi.h ****     inline void    FlushRx() { uart_.FlushRx(); }
  66:../../libDaisy//src/hid/midi.h ****     inline void    Tx(uint8_t* buff, size_t size) { uart_.PollTx(buff, size); }
  67:../../libDaisy//src/hid/midi.h **** 
  68:../../libDaisy//src/hid/midi.h ****   private:
  69:../../libDaisy//src/hid/midi.h ****     UartHandler uart_;
  70:../../libDaisy//src/hid/midi.h **** };
  71:../../libDaisy//src/hid/midi.h **** 
  72:../../libDaisy//src/hid/midi.h **** /** 
  73:../../libDaisy//src/hid/midi.h ****     @brief Simple MIDI Handler \n 
  74:../../libDaisy//src/hid/midi.h ****     Parses bytes from an input into valid MidiEvents. \n 
  75:../../libDaisy//src/hid/midi.h ****     The MidiEvents fill a FIFO queue that the user can pop messages from.
  76:../../libDaisy//src/hid/midi.h ****     @author shensley
  77:../../libDaisy//src/hid/midi.h ****     @date March 2020
  78:../../libDaisy//src/hid/midi.h ****     @ingroup midi
  79:../../libDaisy//src/hid/midi.h **** */
  80:../../libDaisy//src/hid/midi.h **** template <typename Transport>
  81:../../libDaisy//src/hid/midi.h **** class MidiHandler
  82:../../libDaisy//src/hid/midi.h **** {
  83:../../libDaisy//src/hid/midi.h ****   public:
  84:../../libDaisy//src/hid/midi.h ****     MidiHandler() {}
  85:../../libDaisy//src/hid/midi.h ****     ~MidiHandler() {}
 179              		.loc 10 85 5 is_stmt 1 view -0
 180              		.cfi_startproc
 181              		@ args = 0, pretend = 0, frame = 0
 182              		@ frame_needed = 0, uses_anonymous_args = 0
 183              		@ link register save eliminated.
 184              	.LBB393:
 185              	.LBI393:
 186              		.file 11 "../../libDaisy//src/hid/usb_midi.h"
   1:../../libDaisy//src/hid/usb_midi.h **** #pragma once
   2:../../libDaisy//src/hid/usb_midi.h **** #ifndef __DSY_MIDIUSBTRANSPORT_H__
   3:../../libDaisy//src/hid/usb_midi.h **** #define __DSY_MIDIUSBTRANSPORT_H__
   4:../../libDaisy//src/hid/usb_midi.h **** 
   5:../../libDaisy//src/hid/usb_midi.h **** #include "hid/usb.h"
   6:../../libDaisy//src/hid/usb_midi.h **** #include "sys/system.h"
   7:../../libDaisy//src/hid/usb_midi.h **** #include "util/ringbuffer.h"
   8:../../libDaisy//src/hid/usb_midi.h **** 
   9:../../libDaisy//src/hid/usb_midi.h **** namespace daisy
ARM GAS  C:\Users\danst\AppData\Local\Temp\ccAqJ3eO.s 			page 13


  10:../../libDaisy//src/hid/usb_midi.h **** {
  11:../../libDaisy//src/hid/usb_midi.h **** /** @brief USB Transport for MIDI 
  12:../../libDaisy//src/hid/usb_midi.h ****  *  @ingroup midi
  13:../../libDaisy//src/hid/usb_midi.h ****  */
  14:../../libDaisy//src/hid/usb_midi.h **** class MidiUsbTransport
  15:../../libDaisy//src/hid/usb_midi.h **** {
  16:../../libDaisy//src/hid/usb_midi.h ****   public:
  17:../../libDaisy//src/hid/usb_midi.h ****     // MidiUsbTransport() {}
  18:../../libDaisy//src/hid/usb_midi.h ****     ~MidiUsbTransport() {}
 187              		.loc 11 18 5 view .LVU19
 188              		.loc 11 18 5 is_stmt 0 view .LVU20
 189              	.LBE393:
 190              		.loc 10 85 21 view .LVU21
 191 0000 7047     		bx	lr
 192              		.cfi_endproc
 193              	.LFE5013:
 195              		.weak	_ZN5daisy11MidiHandlerINS_16MidiUsbTransportEED1Ev
 196              		.thumb_set _ZN5daisy11MidiHandlerINS_16MidiUsbTransportEED1Ev,_ZN5daisy11MidiHandlerINS_16MidiUsbT
 197 0002 00BF     		.section	.text._Z13AudioCallbackPKPKfPPfj,"ax",%progbits
 198              		.align	1
 199              		.p2align 2,,3
 200              		.global	_Z13AudioCallbackPKPKfPPfj
 201              		.syntax unified
 202              		.thumb
 203              		.thumb_func
 204              		.fpu fpv5-d16
 206              	_Z13AudioCallbackPKPKfPPfj:
 207              	.LVL6:
 208              	.LFB4425:
 209              		.file 12 "2Cats1Bag.cpp"
   1:2Cats1Bag.cpp **** #include "daisy_seed.h"
   2:2Cats1Bag.cpp **** #include "daisysp.h"
   3:2Cats1Bag.cpp **** #include "wavefolder.h"
   4:2Cats1Bag.cpp **** 
   5:2Cats1Bag.cpp **** using namespace daisy;
   6:2Cats1Bag.cpp **** using namespace daisysp;
   7:2Cats1Bag.cpp **** 
   8:2Cats1Bag.cpp **** DaisySeed hw;
   9:2Cats1Bag.cpp **** MidiUsbHandler midi;
  10:2Cats1Bag.cpp **** Oscillator modulator;
  11:2Cats1Bag.cpp **** VariableShapeOscillator primary;
  12:2Cats1Bag.cpp **** Wavefolder fold;
  13:2Cats1Bag.cpp **** float modulatorCoarsePitchAdjust, 
  14:2Cats1Bag.cpp **** 	modulatorFinePitchAdjust, 
  15:2Cats1Bag.cpp **** 	modulatorFrequency, 
  16:2Cats1Bag.cpp **** 	modulatorFrequencyModAmountAdjust,
  17:2Cats1Bag.cpp **** 	modulatorAmpModAmountAdjust,	
  18:2Cats1Bag.cpp **** 	primaryCoarsePitchAdjust, 
  19:2Cats1Bag.cpp **** 	primaryFinePitchAdjust, 
  20:2Cats1Bag.cpp **** 	primaryFrequency, 
  21:2Cats1Bag.cpp **** 	primaryWaveshapeAdjust,	
  22:2Cats1Bag.cpp **** 	folderTimbreModAdjust,
  23:2Cats1Bag.cpp **** 	folderTimbreAdjust,
  24:2Cats1Bag.cpp **** 	folderSymmetryAdjust,
  25:2Cats1Bag.cpp **** 	ampLevel,
  26:2Cats1Bag.cpp **** 	chaosAdjust,
  27:2Cats1Bag.cpp **** 	lastFinalModulatorFrequency = 0.0,
ARM GAS  C:\Users\danst\AppData\Local\Temp\ccAqJ3eO.s 			page 14


  28:2Cats1Bag.cpp **** 	lastPrimarySignal = 0.5,
  29:2Cats1Bag.cpp **** 	lastFinalPrimaryFrequency = 0.0,
  30:2Cats1Bag.cpp **** 	twoSemitonesRatio = 0.059463 * 2.0;
  31:2Cats1Bag.cpp **** int primaryMidiNote = 36,
  32:2Cats1Bag.cpp **** 	modulatorMidiNote = 36;
  33:2Cats1Bag.cpp **** int debugIterator = 0;
  34:2Cats1Bag.cpp **** enum AdcChannel {
  35:2Cats1Bag.cpp **** 	primaryCoarsePitchKnob,
  36:2Cats1Bag.cpp **** 	primaryFinePitchKnob,
  37:2Cats1Bag.cpp **** 	primaryWaveshapeKnob,	
  38:2Cats1Bag.cpp **** 	modulatorCoarsePitchKnob,
  39:2Cats1Bag.cpp **** 	modulatorFinePitchKnob,
  40:2Cats1Bag.cpp **** 	modulatorFrequencyModKnob,
  41:2Cats1Bag.cpp **** 	modulatorAmpKnob,
  42:2Cats1Bag.cpp **** 	modulatorTimbreModKnob,
  43:2Cats1Bag.cpp **** 	folderTimbreKnob,
  44:2Cats1Bag.cpp **** 	folderSymmetryKnob,
  45:2Cats1Bag.cpp **** 	chaosKnob,
  46:2Cats1Bag.cpp **** 	NUM_ADC_CHANNELS
  47:2Cats1Bag.cpp **** };
  48:2Cats1Bag.cpp **** Switch primaryWaveSelectButton, 
  49:2Cats1Bag.cpp **** 	modulatorWaveSelectButton, 
  50:2Cats1Bag.cpp **** 	modulatorRangeSelectButton,
  51:2Cats1Bag.cpp **** 	syncSelectButton;
  52:2Cats1Bag.cpp **** void AudioCallback(
  53:2Cats1Bag.cpp **** 	AudioHandle::InputBuffer in,
  54:2Cats1Bag.cpp **** 	AudioHandle::OutputBuffer out,
  55:2Cats1Bag.cpp **** 	size_t size
  56:2Cats1Bag.cpp **** ){
 210              		.loc 12 56 2 is_stmt 1 view -0
 211              		.cfi_startproc
 212              		@ args = 0, pretend = 0, frame = 16
 213              		@ frame_needed = 0, uses_anonymous_args = 0
  57:2Cats1Bag.cpp **** 	for( size_t i = 0; i < size; i++ ){
 214              		.loc 12 57 2 view .LVU23
 215              	.LBB394:
 216              		.loc 12 57 23 view .LVU24
 217              	.LBE394:
  56:2Cats1Bag.cpp **** 	for( size_t i = 0; i < size; i++ ){
 218              		.loc 12 56 2 is_stmt 0 view .LVU25
 219 0000 2DE9F04F 		push	{r4, r5, r6, r7, r8, r9, r10, fp, lr}
 220              		.cfi_def_cfa_offset 36
 221              		.cfi_offset 4, -36
 222              		.cfi_offset 5, -32
 223              		.cfi_offset 6, -28
 224              		.cfi_offset 7, -24
 225              		.cfi_offset 8, -20
 226              		.cfi_offset 9, -16
 227              		.cfi_offset 10, -12
 228              		.cfi_offset 11, -8
 229              		.cfi_offset 14, -4
 230 0004 2DED0A8B 		vpush.64	{d8, d9, d10, d11, d12}
 231              		.cfi_def_cfa_offset 76
 232              		.cfi_offset 80, -76
 233              		.cfi_offset 81, -72
 234              		.cfi_offset 82, -68
 235              		.cfi_offset 83, -64
ARM GAS  C:\Users\danst\AppData\Local\Temp\ccAqJ3eO.s 			page 15


 236              		.cfi_offset 84, -60
 237              		.cfi_offset 85, -56
 238              		.cfi_offset 86, -52
 239              		.cfi_offset 87, -48
 240              		.cfi_offset 88, -44
 241              		.cfi_offset 89, -40
 242 0008 85B0     		sub	sp, sp, #20
 243              		.cfi_def_cfa_offset 96
 244              	.LBB479:
 245              		.loc 12 57 23 view .LVU26
 246 000a 0392     		str	r2, [sp, #12]
 247 000c 002A     		cmp	r2, #0
 248 000e 00F0C980 		beq	.L8
 249              		.loc 12 57 14 view .LVU27
 250 0012 0023     		movs	r3, #0
 251 0014 664D     		ldr	r5, .L18
 252 0016 674A     		ldr	r2, .L18+4
 253              	.LVL7:
 254              		.loc 12 57 14 view .LVU28
 255 0018 674C     		ldr	r4, .L18+8
 256 001a DFF8C4B1 		ldr	fp, .L18+48
 257 001e DFF8C4A1 		ldr	r10, .L18+52
 258 0022 DFF8C491 		ldr	r9, .L18+56
 259 0026 DFF8C481 		ldr	r8, .L18+60
 260 002a 644F     		ldr	r7, .L18+12
 261 002c 644E     		ldr	r6, .L18+16
 262              	.LVL8:
 263              	.L9:
 264              	.LBB395:
  58:2Cats1Bag.cpp **** 		// HANDLE CHAOS KNOB
  59:2Cats1Bag.cpp **** 		float chaosMod = chaosAdjust > 0.0? lastPrimarySignal * chaosAdjust * 10.0 : 1.0;
 265              		.loc 12 59 3 is_stmt 1 view .LVU29
 266              		.loc 12 59 32 is_stmt 0 view .LVU30
 267 002e 6548     		ldr	r0, .L18+20
 268              		.loc 12 59 37 view .LVU31
 269 0030 B2EE047A 		vmov.f32	s14, #1.0e+1
  60:2Cats1Bag.cpp **** 		float finalModulatorFrequency = fclamp( modulatorFrequency * ( chaosMod + 1.0), 0.01, 20000.0 );	
 270              		.loc 12 60 75 view .LVU32
 271 0034 B7EE004B 		vmov.f64	d4, #1.0e+0
  59:2Cats1Bag.cpp **** 		float finalModulatorFrequency = fclamp( modulatorFrequency * ( chaosMod + 1.0), 0.01, 20000.0 );	
 272              		.loc 12 59 32 view .LVU33
 273 0038 D0ED007A 		vldr.32	s15, [r0]
 274 003c B0EE005B 		vmov.f64	d5, #2.0e+0
  59:2Cats1Bag.cpp **** 		float finalModulatorFrequency = fclamp( modulatorFrequency * ( chaosMod + 1.0), 0.01, 20000.0 );	
 275              		.loc 12 59 37 view .LVU34
 276 0040 F5EEC07A 		vcmpe.f32	s15, #0
 277 0044 F1EE10FA 		vmrs	APSR_nzcv, FPSCR
 278 0048 09DD     		ble	.L10
  59:2Cats1Bag.cpp **** 		float finalModulatorFrequency = fclamp( modulatorFrequency * ( chaosMod + 1.0), 0.01, 20000.0 );	
 279              		.loc 12 59 57 discriminator 1 view .LVU35
 280 004a 95ED006A 		vldr.32	s12, [r5]
 281 004e 27EE866A 		vmul.f32	s12, s15, s12
  59:2Cats1Bag.cpp **** 		float finalModulatorFrequency = fclamp( modulatorFrequency * ( chaosMod + 1.0), 0.01, 20000.0 );	
 282              		.loc 12 59 37 discriminator 1 view .LVU36
 283 0052 26EE076A 		vmul.f32	s12, s12, s14
 284              		.loc 12 60 66 discriminator 1 view .LVU37
 285 0056 B7EEC66A 		vcvt.f64.f32	d6, s12
ARM GAS  C:\Users\danst\AppData\Local\Temp\ccAqJ3eO.s 			page 16


 286              		.loc 12 60 75 discriminator 1 view .LVU38
 287 005a 36EE045B 		vadd.f64	d5, d6, d4
 288              	.L10:
 289              		.loc 12 60 3 is_stmt 1 discriminator 4 view .LVU39
 290              	.LVL9:
 291              	.LBB396:
 292              	.LBI396:
 293              		.file 13 "../../DaisySP//Source/Utility/dsp.h"
   1:../../DaisySP//Source/Utility/dsp.h **** /** Helpful defines, functions, and other utilities for use in/with daisysp modules.
   2:../../DaisySP//Source/Utility/dsp.h **** */
   3:../../DaisySP//Source/Utility/dsp.h **** #pragma once
   4:../../DaisySP//Source/Utility/dsp.h **** #ifndef DSY_CORE_DSP
   5:../../DaisySP//Source/Utility/dsp.h **** #define DSY_CORE_DSP
   6:../../DaisySP//Source/Utility/dsp.h **** #include <cassert>
   7:../../DaisySP//Source/Utility/dsp.h **** #include <cstdint>
   8:../../DaisySP//Source/Utility/dsp.h **** #include <random>
   9:../../DaisySP//Source/Utility/dsp.h **** #include <cmath>
  10:../../DaisySP//Source/Utility/dsp.h **** 
  11:../../DaisySP//Source/Utility/dsp.h **** /** PIs
  12:../../DaisySP//Source/Utility/dsp.h **** */
  13:../../DaisySP//Source/Utility/dsp.h **** #define PI_F 3.1415927410125732421875f
  14:../../DaisySP//Source/Utility/dsp.h **** #define TWOPI_F (2.0f * PI_F)
  15:../../DaisySP//Source/Utility/dsp.h **** #define HALFPI_F (PI_F * 0.5f)
  16:../../DaisySP//Source/Utility/dsp.h **** #define DSY_MIN(in, mn) (in < mn ? in : mn)
  17:../../DaisySP//Source/Utility/dsp.h **** #define DSY_MAX(in, mx) (in > mx ? in : mx)
  18:../../DaisySP//Source/Utility/dsp.h **** #define DSY_CLAMP(in, mn, mx) (DSY_MIN(DSY_MAX(in, mn), mx))
  19:../../DaisySP//Source/Utility/dsp.h **** #define DSY_COUNTOF(_arr) (sizeof(_arr) / sizeof(_arr[0]))
  20:../../DaisySP//Source/Utility/dsp.h **** 
  21:../../DaisySP//Source/Utility/dsp.h **** namespace daisysp
  22:../../DaisySP//Source/Utility/dsp.h **** {
  23:../../DaisySP//Source/Utility/dsp.h **** //Avoids division for random floats. e.g. rand() * kRandFrac
  24:../../DaisySP//Source/Utility/dsp.h **** static constexpr float kRandFrac = 1.f / (float)RAND_MAX;
  25:../../DaisySP//Source/Utility/dsp.h **** 
  26:../../DaisySP//Source/Utility/dsp.h **** //Convert from semitones to other units. e.g. 2 ^ (kOneTwelfth * x)
  27:../../DaisySP//Source/Utility/dsp.h **** static constexpr float kOneTwelfth = 1.f / 12.f;
  28:../../DaisySP//Source/Utility/dsp.h **** 
  29:../../DaisySP//Source/Utility/dsp.h **** /** efficient floating point min/max
  30:../../DaisySP//Source/Utility/dsp.h **** c/o stephen mccaul
  31:../../DaisySP//Source/Utility/dsp.h **** */
  32:../../DaisySP//Source/Utility/dsp.h **** inline float fmax(float a, float b)
  33:../../DaisySP//Source/Utility/dsp.h **** {
  34:../../DaisySP//Source/Utility/dsp.h ****     float r;
  35:../../DaisySP//Source/Utility/dsp.h **** #ifdef __arm__
  36:../../DaisySP//Source/Utility/dsp.h ****     asm("vmaxnm.f32 %[d], %[n], %[m]" : [d] "=t"(r) : [n] "t"(a), [m] "t"(b) :);
  37:../../DaisySP//Source/Utility/dsp.h **** #else
  38:../../DaisySP//Source/Utility/dsp.h ****     r = (a > b) ? a : b;
  39:../../DaisySP//Source/Utility/dsp.h **** #endif // __arm__
  40:../../DaisySP//Source/Utility/dsp.h ****     return r;
  41:../../DaisySP//Source/Utility/dsp.h **** }
  42:../../DaisySP//Source/Utility/dsp.h **** 
  43:../../DaisySP//Source/Utility/dsp.h **** inline float fmin(float a, float b)
  44:../../DaisySP//Source/Utility/dsp.h **** {
  45:../../DaisySP//Source/Utility/dsp.h ****     float r;
  46:../../DaisySP//Source/Utility/dsp.h **** #ifdef __arm__
  47:../../DaisySP//Source/Utility/dsp.h ****     asm("vminnm.f32 %[d], %[n], %[m]" : [d] "=t"(r) : [n] "t"(a), [m] "t"(b) :);
  48:../../DaisySP//Source/Utility/dsp.h **** #else
  49:../../DaisySP//Source/Utility/dsp.h ****     r = (a < b) ? a : b;
ARM GAS  C:\Users\danst\AppData\Local\Temp\ccAqJ3eO.s 			page 17


  50:../../DaisySP//Source/Utility/dsp.h **** #endif // __arm__
  51:../../DaisySP//Source/Utility/dsp.h ****     return r;
  52:../../DaisySP//Source/Utility/dsp.h **** }
  53:../../DaisySP//Source/Utility/dsp.h **** 
  54:../../DaisySP//Source/Utility/dsp.h **** /** quick fp clamp
  55:../../DaisySP//Source/Utility/dsp.h **** */
  56:../../DaisySP//Source/Utility/dsp.h **** inline float fclamp(float in, float min, float max)
 294              		.loc 13 56 14 discriminator 4 view .LVU40
 295              	.LBE396:
 296              	.LBE395:
 297              	.LBE479:
  57:../../DaisySP//Source/Utility/dsp.h **** {
  58:../../DaisySP//Source/Utility/dsp.h ****     return fmin(fmax(in, min), max);
 298              		.loc 13 58 5 discriminator 4 view .LVU41
 299              	.LBB480:
 300              	.LBB471:
 301              	.LBB407:
 302              	.LBB397:
 303              	.LBI397:
  32:../../DaisySP//Source/Utility/dsp.h **** {
 304              		.loc 13 32 14 discriminator 4 view .LVU42
 305              	.LBB398:
  34:../../DaisySP//Source/Utility/dsp.h **** #ifdef __arm__
 306              		.loc 13 34 5 discriminator 4 view .LVU43
  36:../../DaisySP//Source/Utility/dsp.h **** #else
 307              		.loc 13 36 5 discriminator 4 view .LVU44
 308              	.LBE398:
 309              	.LBE397:
 310              	.LBE407:
 311              		.loc 12 60 43 is_stmt 0 discriminator 4 view .LVU45
 312 005e 92ED006A 		vldr.32	s12, [r2]
  61:2Cats1Bag.cpp **** 		lastFinalModulatorFrequency = finalModulatorFrequency;
  62:2Cats1Bag.cpp **** 
  63:2Cats1Bag.cpp **** 		modulator.SetFreq( finalModulatorFrequency );
  64:2Cats1Bag.cpp **** 		// ALSO SET FREQUENCY ON PRIMARY OSC FOR SYNC PURPOSES
  65:2Cats1Bag.cpp **** 		// NOTE THAT WE DON'T HEAR THIS OSCILLATOR, WE JUST HEAR THE 
  66:2Cats1Bag.cpp **** 		// OSCILLATOR WHOSE FREQ IS SET USING THE SetSyncFreq METHOD
  67:2Cats1Bag.cpp **** 		// ( THIS IS DONE IN THE AUDIOCALLBACK )
  68:2Cats1Bag.cpp **** 		primary.SetFreq( finalModulatorFrequency );	
  69:2Cats1Bag.cpp **** 		float modulatorSignal = modulator.Process();
  70:2Cats1Bag.cpp **** 		float frequencyModSignal = modulatorSignal * modulatorFrequencyModAmountAdjust * 10.0;
 313              		.loc 12 70 9 discriminator 4 view .LVU46
 314 0062 F2EE048A 		vmov.f32	s17, #1.0e+1
 315              	.LBB408:
 316              	.LBB401:
 317              	.LBB399:
  36:../../DaisySP//Source/Utility/dsp.h **** #else
 318              		.loc 13 36 5 discriminator 4 view .LVU47
 319 0066 9FED58CA 		vldr.32	s24, .L18+24
 320              	.LBE399:
 321              	.LBE401:
 322              	.LBE408:
  71:2Cats1Bag.cpp **** 		float ampModSignal = modulatorSignal * modulatorAmpModAmountAdjust;
  72:2Cats1Bag.cpp **** 		float finalPrimaryFrequency = fclamp( primaryFrequency * ( frequencyModSignal + 1.0 ), 0.01, 2000
  73:2Cats1Bag.cpp **** 		primary.SetSyncFreq( finalPrimaryFrequency );
  74:2Cats1Bag.cpp **** 		float finalFold = folderTimbreAdjust + ( (  folderTimbreModAdjust / 2.0 ) * modulatorSignal ) ;
 323              		.loc 12 74 69 discriminator 4 view .LVU48
ARM GAS  C:\Users\danst\AppData\Local\Temp\ccAqJ3eO.s 			page 18


 324 006a B6EE009B 		vmov.f64	d9, #5.0e-1
  60:2Cats1Bag.cpp **** 		lastFinalModulatorFrequency = finalModulatorFrequency;
 325              		.loc 12 60 43 discriminator 4 view .LVU49
 326 006e B7EEC66A 		vcvt.f64.f32	d6, s12
 327              	.LBB409:
 328              	.LBB402:
 329              	.LBB403:
  47:../../DaisySP//Source/Utility/dsp.h **** #else
 330              		.loc 13 47 5 discriminator 4 view .LVU50
 331 0072 DFED56BA 		vldr.32	s23, .L18+28
 332              	.LBE403:
 333              	.LBE402:
 334              	.LBE409:
 335              	.LBB410:
 336              	.LBB411:
  17:../../DaisySP//Source/Synthesis/oscillator.h ****     /** Choices for output waveforms, POLYBLEP are appropriately labeled. Others are naive forms.
  18:../../DaisySP//Source/Synthesis/oscillator.h ****     */
  19:../../DaisySP//Source/Synthesis/oscillator.h ****     enum
  20:../../DaisySP//Source/Synthesis/oscillator.h ****     {
  21:../../DaisySP//Source/Synthesis/oscillator.h ****         WAVE_SIN,
  22:../../DaisySP//Source/Synthesis/oscillator.h ****         WAVE_TRI,
  23:../../DaisySP//Source/Synthesis/oscillator.h ****         WAVE_SAW,
  24:../../DaisySP//Source/Synthesis/oscillator.h ****         WAVE_RAMP,
  25:../../DaisySP//Source/Synthesis/oscillator.h ****         WAVE_SQUARE,
  26:../../DaisySP//Source/Synthesis/oscillator.h ****         WAVE_POLYBLEP_TRI,
  27:../../DaisySP//Source/Synthesis/oscillator.h ****         WAVE_POLYBLEP_SAW,
  28:../../DaisySP//Source/Synthesis/oscillator.h ****         WAVE_POLYBLEP_SQUARE,
  29:../../DaisySP//Source/Synthesis/oscillator.h ****         WAVE_LAST,
  30:../../DaisySP//Source/Synthesis/oscillator.h ****     };
  31:../../DaisySP//Source/Synthesis/oscillator.h **** 
  32:../../DaisySP//Source/Synthesis/oscillator.h **** 
  33:../../DaisySP//Source/Synthesis/oscillator.h ****     /** Initializes the Oscillator
  34:../../DaisySP//Source/Synthesis/oscillator.h **** 
  35:../../DaisySP//Source/Synthesis/oscillator.h ****         \param sample_rate - sample rate of the audio engine being run, and the frequency that the 
  36:../../DaisySP//Source/Synthesis/oscillator.h **** 
  37:../../DaisySP//Source/Synthesis/oscillator.h ****         Defaults:
  38:../../DaisySP//Source/Synthesis/oscillator.h ****         - freq_ = 100 Hz
  39:../../DaisySP//Source/Synthesis/oscillator.h ****         - amp_ = 0.5
  40:../../DaisySP//Source/Synthesis/oscillator.h ****         - waveform_ = sine wave.
  41:../../DaisySP//Source/Synthesis/oscillator.h ****     */
  42:../../DaisySP//Source/Synthesis/oscillator.h ****     void Init(float sample_rate)
  43:../../DaisySP//Source/Synthesis/oscillator.h ****     {
  44:../../DaisySP//Source/Synthesis/oscillator.h ****         sr_        = sample_rate;
  45:../../DaisySP//Source/Synthesis/oscillator.h ****         sr_recip_  = 1.0f / sample_rate;
  46:../../DaisySP//Source/Synthesis/oscillator.h ****         freq_      = 100.0f;
  47:../../DaisySP//Source/Synthesis/oscillator.h ****         amp_       = 0.5f;
  48:../../DaisySP//Source/Synthesis/oscillator.h ****         pw_        = 0.5f;
  49:../../DaisySP//Source/Synthesis/oscillator.h ****         pw_rad_    = pw_ * TWOPI_F;
  50:../../DaisySP//Source/Synthesis/oscillator.h ****         phase_     = 0.0f;
  51:../../DaisySP//Source/Synthesis/oscillator.h ****         phase_inc_ = CalcPhaseInc(freq_);
  52:../../DaisySP//Source/Synthesis/oscillator.h ****         waveform_  = WAVE_SIN;
  53:../../DaisySP//Source/Synthesis/oscillator.h ****         eoc_       = true;
  54:../../DaisySP//Source/Synthesis/oscillator.h ****         eor_       = true;
  55:../../DaisySP//Source/Synthesis/oscillator.h ****     }
  56:../../DaisySP//Source/Synthesis/oscillator.h **** 
  57:../../DaisySP//Source/Synthesis/oscillator.h **** 
  58:../../DaisySP//Source/Synthesis/oscillator.h ****     /** Changes the frequency of the Oscillator, and recalculates phase increment.
ARM GAS  C:\Users\danst\AppData\Local\Temp\ccAqJ3eO.s 			page 19


  59:../../DaisySP//Source/Synthesis/oscillator.h ****     */
  60:../../DaisySP//Source/Synthesis/oscillator.h ****     inline void SetFreq(const float f)
  61:../../DaisySP//Source/Synthesis/oscillator.h ****     {
  62:../../DaisySP//Source/Synthesis/oscillator.h ****         freq_      = f;
  63:../../DaisySP//Source/Synthesis/oscillator.h ****         phase_inc_ = CalcPhaseInc(f);
 337              		.loc 7 63 34 discriminator 4 view .LVU51
 338 0076 5048     		ldr	r0, .L18+8
 339              	.LBE411:
 340              	.LBE410:
 341              	.LBB415:
 342              	.LBB416:
  59:../../DaisySP//Source/Utility/dsp.h **** }
  60:../../DaisySP//Source/Utility/dsp.h **** 
  61:../../DaisySP//Source/Utility/dsp.h **** /** From Musicdsp.org "Fast power and root estimates for 32bit floats)
  62:../../DaisySP//Source/Utility/dsp.h **** Original code by Stefan Stenzel
  63:../../DaisySP//Source/Utility/dsp.h **** These are approximations
  64:../../DaisySP//Source/Utility/dsp.h **** */
  65:../../DaisySP//Source/Utility/dsp.h **** inline float fastpower(float f, int n)
  66:../../DaisySP//Source/Utility/dsp.h **** {
  67:../../DaisySP//Source/Utility/dsp.h ****     long *lp, l;
  68:../../DaisySP//Source/Utility/dsp.h ****     lp = (long *)(&f);
  69:../../DaisySP//Source/Utility/dsp.h ****     l  = *lp;
  70:../../DaisySP//Source/Utility/dsp.h ****     l -= 0x3F800000;
  71:../../DaisySP//Source/Utility/dsp.h ****     l <<= (n - 1);
  72:../../DaisySP//Source/Utility/dsp.h ****     l += 0x3F800000;
  73:../../DaisySP//Source/Utility/dsp.h ****     *lp = l;
  74:../../DaisySP//Source/Utility/dsp.h ****     return f;
  75:../../DaisySP//Source/Utility/dsp.h **** }
  76:../../DaisySP//Source/Utility/dsp.h **** 
  77:../../DaisySP//Source/Utility/dsp.h **** inline float fastroot(float f, int n)
  78:../../DaisySP//Source/Utility/dsp.h **** {
  79:../../DaisySP//Source/Utility/dsp.h ****     long *lp, l;
  80:../../DaisySP//Source/Utility/dsp.h ****     lp = (long *)(&f);
  81:../../DaisySP//Source/Utility/dsp.h ****     l  = *lp;
  82:../../DaisySP//Source/Utility/dsp.h ****     l -= 0x3F800000;
  83:../../DaisySP//Source/Utility/dsp.h ****     l >>= (n = 1);
  84:../../DaisySP//Source/Utility/dsp.h ****     l += 0x3F800000;
  85:../../DaisySP//Source/Utility/dsp.h ****     *lp = l;
  86:../../DaisySP//Source/Utility/dsp.h ****     return f;
  87:../../DaisySP//Source/Utility/dsp.h **** }
  88:../../DaisySP//Source/Utility/dsp.h **** 
  89:../../DaisySP//Source/Utility/dsp.h **** /** From http://openaudio.blogspot.com/2017/02/faster-log10-and-pow.html
  90:../../DaisySP//Source/Utility/dsp.h **** No approximation, pow10f(x) gives a 90% speed increase over powf(10.f, x)
  91:../../DaisySP//Source/Utility/dsp.h **** */
  92:../../DaisySP//Source/Utility/dsp.h **** inline float pow10f(float f)
  93:../../DaisySP//Source/Utility/dsp.h **** {
  94:../../DaisySP//Source/Utility/dsp.h ****     return expf(2.302585092994046f * f);
  95:../../DaisySP//Source/Utility/dsp.h **** }
  96:../../DaisySP//Source/Utility/dsp.h **** 
  97:../../DaisySP//Source/Utility/dsp.h **** /* Original code for fastlog2f by Dr. Paul Beckmann from the ARM community forum, adapted from the 
  98:../../DaisySP//Source/Utility/dsp.h **** About 25% performance increase over std::log10f
  99:../../DaisySP//Source/Utility/dsp.h **** */
 100:../../DaisySP//Source/Utility/dsp.h **** inline float fastlog2f(float f)
 101:../../DaisySP//Source/Utility/dsp.h **** {
 102:../../DaisySP//Source/Utility/dsp.h ****     float frac;
 103:../../DaisySP//Source/Utility/dsp.h ****     int   exp;
 104:../../DaisySP//Source/Utility/dsp.h ****     frac = frexpf(fabsf(f), &exp);
ARM GAS  C:\Users\danst\AppData\Local\Temp\ccAqJ3eO.s 			page 20


 105:../../DaisySP//Source/Utility/dsp.h ****     f    = 1.23149591368684f;
 106:../../DaisySP//Source/Utility/dsp.h ****     f *= frac;
 107:../../DaisySP//Source/Utility/dsp.h ****     f += -4.11852516267426f;
 108:../../DaisySP//Source/Utility/dsp.h ****     f *= frac;
 109:../../DaisySP//Source/Utility/dsp.h ****     f += 6.02197014179219f;
 110:../../DaisySP//Source/Utility/dsp.h ****     f *= frac;
 111:../../DaisySP//Source/Utility/dsp.h ****     f += -3.13396450166353f;
 112:../../DaisySP//Source/Utility/dsp.h ****     f += exp;
 113:../../DaisySP//Source/Utility/dsp.h ****     return (f);
 114:../../DaisySP//Source/Utility/dsp.h **** }
 115:../../DaisySP//Source/Utility/dsp.h **** 
 116:../../DaisySP//Source/Utility/dsp.h **** inline float fastlog10f(float f)
 117:../../DaisySP//Source/Utility/dsp.h **** {
 118:../../DaisySP//Source/Utility/dsp.h ****     return fastlog2f(f) * 0.3010299956639812f;
 119:../../DaisySP//Source/Utility/dsp.h **** }
 120:../../DaisySP//Source/Utility/dsp.h **** 
 121:../../DaisySP//Source/Utility/dsp.h **** /** Midi to frequency helper
 122:../../DaisySP//Source/Utility/dsp.h **** */
 123:../../DaisySP//Source/Utility/dsp.h **** inline float mtof(float m)
 124:../../DaisySP//Source/Utility/dsp.h **** {
 125:../../DaisySP//Source/Utility/dsp.h ****     return powf(2, (m - 69.0f) / 12.0f) * 440.0f;
 126:../../DaisySP//Source/Utility/dsp.h **** }
 127:../../DaisySP//Source/Utility/dsp.h **** 
 128:../../DaisySP//Source/Utility/dsp.h **** 
 129:../../DaisySP//Source/Utility/dsp.h **** /** one pole lpf
 130:../../DaisySP//Source/Utility/dsp.h **** out is passed by reference, and must be retained between
 131:../../DaisySP//Source/Utility/dsp.h **** calls to properly filter the signal
 132:../../DaisySP//Source/Utility/dsp.h **** coeff can be calculated:
 133:../../DaisySP//Source/Utility/dsp.h **** coeff = 1.0 / (time * sample_rate) ; where time is in seconds
 134:../../DaisySP//Source/Utility/dsp.h **** */
 135:../../DaisySP//Source/Utility/dsp.h **** inline void fonepole(float &out, float in, float coeff)
 136:../../DaisySP//Source/Utility/dsp.h **** {
 137:../../DaisySP//Source/Utility/dsp.h ****     out += coeff * (in - out);
 138:../../DaisySP//Source/Utility/dsp.h **** }
 139:../../DaisySP//Source/Utility/dsp.h **** 
 140:../../DaisySP//Source/Utility/dsp.h **** /** Curves to use with the fmap function */
 141:../../DaisySP//Source/Utility/dsp.h **** enum class Mapping
 142:../../DaisySP//Source/Utility/dsp.h **** {
 143:../../DaisySP//Source/Utility/dsp.h ****     LINEAR,
 144:../../DaisySP//Source/Utility/dsp.h ****     EXP,
 145:../../DaisySP//Source/Utility/dsp.h ****     LOG,
 146:../../DaisySP//Source/Utility/dsp.h **** };
 147:../../DaisySP//Source/Utility/dsp.h **** 
 148:../../DaisySP//Source/Utility/dsp.h **** /** Maps a float between a specified range, using a specified curve. 
 149:../../DaisySP//Source/Utility/dsp.h ****  * 
 150:../../DaisySP//Source/Utility/dsp.h ****  *  \param in a value between 0 to 1 that will be mapped to the new range.
 151:../../DaisySP//Source/Utility/dsp.h ****  *  \param min the new minimum value
 152:../../DaisySP//Source/Utility/dsp.h ****  *  \param max the new maxmimum value
 153:../../DaisySP//Source/Utility/dsp.h ****  *  \param curve a Mapping Value to adjust the response curve of the transformation
 154:../../DaisySP//Source/Utility/dsp.h ****  *               defaults to Linear. @see Mapping
 155:../../DaisySP//Source/Utility/dsp.h ****  * 
 156:../../DaisySP//Source/Utility/dsp.h ****  *  When using the log curve min and max, must be greater than zero.
 157:../../DaisySP//Source/Utility/dsp.h ****  * 
 158:../../DaisySP//Source/Utility/dsp.h ****  *  \retval returns the transformed float within the new range.
 159:../../DaisySP//Source/Utility/dsp.h **** */
 160:../../DaisySP//Source/Utility/dsp.h **** inline float
 161:../../DaisySP//Source/Utility/dsp.h **** fmap(float in, float min, float max, Mapping curve = Mapping::LINEAR)
ARM GAS  C:\Users\danst\AppData\Local\Temp\ccAqJ3eO.s 			page 21


 162:../../DaisySP//Source/Utility/dsp.h **** {
 163:../../DaisySP//Source/Utility/dsp.h ****     switch(curve)
 164:../../DaisySP//Source/Utility/dsp.h ****     {
 165:../../DaisySP//Source/Utility/dsp.h ****         case Mapping::EXP:
 166:../../DaisySP//Source/Utility/dsp.h ****             return fclamp(min + (in * in) * (max - min), min, max);
 167:../../DaisySP//Source/Utility/dsp.h ****         case Mapping::LOG:
 168:../../DaisySP//Source/Utility/dsp.h ****         {
 169:../../DaisySP//Source/Utility/dsp.h ****             const float a = 1.f / log10f(max / min);
 170:../../DaisySP//Source/Utility/dsp.h ****             return fclamp(min * powf(10, in / a), min, max);
 171:../../DaisySP//Source/Utility/dsp.h ****         }
 172:../../DaisySP//Source/Utility/dsp.h ****         case Mapping::LINEAR:
 173:../../DaisySP//Source/Utility/dsp.h ****         default: return fclamp(min + in * (max - min), min, max);
 343              		.loc 13 173 31 discriminator 4 view .LVU52
 344 0078 F7EE00AA 		vmov.f32	s21, #1.0e+0
 345              	.LBE416:
 346              	.LBE415:
  60:2Cats1Bag.cpp **** 		lastFinalModulatorFrequency = finalModulatorFrequency;
 347              		.loc 12 60 62 discriminator 4 view .LVU53
 348 007c 26EE056B 		vmul.f64	d6, d6, d5
 349 0080 CDE90131 		strd	r3, r1, [sp, #4]
  61:2Cats1Bag.cpp **** 
 350              		.loc 12 61 31 discriminator 4 view .LVU54
 351 0084 524B     		ldr	r3, .L18+32
 352              	.LVL10:
  60:2Cats1Bag.cpp **** 		lastFinalModulatorFrequency = finalModulatorFrequency;
 353              		.loc 12 60 41 discriminator 4 view .LVU55
 354 0086 B7EEC6AB 		vcvt.f32.f64	s20, d6
 355              	.LVL11:
 356              	.LBB428:
 357              	.LBB405:
 358              	.LBB400:
  36:../../DaisySP//Source/Utility/dsp.h **** #else
 359              		.loc 13 36 5 discriminator 4 view .LVU56
 360              		.syntax unified
 361              	@ 36 "../../DaisySP//Source/Utility/dsp.h" 1
 362 008a 8AFE0CAA 		vmaxnm.f32 s20, s20, s24
 363              	@ 0 "" 2
 364              	.LVL12:
  40:../../DaisySP//Source/Utility/dsp.h **** }
 365              		.loc 13 40 5 is_stmt 1 discriminator 4 view .LVU57
  40:../../DaisySP//Source/Utility/dsp.h **** }
 366              		.loc 13 40 5 is_stmt 0 discriminator 4 view .LVU58
 367              		.thumb
 368              		.syntax unified
 369              	.LBE400:
 370              	.LBE405:
 371              	.LBB406:
 372              	.LBI402:
  43:../../DaisySP//Source/Utility/dsp.h **** {
 373              		.loc 13 43 14 is_stmt 1 discriminator 4 view .LVU59
 374              	.LBB404:
  45:../../DaisySP//Source/Utility/dsp.h **** #ifdef __arm__
 375              		.loc 13 45 5 discriminator 4 view .LVU60
  47:../../DaisySP//Source/Utility/dsp.h **** #else
 376              		.loc 13 47 5 discriminator 4 view .LVU61
 377              		.syntax unified
 378              	@ 47 "../../DaisySP//Source/Utility/dsp.h" 1
ARM GAS  C:\Users\danst\AppData\Local\Temp\ccAqJ3eO.s 			page 22


 379 008e 8AFE6BAA 		vminnm.f32 s20, s20, s23
 380              	@ 0 "" 2
 381              	.LVL13:
  51:../../DaisySP//Source/Utility/dsp.h **** }
 382              		.loc 13 51 5 discriminator 4 view .LVU62
  51:../../DaisySP//Source/Utility/dsp.h **** }
 383              		.loc 13 51 5 is_stmt 0 discriminator 4 view .LVU63
 384              		.thumb
 385              		.syntax unified
 386              	.LBE404:
 387              	.LBE406:
 388              	.LBE428:
  61:2Cats1Bag.cpp **** 
 389              		.loc 12 61 3 is_stmt 1 discriminator 4 view .LVU64
 390              	.LBB429:
 391              	.LBB412:
 392              		.loc 7 63 34 is_stmt 0 discriminator 4 view .LVU65
 393 0092 B0EE4A0A 		vmov.f32	s0, s20
 394              	.LBE412:
 395              	.LBE429:
  61:2Cats1Bag.cpp **** 
 396              		.loc 12 61 31 discriminator 4 view .LVU66
 397 0096 83ED00AA 		vstr.32	s20, [r3]
  63:2Cats1Bag.cpp **** 		// ALSO SET FREQUENCY ON PRIMARY OSC FOR SYNC PURPOSES
 398              		.loc 12 63 3 is_stmt 1 discriminator 4 view .LVU67
 399              	.LVL14:
 400              	.LBB430:
 401              	.LBI410:
  60:../../DaisySP//Source/Synthesis/oscillator.h ****     {
 402              		.loc 7 60 17 discriminator 4 view .LVU68
 403              	.LBB413:
  62:../../DaisySP//Source/Synthesis/oscillator.h ****         phase_inc_ = CalcPhaseInc(f);
 404              		.loc 7 62 9 discriminator 4 view .LVU69
  62:../../DaisySP//Source/Synthesis/oscillator.h ****         phase_inc_ = CalcPhaseInc(f);
 405              		.loc 7 62 20 is_stmt 0 discriminator 4 view .LVU70
 406 009a 84ED02AA 		vstr.32	s20, [r4, #8]
 407              		.loc 7 63 9 is_stmt 1 discriminator 4 view .LVU71
 408              		.loc 7 63 34 is_stmt 0 discriminator 4 view .LVU72
 409 009e FFF7FEFF 		bl	_ZN7daisysp10Oscillator12CalcPhaseIncEf
 410              	.LVL15:
 411              	.LBE413:
 412              	.LBE430:
  68:2Cats1Bag.cpp **** 		float modulatorSignal = modulator.Process();
 413              		.loc 12 68 18 discriminator 4 view .LVU73
 414 00a2 4C48     		ldr	r0, .L18+36
 415              	.LBB431:
 416              	.LBB414:
 417              		.loc 7 63 20 discriminator 4 view .LVU74
 418 00a4 84ED080A 		vstr.32	s0, [r4, #32]
 419              	.LVL16:
 420              		.loc 7 63 20 discriminator 4 view .LVU75
 421              	.LBE414:
 422              	.LBE431:
  68:2Cats1Bag.cpp **** 		float modulatorSignal = modulator.Process();
 423              		.loc 12 68 3 is_stmt 1 discriminator 4 view .LVU76
  68:2Cats1Bag.cpp **** 		float modulatorSignal = modulator.Process();
 424              		.loc 12 68 18 is_stmt 0 discriminator 4 view .LVU77
ARM GAS  C:\Users\danst\AppData\Local\Temp\ccAqJ3eO.s 			page 23


 425 00a8 B0EE4A0A 		vmov.f32	s0, s20
 426 00ac FFF7FEFF 		bl	_ZN7daisysp23VariableShapeOscillator7SetFreqEf
 427              	.LVL17:
  69:2Cats1Bag.cpp **** 		float frequencyModSignal = modulatorSignal * modulatorFrequencyModAmountAdjust * 10.0;
 428              		.loc 12 69 3 is_stmt 1 discriminator 4 view .LVU78
  69:2Cats1Bag.cpp **** 		float frequencyModSignal = modulatorSignal * modulatorFrequencyModAmountAdjust * 10.0;
 429              		.loc 12 69 44 is_stmt 0 discriminator 4 view .LVU79
 430 00b0 4148     		ldr	r0, .L18+8
 431 00b2 FFF7FEFF 		bl	_ZN7daisysp10Oscillator7ProcessEv
 432              	.LVL18:
  70:2Cats1Bag.cpp **** 		float ampModSignal = modulatorSignal * modulatorAmpModAmountAdjust;
 433              		.loc 12 70 46 discriminator 4 view .LVU80
 434 00b6 9AED007A 		vldr.32	s14, [r10]
  72:2Cats1Bag.cpp **** 		primary.SetSyncFreq( finalPrimaryFrequency );
 435              		.loc 12 72 81 discriminator 4 view .LVU81
 436 00ba B7EE005B 		vmov.f64	d5, #1.0e+0
  72:2Cats1Bag.cpp **** 		primary.SetSyncFreq( finalPrimaryFrequency );
 437              		.loc 12 72 41 discriminator 4 view .LVU82
 438 00be 99ED006A 		vldr.32	s12, [r9]
  70:2Cats1Bag.cpp **** 		float ampModSignal = modulatorSignal * modulatorAmpModAmountAdjust;
 439              		.loc 12 70 46 discriminator 4 view .LVU83
 440 00c2 20EE077A 		vmul.f32	s14, s0, s14
  71:2Cats1Bag.cpp **** 		float finalPrimaryFrequency = fclamp( primaryFrequency * ( frequencyModSignal + 1.0 ), 0.01, 2000
 441              		.loc 12 71 9 discriminator 4 view .LVU84
 442 00c6 9BED00AA 		vldr.32	s20, [fp]
 443              	.LVL19:
  72:2Cats1Bag.cpp **** 		primary.SetSyncFreq( finalPrimaryFrequency );
 444              		.loc 12 72 41 discriminator 4 view .LVU85
 445 00ca B7EEC66A 		vcvt.f64.f32	d6, s12
  73:2Cats1Bag.cpp **** 		float finalFold = folderTimbreAdjust + ( (  folderTimbreModAdjust / 2.0 ) * modulatorSignal ) ;
 446              		.loc 12 73 22 discriminator 4 view .LVU86
 447 00ce 4148     		ldr	r0, .L18+36
  69:2Cats1Bag.cpp **** 		float frequencyModSignal = modulatorSignal * modulatorFrequencyModAmountAdjust * 10.0;
 448              		.loc 12 69 44 discriminator 4 view .LVU87
 449 00d0 B0EE40BA 		vmov.f32	s22, s0
 450              	.LVL20:
  70:2Cats1Bag.cpp **** 		float ampModSignal = modulatorSignal * modulatorAmpModAmountAdjust;
 451              		.loc 12 70 3 is_stmt 1 discriminator 4 view .LVU88
  71:2Cats1Bag.cpp **** 		float finalPrimaryFrequency = fclamp( primaryFrequency * ( frequencyModSignal + 1.0 ), 0.01, 2000
 452              		.loc 12 71 3 discriminator 4 view .LVU89
  70:2Cats1Bag.cpp **** 		float ampModSignal = modulatorSignal * modulatorAmpModAmountAdjust;
 453              		.loc 12 70 9 is_stmt 0 discriminator 4 view .LVU90
 454 00d4 27EE287A 		vmul.f32	s14, s14, s17
 455              	.LVL21:
  71:2Cats1Bag.cpp **** 		float finalPrimaryFrequency = fclamp( primaryFrequency * ( frequencyModSignal + 1.0 ), 0.01, 2000
 456              		.loc 12 71 9 discriminator 4 view .LVU91
 457 00d8 20EE0AAA 		vmul.f32	s20, s0, s20
 458              	.LVL22:
  72:2Cats1Bag.cpp **** 		primary.SetSyncFreq( finalPrimaryFrequency );
 459              		.loc 12 72 3 is_stmt 1 discriminator 4 view .LVU92
 460              	.LBB432:
 461              	.LBI432:
  56:../../DaisySP//Source/Utility/dsp.h **** {
 462              		.loc 13 56 14 discriminator 4 view .LVU93
 463              	.LBE432:
 464              	.LBE471:
 465              	.LBE480:
ARM GAS  C:\Users\danst\AppData\Local\Temp\ccAqJ3eO.s 			page 24


  58:../../DaisySP//Source/Utility/dsp.h **** }
 466              		.loc 13 58 5 discriminator 4 view .LVU94
 467              	.LBB481:
 468              	.LBB472:
 469              	.LBB439:
 470              	.LBB433:
 471              	.LBI433:
  32:../../DaisySP//Source/Utility/dsp.h **** {
 472              		.loc 13 32 14 discriminator 4 view .LVU95
 473              	.LBB434:
  34:../../DaisySP//Source/Utility/dsp.h **** #ifdef __arm__
 474              		.loc 13 34 5 discriminator 4 view .LVU96
  36:../../DaisySP//Source/Utility/dsp.h **** #else
 475              		.loc 13 36 5 discriminator 4 view .LVU97
 476              	.LBE434:
 477              	.LBE433:
 478              	.LBE439:
  72:2Cats1Bag.cpp **** 		primary.SetSyncFreq( finalPrimaryFrequency );
 479              		.loc 12 72 62 is_stmt 0 discriminator 4 view .LVU98
 480 00dc B7EEC77A 		vcvt.f64.f32	d7, s14
 481              	.LVL23:
  72:2Cats1Bag.cpp **** 		primary.SetSyncFreq( finalPrimaryFrequency );
 482              		.loc 12 72 81 discriminator 4 view .LVU99
 483 00e0 37EE057B 		vadd.f64	d7, d7, d5
  72:2Cats1Bag.cpp **** 		primary.SetSyncFreq( finalPrimaryFrequency );
 484              		.loc 12 72 58 discriminator 4 view .LVU100
 485 00e4 27EE067B 		vmul.f64	d7, d7, d6
  72:2Cats1Bag.cpp **** 		primary.SetSyncFreq( finalPrimaryFrequency );
 486              		.loc 12 72 39 discriminator 4 view .LVU101
 487 00e8 B7EEC78B 		vcvt.f32.f64	s16, d7
 488              	.LBB440:
 489              	.LBB436:
 490              	.LBB435:
  36:../../DaisySP//Source/Utility/dsp.h **** #else
 491              		.loc 13 36 5 discriminator 4 view .LVU102
 492              		.syntax unified
 493              	@ 36 "../../DaisySP//Source/Utility/dsp.h" 1
 494 00ec 88FE0C8A 		vmaxnm.f32 s16, s16, s24
 495              	@ 0 "" 2
 496              	.LVL24:
  40:../../DaisySP//Source/Utility/dsp.h **** }
 497              		.loc 13 40 5 is_stmt 1 discriminator 4 view .LVU103
  40:../../DaisySP//Source/Utility/dsp.h **** }
 498              		.loc 13 40 5 is_stmt 0 discriminator 4 view .LVU104
 499              		.thumb
 500              		.syntax unified
 501              	.LBE435:
 502              	.LBE436:
 503              	.LBB437:
 504              	.LBI437:
  43:../../DaisySP//Source/Utility/dsp.h **** {
 505              		.loc 13 43 14 is_stmt 1 discriminator 4 view .LVU105
 506              	.LBB438:
  45:../../DaisySP//Source/Utility/dsp.h **** #ifdef __arm__
 507              		.loc 13 45 5 discriminator 4 view .LVU106
  47:../../DaisySP//Source/Utility/dsp.h **** #else
 508              		.loc 13 47 5 discriminator 4 view .LVU107
ARM GAS  C:\Users\danst\AppData\Local\Temp\ccAqJ3eO.s 			page 25


 509              		.syntax unified
 510              	@ 47 "../../DaisySP//Source/Utility/dsp.h" 1
 511 00f0 88FE6B8A 		vminnm.f32 s16, s16, s23
 512              	@ 0 "" 2
 513              	.LVL25:
  51:../../DaisySP//Source/Utility/dsp.h **** }
 514              		.loc 13 51 5 discriminator 4 view .LVU108
  51:../../DaisySP//Source/Utility/dsp.h **** }
 515              		.loc 13 51 5 is_stmt 0 discriminator 4 view .LVU109
 516              		.thumb
 517              		.syntax unified
 518              	.LBE438:
 519              	.LBE437:
 520              	.LBE440:
  73:2Cats1Bag.cpp **** 		float finalFold = folderTimbreAdjust + ( (  folderTimbreModAdjust / 2.0 ) * modulatorSignal ) ;
 521              		.loc 12 73 3 is_stmt 1 discriminator 4 view .LVU110
  73:2Cats1Bag.cpp **** 		float finalFold = folderTimbreAdjust + ( (  folderTimbreModAdjust / 2.0 ) * modulatorSignal ) ;
 522              		.loc 12 73 22 is_stmt 0 discriminator 4 view .LVU111
 523 00f4 B0EE480A 		vmov.f32	s0, s16
 524              	.LVL26:
  73:2Cats1Bag.cpp **** 		float finalFold = folderTimbreAdjust + ( (  folderTimbreModAdjust / 2.0 ) * modulatorSignal ) ;
 525              		.loc 12 73 22 discriminator 4 view .LVU112
 526 00f8 FFF7FEFF 		bl	_ZN7daisysp23VariableShapeOscillator11SetSyncFreqEf
 527              	.LVL27:
 528              		.loc 12 74 3 is_stmt 1 discriminator 4 view .LVU113
 529              		.loc 12 74 47 is_stmt 0 discriminator 4 view .LVU114
 530 00fc 98ED006A 		vldr.32	s12, [r8]
 531              		.loc 12 74 21 discriminator 4 view .LVU115
 532 0100 97ED007A 		vldr.32	s14, [r7]
 533              		.loc 12 74 79 discriminator 4 view .LVU116
 534 0104 B7EECB5A 		vcvt.f64.f32	d5, s22
 535              		.loc 12 74 47 discriminator 4 view .LVU117
 536 0108 B7EEC66A 		vcvt.f64.f32	d6, s12
  75:2Cats1Bag.cpp **** 		finalFold = fmap( finalFold, 1.0, 10.0 ); // MAP finalFold TO A RANGE BETWEEN 1 AND 10
  76:2Cats1Bag.cpp **** 		fold.SetGain( finalFold ); // SET FOLD GAIN		
 537              		.loc 12 76 15 discriminator 4 view .LVU118
 538 010c 3248     		ldr	r0, .L18+40
  74:2Cats1Bag.cpp **** 		finalFold = fmap( finalFold, 1.0, 10.0 ); // MAP finalFold TO A RANGE BETWEEN 1 AND 10
 539              		.loc 12 74 21 discriminator 4 view .LVU119
 540 010e B7EEC77A 		vcvt.f64.f32	d7, s14
 541              	.LBB441:
 542              	.LBB423:
 543              		.loc 13 173 31 discriminator 4 view .LVU120
 544 0112 F2EE024A 		vmov.f32	s9, #9.0e+0
 545              	.LBE423:
 546              	.LBE441:
  74:2Cats1Bag.cpp **** 		finalFold = fmap( finalFold, 1.0, 10.0 ); // MAP finalFold TO A RANGE BETWEEN 1 AND 10
 547              		.loc 12 74 69 discriminator 4 view .LVU121
 548 0116 26EE096B 		vmul.f64	d6, d6, d9
 549              	.LBB442:
 550              	.LBB424:
 551              		.loc 13 173 31 discriminator 4 view .LVU122
 552 011a B0EE6A0A 		vmov.f32	s0, s21
 553              	.LBE424:
 554              	.LBE442:
  74:2Cats1Bag.cpp **** 		finalFold = fmap( finalFold, 1.0, 10.0 ); // MAP finalFold TO A RANGE BETWEEN 1 AND 10
 555              		.loc 12 74 40 discriminator 4 view .LVU123
ARM GAS  C:\Users\danst\AppData\Local\Temp\ccAqJ3eO.s 			page 26


 556 011e A6EE057B 		vfma.f64	d7, d6, d5
 557              	.LVL28:
  75:2Cats1Bag.cpp **** 		finalFold = fmap( finalFold, 1.0, 10.0 ); // MAP finalFold TO A RANGE BETWEEN 1 AND 10
 558              		.loc 12 75 3 is_stmt 1 discriminator 4 view .LVU124
 559              	.LBB443:
 560              	.LBI415:
 161:../../DaisySP//Source/Utility/dsp.h **** {
 561              		.loc 13 161 1 discriminator 4 view .LVU125
 562              	.LBE443:
 563              	.LBE472:
 564              	.LBE481:
 163:../../DaisySP//Source/Utility/dsp.h ****     {
 565              		.loc 13 163 5 discriminator 4 view .LVU126
 566              	.LBB482:
 567              	.LBB473:
 568              	.LBB444:
 569              	.LBB425:
 172:../../DaisySP//Source/Utility/dsp.h ****         default: return fclamp(min + in * (max - min), min, max);
 570              		.loc 13 172 9 discriminator 4 view .LVU127
 571              		.loc 13 173 9 discriminator 4 view .LVU128
 572              		.loc 13 173 18 discriminator 4 view .LVU129
 573              	.LBE425:
 574              	.LBE444:
  74:2Cats1Bag.cpp **** 		finalFold = fmap( finalFold, 1.0, 10.0 ); // MAP finalFold TO A RANGE BETWEEN 1 AND 10
 575              		.loc 12 74 9 is_stmt 0 discriminator 4 view .LVU130
 576 0122 B7EEC77B 		vcvt.f32.f64	s14, d7
 577              	.LVL29:
 578              	.LBB445:
 579              	.LBB426:
 580              		.loc 13 173 31 discriminator 4 view .LVU131
 581 0126 A7EE240A 		vfma.f32	s0, s14, s9
 582              	.LVL30:
 583              	.LBB417:
 584              	.LBI417:
  56:../../DaisySP//Source/Utility/dsp.h **** {
 585              		.loc 13 56 14 is_stmt 1 discriminator 4 view .LVU132
 586              	.LBE417:
 587              	.LBE426:
 588              	.LBE445:
 589              	.LBE473:
 590              	.LBE482:
  58:../../DaisySP//Source/Utility/dsp.h **** }
 591              		.loc 13 58 5 discriminator 4 view .LVU133
 592              	.LBB483:
 593              	.LBB474:
 594              	.LBB446:
 595              	.LBB427:
 596              	.LBB422:
 597              	.LBB418:
 598              	.LBI418:
  32:../../DaisySP//Source/Utility/dsp.h **** {
 599              		.loc 13 32 14 discriminator 4 view .LVU134
 600              	.LBB419:
  34:../../DaisySP//Source/Utility/dsp.h **** #ifdef __arm__
 601              		.loc 13 34 5 discriminator 4 view .LVU135
  36:../../DaisySP//Source/Utility/dsp.h **** #else
 602              		.loc 13 36 5 discriminator 4 view .LVU136
ARM GAS  C:\Users\danst\AppData\Local\Temp\ccAqJ3eO.s 			page 27


 603              		.syntax unified
 604              	@ 36 "../../DaisySP//Source/Utility/dsp.h" 1
 605 012a 80FE2A0A 		vmaxnm.f32 s0, s0, s21
 606              	@ 0 "" 2
 607              	.LVL31:
  40:../../DaisySP//Source/Utility/dsp.h **** }
 608              		.loc 13 40 5 discriminator 4 view .LVU137
  40:../../DaisySP//Source/Utility/dsp.h **** }
 609              		.loc 13 40 5 is_stmt 0 discriminator 4 view .LVU138
 610              		.thumb
 611              		.syntax unified
 612              	.LBE419:
 613              	.LBE418:
 614              	.LBB420:
 615              	.LBI420:
  43:../../DaisySP//Source/Utility/dsp.h **** {
 616              		.loc 13 43 14 is_stmt 1 discriminator 4 view .LVU139
 617              	.LBB421:
  45:../../DaisySP//Source/Utility/dsp.h **** #ifdef __arm__
 618              		.loc 13 45 5 discriminator 4 view .LVU140
  47:../../DaisySP//Source/Utility/dsp.h **** #else
 619              		.loc 13 47 5 discriminator 4 view .LVU141
 620              		.syntax unified
 621              	@ 47 "../../DaisySP//Source/Utility/dsp.h" 1
 622 012e 80FE680A 		vminnm.f32 s0, s0, s17
 623              	@ 0 "" 2
 624              	.LVL32:
  51:../../DaisySP//Source/Utility/dsp.h **** }
 625              		.loc 13 51 5 discriminator 4 view .LVU142
  51:../../DaisySP//Source/Utility/dsp.h **** }
 626              		.loc 13 51 5 is_stmt 0 discriminator 4 view .LVU143
 627              		.thumb
 628              		.syntax unified
 629              	.LBE421:
 630              	.LBE420:
 631              	.LBE422:
 632              	.LBE427:
 633              	.LBE446:
 634              		.loc 12 76 3 is_stmt 1 discriminator 4 view .LVU144
 635              		.loc 12 76 15 is_stmt 0 discriminator 4 view .LVU145
 636 0132 FFF7FEFF 		bl	_ZN7daisysp10Wavefolder7SetGainEf
 637              	.LVL33:
  77:2Cats1Bag.cpp **** 		float finalSignal = primary.Process(); // GET THE PRIMARY OSC SIGNAL
 638              		.loc 12 77 3 is_stmt 1 discriminator 4 view .LVU146
 639              		.loc 12 77 38 is_stmt 0 discriminator 4 view .LVU147
 640 0136 2748     		ldr	r0, .L18+36
 641 0138 FFF7FEFF 		bl	_ZN7daisysp23VariableShapeOscillator7ProcessEv
 642              	.LVL34:
  78:2Cats1Bag.cpp **** 		lastPrimarySignal = finalSignal; // STORE THE SIGNAL AT THIS POINT FOR CHAOS MODULATION PURPOSES
 643              		.loc 12 78 3 is_stmt 1 discriminator 4 view .LVU148
  79:2Cats1Bag.cpp **** 		lastFinalPrimaryFrequency = finalPrimaryFrequency;		
  80:2Cats1Bag.cpp **** 		finalSignal = finalSignal * ( ampModSignal + 0.5 ); // MODIFY AMPLITUDE ACCORDING TO AMP MOD
 644              		.loc 12 80 33 is_stmt 0 discriminator 4 view .LVU149
 645 013c B7EECA7A 		vcvt.f64.f32	d7, s20
 646              		.loc 12 80 17 discriminator 4 view .LVU150
 647 0140 B7EEC05A 		vcvt.f64.f32	d5, s0
  78:2Cats1Bag.cpp **** 		lastPrimarySignal = finalSignal; // STORE THE SIGNAL AT THIS POINT FOR CHAOS MODULATION PURPOSES
ARM GAS  C:\Users\danst\AppData\Local\Temp\ccAqJ3eO.s 			page 28


 648              		.loc 12 78 21 discriminator 4 view .LVU151
 649 0144 85ED000A 		vstr.32	s0, [r5]
  79:2Cats1Bag.cpp **** 		lastFinalPrimaryFrequency = finalPrimaryFrequency;		
 650              		.loc 12 79 3 is_stmt 1 discriminator 4 view .LVU152
 651              	.LBB447:
 652              	.LBB448:
 653              		.loc 13 173 31 is_stmt 0 discriminator 4 view .LVU153
 654 0148 FFEE006A 		vmov.f32	s13, #-1.0e+0
 655 014c D6ED004A 		vldr.32	s9, [r6]
 656              	.LBE448:
 657              	.LBE447:
 658              		.loc 12 80 46 discriminator 4 view .LVU154
 659 0150 37EE099B 		vadd.f64	d9, d7, d9
  79:2Cats1Bag.cpp **** 		lastFinalPrimaryFrequency = finalPrimaryFrequency;		
 660              		.loc 12 79 29 discriminator 4 view .LVU155
 661 0154 214B     		ldr	r3, .L18+44
 662              	.LBB465:
 663              	.LBB460:
 664              		.loc 13 173 31 discriminator 4 view .LVU156
 665 0156 B0EE006A 		vmov.f32	s12, #2.0e+0
 666              	.LBE460:
 667              	.LBE465:
  81:2Cats1Bag.cpp **** 		finalSignal = finalSignal + fmap( folderSymmetryAdjust, -1.0, 1.0 ); // OFFSET SIGNAL ACCORDING T
  82:2Cats1Bag.cpp **** 		finalSignal = fold.Process( finalSignal ); // MODIFY THROUGH WAVEFOLDER
 668              		.loc 12 82 29 discriminator 4 view .LVU157
 669 015a 1F48     		ldr	r0, .L18+40
 670              	.LBB466:
 671              	.LBB461:
 672              		.loc 13 173 31 discriminator 4 view .LVU158
 673 015c B0EE660A 		vmov.f32	s0, s13
 674              	.LVL35:
 675              		.loc 13 173 31 discriminator 4 view .LVU159
 676              	.LBE461:
 677              	.LBE466:
  79:2Cats1Bag.cpp **** 		lastFinalPrimaryFrequency = finalPrimaryFrequency;		
 678              		.loc 12 79 29 discriminator 4 view .LVU160
 679 0160 83ED008A 		vstr.32	s16, [r3]
  80:2Cats1Bag.cpp **** 		finalSignal = finalSignal + fmap( folderSymmetryAdjust, -1.0, 1.0 ); // OFFSET SIGNAL ACCORDING T
 680              		.loc 12 80 3 is_stmt 1 discriminator 4 view .LVU161
  80:2Cats1Bag.cpp **** 		finalSignal = finalSignal + fmap( folderSymmetryAdjust, -1.0, 1.0 ); // OFFSET SIGNAL ACCORDING T
 681              		.loc 12 80 29 is_stmt 0 discriminator 4 view .LVU162
 682 0164 29EE059B 		vmul.f64	d9, d9, d5
 683              	.LBB467:
 684              	.LBB462:
 685              		.loc 13 173 31 discriminator 4 view .LVU163
 686 0168 A4EE860A 		vfma.f32	s0, s9, s12
 687              	.LBB449:
 688              	.LBB450:
 689              	.LBB451:
  36:../../DaisySP//Source/Utility/dsp.h **** #else
 690              		.loc 13 36 5 discriminator 4 view .LVU164
 691              		.syntax unified
 692              	@ 36 "../../DaisySP//Source/Utility/dsp.h" 1
 693 016c 80FE260A 		vmaxnm.f32 s0, s0, s13
 694              	@ 0 "" 2
 695              		.thumb
 696              		.syntax unified
ARM GAS  C:\Users\danst\AppData\Local\Temp\ccAqJ3eO.s 			page 29


 697              	.LBE451:
 698              	.LBE450:
 699              	.LBB453:
 700              	.LBB454:
  47:../../DaisySP//Source/Utility/dsp.h **** #else
 701              		.loc 13 47 5 discriminator 4 view .LVU165
 702              		.syntax unified
 703              	@ 47 "../../DaisySP//Source/Utility/dsp.h" 1
 704 0170 80FE6A0A 		vminnm.f32 s0, s0, s21
 705              	@ 0 "" 2
 706              		.thumb
 707              		.syntax unified
 708              	.LBE454:
 709              	.LBE453:
 710              	.LBE449:
 711              	.LBE462:
 712              	.LBE467:
  80:2Cats1Bag.cpp **** 		finalSignal = finalSignal + fmap( folderSymmetryAdjust, -1.0, 1.0 ); // OFFSET SIGNAL ACCORDING T
 713              		.loc 12 80 15 discriminator 4 view .LVU166
 714 0174 B7EEC99B 		vcvt.f32.f64	s18, d9
 715              	.LVL36:
  81:2Cats1Bag.cpp **** 		finalSignal = fold.Process( finalSignal ); // MODIFY THROUGH WAVEFOLDER
 716              		.loc 12 81 3 is_stmt 1 discriminator 4 view .LVU167
 717              	.LBB468:
 718              	.LBI447:
 161:../../DaisySP//Source/Utility/dsp.h **** {
 719              		.loc 13 161 1 discriminator 4 view .LVU168
 720              	.LBE468:
 721              	.LBE474:
 722              	.LBE483:
 163:../../DaisySP//Source/Utility/dsp.h ****     {
 723              		.loc 13 163 5 discriminator 4 view .LVU169
 724              	.LBB484:
 725              	.LBB475:
 726              	.LBB469:
 727              	.LBB463:
 172:../../DaisySP//Source/Utility/dsp.h ****         default: return fclamp(min + in * (max - min), min, max);
 728              		.loc 13 172 9 discriminator 4 view .LVU170
 729              		.loc 13 173 9 discriminator 4 view .LVU171
 730              		.loc 13 173 18 discriminator 4 view .LVU172
 731              	.LBB458:
 732              	.LBI449:
  56:../../DaisySP//Source/Utility/dsp.h **** {
 733              		.loc 13 56 14 discriminator 4 view .LVU173
 734              	.LBE458:
 735              	.LBE463:
 736              	.LBE469:
 737              	.LBE475:
 738              	.LBE484:
  58:../../DaisySP//Source/Utility/dsp.h **** }
 739              		.loc 13 58 5 discriminator 4 view .LVU174
 740              	.LBB485:
 741              	.LBB476:
 742              	.LBB470:
 743              	.LBB464:
 744              	.LBB459:
 745              	.LBB456:
ARM GAS  C:\Users\danst\AppData\Local\Temp\ccAqJ3eO.s 			page 30


 746              	.LBI450:
  32:../../DaisySP//Source/Utility/dsp.h **** {
 747              		.loc 13 32 14 discriminator 4 view .LVU175
 748              	.LBB452:
  34:../../DaisySP//Source/Utility/dsp.h **** #ifdef __arm__
 749              		.loc 13 34 5 discriminator 4 view .LVU176
  36:../../DaisySP//Source/Utility/dsp.h **** #else
 750              		.loc 13 36 5 discriminator 4 view .LVU177
  40:../../DaisySP//Source/Utility/dsp.h **** }
 751              		.loc 13 40 5 discriminator 4 view .LVU178
  40:../../DaisySP//Source/Utility/dsp.h **** }
 752              		.loc 13 40 5 is_stmt 0 discriminator 4 view .LVU179
 753              	.LBE452:
 754              	.LBE456:
 755              	.LBB457:
 756              	.LBI453:
  43:../../DaisySP//Source/Utility/dsp.h **** {
 757              		.loc 13 43 14 is_stmt 1 discriminator 4 view .LVU180
 758              	.LBB455:
  45:../../DaisySP//Source/Utility/dsp.h **** #ifdef __arm__
 759              		.loc 13 45 5 discriminator 4 view .LVU181
  47:../../DaisySP//Source/Utility/dsp.h **** #else
 760              		.loc 13 47 5 discriminator 4 view .LVU182
  51:../../DaisySP//Source/Utility/dsp.h **** }
 761              		.loc 13 51 5 discriminator 4 view .LVU183
  51:../../DaisySP//Source/Utility/dsp.h **** }
 762              		.loc 13 51 5 is_stmt 0 discriminator 4 view .LVU184
 763              	.LBE455:
 764              	.LBE457:
 765              	.LBE459:
 766              	.LBE464:
 767              	.LBE470:
 768              		.loc 12 82 3 is_stmt 1 discriminator 4 view .LVU185
 769              		.loc 12 82 29 is_stmt 0 discriminator 4 view .LVU186
 770 0178 39EE000A 		vadd.f32	s0, s18, s0
 771              	.LVL37:
 772              		.loc 12 82 29 discriminator 4 view .LVU187
 773 017c FFF7FEFF 		bl	_ZN7daisysp10Wavefolder7ProcessEf
 774              	.LVL38:
  83:2Cats1Bag.cpp **** 		out[0][i] = modulatorSignal; // SEND THE MODULATOR SIGNAL TO OUTPUT 1
 775              		.loc 12 83 3 is_stmt 1 discriminator 4 view .LVU188
 776              		.loc 12 83 13 is_stmt 0 discriminator 4 view .LVU189
 777 0180 0299     		ldr	r1, [sp, #8]
 778 0182 019B     		ldr	r3, [sp, #4]
 779 0184 0868     		ldr	r0, [r1]
 780              	.LBE476:
  57:2Cats1Bag.cpp **** 		// HANDLE CHAOS KNOB
 781              		.loc 12 57 23 discriminator 4 view .LVU190
 782 0186 039A     		ldr	r2, [sp, #12]
 783              	.LBB477:
 784              		.loc 12 83 13 discriminator 4 view .LVU191
 785 0188 00EB8300 		add	r0, r0, r3, lsl #2
 786 018c 80ED00BA 		vstr.32	s22, [r0]
  84:2Cats1Bag.cpp **** 		out[1][i] = finalSignal; // SEND THE PRIMARYSIGNAL TO OUTPUT 2
 787              		.loc 12 84 3 is_stmt 1 discriminator 4 view .LVU192
 788              		.loc 12 84 13 is_stmt 0 discriminator 4 view .LVU193
 789 0190 4868     		ldr	r0, [r1, #4]
ARM GAS  C:\Users\danst\AppData\Local\Temp\ccAqJ3eO.s 			page 31


 790 0192 00EB8300 		add	r0, r0, r3, lsl #2
 791              	.LBE477:
  57:2Cats1Bag.cpp **** 		// HANDLE CHAOS KNOB
 792              		.loc 12 57 2 discriminator 4 view .LVU194
 793 0196 0133     		adds	r3, r3, #1
  57:2Cats1Bag.cpp **** 		// HANDLE CHAOS KNOB
 794              		.loc 12 57 23 discriminator 4 view .LVU195
 795 0198 9A42     		cmp	r2, r3
 796              	.LBB478:
 797              		.loc 12 84 13 discriminator 4 view .LVU196
 798 019a 80ED000A 		vstr.32	s0, [r0]
 799              	.LBE478:
  57:2Cats1Bag.cpp **** 		// HANDLE CHAOS KNOB
 800              		.loc 12 57 2 is_stmt 1 discriminator 4 view .LVU197
 801              	.LVL39:
  57:2Cats1Bag.cpp **** 		// HANDLE CHAOS KNOB
 802              		.loc 12 57 23 discriminator 4 view .LVU198
 803 019e 054A     		ldr	r2, .L18+4
 804 01a0 7FF445AF 		bne	.L9
 805              	.LVL40:
 806              	.L8:
  57:2Cats1Bag.cpp **** 		// HANDLE CHAOS KNOB
 807              		.loc 12 57 23 is_stmt 0 discriminator 4 view .LVU199
 808              	.LBE485:
  85:2Cats1Bag.cpp **** 	}
  86:2Cats1Bag.cpp **** }
 809              		.loc 12 86 1 view .LVU200
 810 01a4 05B0     		add	sp, sp, #20
 811              		.cfi_def_cfa_offset 76
 812              		@ sp needed
 813 01a6 BDEC0A8B 		vldm	sp!, {d8-d12}
 814              		.cfi_restore 88
 815              		.cfi_restore 89
 816              		.cfi_restore 86
 817              		.cfi_restore 87
 818              		.cfi_restore 84
 819              		.cfi_restore 85
 820              		.cfi_restore 82
 821              		.cfi_restore 83
 822              		.cfi_restore 80
 823              		.cfi_restore 81
 824              		.cfi_def_cfa_offset 36
 825 01aa BDE8F08F 		pop	{r4, r5, r6, r7, r8, r9, r10, fp, pc}
 826              	.LVL41:
 827              	.L19:
 828              		.loc 12 86 1 view .LVU201
 829 01ae 00BF     		.align	2
 830              	.L18:
 831 01b0 00000000 		.word	.LANCHOR1
 832 01b4 00000000 		.word	.LANCHOR2
 833 01b8 00000000 		.word	.LANCHOR4
 834 01bc 00000000 		.word	.LANCHOR10
 835 01c0 00000000 		.word	.LANCHOR13
 836 01c4 00000000 		.word	.LANCHOR0
 837 01c8 0AD7233C 		.word	1008981770
 838 01cc 00409C46 		.word	1184645120
 839 01d0 00000000 		.word	.LANCHOR3
ARM GAS  C:\Users\danst\AppData\Local\Temp\ccAqJ3eO.s 			page 32


 840 01d4 00000000 		.word	.LANCHOR5
 841 01d8 00000000 		.word	.LANCHOR11
 842 01dc 00000000 		.word	.LANCHOR12
 843 01e0 00000000 		.word	.LANCHOR6
 844 01e4 00000000 		.word	.LANCHOR7
 845 01e8 00000000 		.word	.LANCHOR8
 846 01ec 00000000 		.word	.LANCHOR9
 847              		.cfi_endproc
 848              	.LFE4425:
 850              		.section	.text._Z11handleKnobsv,"ax",%progbits
 851              		.align	1
 852              		.p2align 2,,3
 853              		.global	_Z11handleKnobsv
 854              		.syntax unified
 855              		.thumb
 856              		.thumb_func
 857              		.fpu fpv5-d16
 859              	_Z11handleKnobsv:
 860              	.LFB4427:
  87:2Cats1Bag.cpp **** void handleMidi(){
  88:2Cats1Bag.cpp **** 	midi.Listen();
  89:2Cats1Bag.cpp **** 	while( midi.HasEvents() ){
  90:2Cats1Bag.cpp **** 		auto midiEvent = midi.PopEvent();
  91:2Cats1Bag.cpp **** 		if( midiEvent.type == NoteOn ){
  92:2Cats1Bag.cpp **** 			auto noteMessage = midiEvent.AsNoteOn();
  93:2Cats1Bag.cpp **** 			if( noteMessage.velocity != 0 ){
  94:2Cats1Bag.cpp **** 				switch( noteMessage.channel ){
  95:2Cats1Bag.cpp **** 					case 0:
  96:2Cats1Bag.cpp **** 						modulatorMidiNote = noteMessage.note;
  97:2Cats1Bag.cpp **** 						break;
  98:2Cats1Bag.cpp **** 					default: 
  99:2Cats1Bag.cpp **** 						primaryMidiNote = noteMessage.note;
 100:2Cats1Bag.cpp **** 				}
 101:2Cats1Bag.cpp **** 			}
 102:2Cats1Bag.cpp **** 		}
 103:2Cats1Bag.cpp **** 	}
 104:2Cats1Bag.cpp **** }
 105:2Cats1Bag.cpp **** void handleKnobs(){
 861              		.loc 12 105 19 is_stmt 1 view -0
 862              		.cfi_startproc
 863              		@ args = 0, pretend = 0, frame = 0
 864              		@ frame_needed = 0, uses_anonymous_args = 0
 106:2Cats1Bag.cpp **** 	modulatorCoarsePitchAdjust = hw.adc.GetFloat( modulatorCoarsePitchKnob );
 865              		.loc 12 106 2 view .LVU203
 105:2Cats1Bag.cpp **** 	modulatorCoarsePitchAdjust = hw.adc.GetFloat( modulatorCoarsePitchKnob );
 866              		.loc 12 105 19 is_stmt 0 view .LVU204
 867 0000 10B5     		push	{r4, lr}
 868              		.cfi_def_cfa_offset 8
 869              		.cfi_offset 4, -8
 870              		.cfi_offset 14, -4
 871              		.loc 12 106 46 view .LVU205
 872 0002 274C     		ldr	r4, .L22
 873 0004 0321     		movs	r1, #3
 874 0006 2046     		mov	r0, r4
 875 0008 FFF7FEFF 		bl	_ZNK5daisy9AdcHandle8GetFloatEh
 876              	.LVL42:
 877              		.loc 12 106 29 view .LVU206
ARM GAS  C:\Users\danst\AppData\Local\Temp\ccAqJ3eO.s 			page 33


 878 000c 254B     		ldr	r3, .L22+4
 107:2Cats1Bag.cpp **** 	modulatorFinePitchAdjust = hw.adc.GetFloat( modulatorFinePitchKnob );
 879              		.loc 12 107 44 view .LVU207
 880 000e 0421     		movs	r1, #4
 881 0010 2046     		mov	r0, r4
 106:2Cats1Bag.cpp **** 	modulatorCoarsePitchAdjust = hw.adc.GetFloat( modulatorCoarsePitchKnob );
 882              		.loc 12 106 29 view .LVU208
 883 0012 83ED000A 		vstr.32	s0, [r3]
 884              		.loc 12 107 2 is_stmt 1 view .LVU209
 885              		.loc 12 107 44 is_stmt 0 view .LVU210
 886 0016 FFF7FEFF 		bl	_ZNK5daisy9AdcHandle8GetFloatEh
 887              	.LVL43:
 888              		.loc 12 107 27 view .LVU211
 889 001a 234B     		ldr	r3, .L22+8
 108:2Cats1Bag.cpp **** 	modulatorFrequencyModAmountAdjust = hw.adc.GetFloat( modulatorFrequencyModKnob );
 890              		.loc 12 108 53 view .LVU212
 891 001c 0521     		movs	r1, #5
 892 001e 2046     		mov	r0, r4
 107:2Cats1Bag.cpp **** 	modulatorFinePitchAdjust = hw.adc.GetFloat( modulatorFinePitchKnob );
 893              		.loc 12 107 27 view .LVU213
 894 0020 83ED000A 		vstr.32	s0, [r3]
 895              		.loc 12 108 2 is_stmt 1 view .LVU214
 896              		.loc 12 108 53 is_stmt 0 view .LVU215
 897 0024 FFF7FEFF 		bl	_ZNK5daisy9AdcHandle8GetFloatEh
 898              	.LVL44:
 899              		.loc 12 108 36 view .LVU216
 900 0028 204B     		ldr	r3, .L22+12
 109:2Cats1Bag.cpp **** 	modulatorAmpModAmountAdjust = hw.adc.GetFloat( modulatorAmpKnob );
 901              		.loc 12 109 47 view .LVU217
 902 002a 0621     		movs	r1, #6
 903 002c 2046     		mov	r0, r4
 108:2Cats1Bag.cpp **** 	modulatorFrequencyModAmountAdjust = hw.adc.GetFloat( modulatorFrequencyModKnob );
 904              		.loc 12 108 36 view .LVU218
 905 002e 83ED000A 		vstr.32	s0, [r3]
 906              		.loc 12 109 2 is_stmt 1 view .LVU219
 907              		.loc 12 109 47 is_stmt 0 view .LVU220
 908 0032 FFF7FEFF 		bl	_ZNK5daisy9AdcHandle8GetFloatEh
 909              	.LVL45:
 910              		.loc 12 109 30 view .LVU221
 911 0036 1E4B     		ldr	r3, .L22+16
 110:2Cats1Bag.cpp **** 	primaryCoarsePitchAdjust = hw.adc.GetFloat( primaryCoarsePitchKnob );
 912              		.loc 12 110 44 view .LVU222
 913 0038 0021     		movs	r1, #0
 914 003a 2046     		mov	r0, r4
 109:2Cats1Bag.cpp **** 	modulatorAmpModAmountAdjust = hw.adc.GetFloat( modulatorAmpKnob );
 915              		.loc 12 109 30 view .LVU223
 916 003c 83ED000A 		vstr.32	s0, [r3]
 917              		.loc 12 110 2 is_stmt 1 view .LVU224
 918              		.loc 12 110 44 is_stmt 0 view .LVU225
 919 0040 FFF7FEFF 		bl	_ZNK5daisy9AdcHandle8GetFloatEh
 920              	.LVL46:
 921              		.loc 12 110 27 view .LVU226
 922 0044 1B4B     		ldr	r3, .L22+20
 111:2Cats1Bag.cpp **** 	primaryFinePitchAdjust = hw.adc.GetFloat( primaryFinePitchKnob );
 923              		.loc 12 111 42 view .LVU227
 924 0046 0121     		movs	r1, #1
 925 0048 2046     		mov	r0, r4
ARM GAS  C:\Users\danst\AppData\Local\Temp\ccAqJ3eO.s 			page 34


 110:2Cats1Bag.cpp **** 	primaryCoarsePitchAdjust = hw.adc.GetFloat( primaryCoarsePitchKnob );
 926              		.loc 12 110 27 view .LVU228
 927 004a 83ED000A 		vstr.32	s0, [r3]
 928              		.loc 12 111 2 is_stmt 1 view .LVU229
 929              		.loc 12 111 42 is_stmt 0 view .LVU230
 930 004e FFF7FEFF 		bl	_ZNK5daisy9AdcHandle8GetFloatEh
 931              	.LVL47:
 932              		.loc 12 111 25 view .LVU231
 933 0052 194B     		ldr	r3, .L22+24
 112:2Cats1Bag.cpp **** 	primaryWaveshapeAdjust = hw.adc.GetFloat( primaryWaveshapeKnob );
 934              		.loc 12 112 42 view .LVU232
 935 0054 0221     		movs	r1, #2
 936 0056 2046     		mov	r0, r4
 111:2Cats1Bag.cpp **** 	primaryFinePitchAdjust = hw.adc.GetFloat( primaryFinePitchKnob );
 937              		.loc 12 111 25 view .LVU233
 938 0058 83ED000A 		vstr.32	s0, [r3]
 939              		.loc 12 112 2 is_stmt 1 view .LVU234
 940              		.loc 12 112 42 is_stmt 0 view .LVU235
 941 005c FFF7FEFF 		bl	_ZNK5daisy9AdcHandle8GetFloatEh
 942              	.LVL48:
 943              		.loc 12 112 25 view .LVU236
 944 0060 164B     		ldr	r3, .L22+28
 113:2Cats1Bag.cpp **** 	folderTimbreAdjust = hw.adc.GetFloat( folderTimbreKnob );
 945              		.loc 12 113 38 view .LVU237
 946 0062 0821     		movs	r1, #8
 947 0064 2046     		mov	r0, r4
 112:2Cats1Bag.cpp **** 	primaryWaveshapeAdjust = hw.adc.GetFloat( primaryWaveshapeKnob );
 948              		.loc 12 112 25 view .LVU238
 949 0066 83ED000A 		vstr.32	s0, [r3]
 950              		.loc 12 113 2 is_stmt 1 view .LVU239
 951              		.loc 12 113 38 is_stmt 0 view .LVU240
 952 006a FFF7FEFF 		bl	_ZNK5daisy9AdcHandle8GetFloatEh
 953              	.LVL49:
 954              		.loc 12 113 21 view .LVU241
 955 006e 144B     		ldr	r3, .L22+32
 114:2Cats1Bag.cpp **** 	folderSymmetryAdjust = hw.adc.GetFloat( folderSymmetryKnob );
 956              		.loc 12 114 40 view .LVU242
 957 0070 0921     		movs	r1, #9
 958 0072 2046     		mov	r0, r4
 113:2Cats1Bag.cpp **** 	folderTimbreAdjust = hw.adc.GetFloat( folderTimbreKnob );
 959              		.loc 12 113 21 view .LVU243
 960 0074 83ED000A 		vstr.32	s0, [r3]
 961              		.loc 12 114 2 is_stmt 1 view .LVU244
 962              		.loc 12 114 40 is_stmt 0 view .LVU245
 963 0078 FFF7FEFF 		bl	_ZNK5daisy9AdcHandle8GetFloatEh
 964              	.LVL50:
 965              		.loc 12 114 23 view .LVU246
 966 007c 114B     		ldr	r3, .L22+36
 115:2Cats1Bag.cpp **** 	folderTimbreModAdjust = hw.adc.GetFloat( modulatorTimbreModKnob );	
 967              		.loc 12 115 41 view .LVU247
 968 007e 0721     		movs	r1, #7
 969 0080 2046     		mov	r0, r4
 114:2Cats1Bag.cpp **** 	folderSymmetryAdjust = hw.adc.GetFloat( folderSymmetryKnob );
 970              		.loc 12 114 23 view .LVU248
 971 0082 83ED000A 		vstr.32	s0, [r3]
 972              		.loc 12 115 2 is_stmt 1 view .LVU249
 973              		.loc 12 115 41 is_stmt 0 view .LVU250
ARM GAS  C:\Users\danst\AppData\Local\Temp\ccAqJ3eO.s 			page 35


 974 0086 FFF7FEFF 		bl	_ZNK5daisy9AdcHandle8GetFloatEh
 975              	.LVL51:
 976              		.loc 12 115 24 view .LVU251
 977 008a 0F4B     		ldr	r3, .L22+40
 116:2Cats1Bag.cpp **** 	chaosAdjust = hw.adc.GetFloat( chaosKnob );	
 978              		.loc 12 116 31 view .LVU252
 979 008c 0A21     		movs	r1, #10
 980 008e 2046     		mov	r0, r4
 115:2Cats1Bag.cpp **** 	folderTimbreModAdjust = hw.adc.GetFloat( modulatorTimbreModKnob );	
 981              		.loc 12 115 24 view .LVU253
 982 0090 83ED000A 		vstr.32	s0, [r3]
 983              		.loc 12 116 2 is_stmt 1 view .LVU254
 984              		.loc 12 116 31 is_stmt 0 view .LVU255
 985 0094 FFF7FEFF 		bl	_ZNK5daisy9AdcHandle8GetFloatEh
 986              	.LVL52:
 987              		.loc 12 116 14 view .LVU256
 988 0098 0C4B     		ldr	r3, .L22+44
 989 009a 83ED000A 		vstr.32	s0, [r3]
 117:2Cats1Bag.cpp **** }
 990              		.loc 12 117 1 view .LVU257
 991 009e 10BD     		pop	{r4, pc}
 992              	.L23:
 993              		.align	2
 994              	.L22:
 995 00a0 18000000 		.word	.LANCHOR14+24
 996 00a4 00000000 		.word	.LANCHOR15
 997 00a8 00000000 		.word	.LANCHOR16
 998 00ac 00000000 		.word	.LANCHOR7
 999 00b0 00000000 		.word	.LANCHOR6
 1000 00b4 00000000 		.word	.LANCHOR17
 1001 00b8 00000000 		.word	.LANCHOR18
 1002 00bc 00000000 		.word	.LANCHOR19
 1003 00c0 00000000 		.word	.LANCHOR10
 1004 00c4 00000000 		.word	.LANCHOR13
 1005 00c8 00000000 		.word	.LANCHOR9
 1006 00cc 00000000 		.word	.LANCHOR0
 1007              		.cfi_endproc
 1008              	.LFE4427:
 1010              		.section	.text._Z18setCoarseFrequencyff,"ax",%progbits
 1011              		.align	1
 1012              		.p2align 2,,3
 1013              		.global	_Z18setCoarseFrequencyff
 1014              		.syntax unified
 1015              		.thumb
 1016              		.thumb_func
 1017              		.fpu fpv5-d16
 1019              	_Z18setCoarseFrequencyff:
 1020              	.LVL53:
 1021              	.LFB4428:
 118:2Cats1Bag.cpp **** float setCoarseFrequency( float baseFrequency, float adjust ){ // COARSE ADJUST THE FREQUENCY BY +/
 1022              		.loc 12 118 62 is_stmt 1 view -0
 1023              		.cfi_startproc
 1024              		@ args = 0, pretend = 0, frame = 0
 1025              		@ frame_needed = 0, uses_anonymous_args = 0
 1026              		@ link register save eliminated.
 119:2Cats1Bag.cpp **** 	return fmap( adjust,  baseFrequency / 4.0, baseFrequency * 4.0 );
 1027              		.loc 12 119 2 view .LVU259
ARM GAS  C:\Users\danst\AppData\Local\Temp\ccAqJ3eO.s 			page 36


 1028              		.loc 12 119 13 is_stmt 0 view .LVU260
 1029 0000 F5EE007A 		vmov.f32	s15, #2.5e-1
 1030 0004 F1EE006A 		vmov.f32	s13, #4.0e+0
 1031 0008 20EE277A 		vmul.f32	s14, s0, s15
 1032 000c 20EE260A 		vmul.f32	s0, s0, s13
 1033              	.LVL54:
 1034              	.LBB486:
 1035              	.LBI486:
 161:../../DaisySP//Source/Utility/dsp.h **** {
 1036              		.loc 13 161 1 is_stmt 1 view .LVU261
 1037              	.LBE486:
 163:../../DaisySP//Source/Utility/dsp.h ****     {
 1038              		.loc 13 163 5 view .LVU262
 1039              	.LBB495:
 1040              	.LBB487:
 172:../../DaisySP//Source/Utility/dsp.h ****         default: return fclamp(min + in * (max - min), min, max);
 1041              		.loc 13 172 9 view .LVU263
 1042              		.loc 13 173 9 view .LVU264
 1043              		.loc 13 173 18 view .LVU265
 1044              		.loc 13 173 31 is_stmt 0 view .LVU266
 1045 0010 F0EE477A 		vmov.f32	s15, s14
 1046              		.loc 13 173 48 view .LVU267
 1047 0014 70EE476A 		vsub.f32	s13, s0, s14
 1048              		.loc 13 173 31 view .LVU268
 1049 0018 E0EEA67A 		vfma.f32	s15, s1, s13
 1050              	.LVL55:
 1051              	.LBB488:
 1052              	.LBI488:
  56:../../DaisySP//Source/Utility/dsp.h **** {
 1053              		.loc 13 56 14 is_stmt 1 view .LVU269
 1054              	.LBE488:
 1055              	.LBE487:
 1056              	.LBE495:
  58:../../DaisySP//Source/Utility/dsp.h **** }
 1057              		.loc 13 58 5 view .LVU270
 1058              	.LBB496:
 1059              	.LBB494:
 1060              	.LBB493:
 1061              	.LBB489:
 1062              	.LBI489:
  32:../../DaisySP//Source/Utility/dsp.h **** {
 1063              		.loc 13 32 14 view .LVU271
 1064              	.LBB490:
  34:../../DaisySP//Source/Utility/dsp.h **** #ifdef __arm__
 1065              		.loc 13 34 5 view .LVU272
  36:../../DaisySP//Source/Utility/dsp.h **** #else
 1066              		.loc 13 36 5 view .LVU273
 1067              		.syntax unified
 1068              	@ 36 "../../DaisySP//Source/Utility/dsp.h" 1
 1069 001c C7FE877A 		vmaxnm.f32 s15, s15, s14
 1070              	@ 0 "" 2
 1071              	.LVL56:
  40:../../DaisySP//Source/Utility/dsp.h **** }
 1072              		.loc 13 40 5 view .LVU274
  40:../../DaisySP//Source/Utility/dsp.h **** }
 1073              		.loc 13 40 5 is_stmt 0 view .LVU275
 1074              		.thumb
ARM GAS  C:\Users\danst\AppData\Local\Temp\ccAqJ3eO.s 			page 37


 1075              		.syntax unified
 1076              	.LBE490:
 1077              	.LBE489:
 1078              	.LBB491:
 1079              	.LBI491:
  43:../../DaisySP//Source/Utility/dsp.h **** {
 1080              		.loc 13 43 14 is_stmt 1 view .LVU276
 1081              	.LBB492:
  45:../../DaisySP//Source/Utility/dsp.h **** #ifdef __arm__
 1082              		.loc 13 45 5 view .LVU277
  47:../../DaisySP//Source/Utility/dsp.h **** #else
 1083              		.loc 13 47 5 view .LVU278
 1084              		.syntax unified
 1085              	@ 47 "../../DaisySP//Source/Utility/dsp.h" 1
 1086 0020 87FEC00A 		vminnm.f32 s0, s15, s0
 1087              	@ 0 "" 2
 1088              	.LVL57:
  51:../../DaisySP//Source/Utility/dsp.h **** }
 1089              		.loc 13 51 5 view .LVU279
  51:../../DaisySP//Source/Utility/dsp.h **** }
 1090              		.loc 13 51 5 is_stmt 0 view .LVU280
 1091              		.thumb
 1092              		.syntax unified
 1093              	.LBE492:
 1094              	.LBE491:
 1095              	.LBE493:
 1096              	.LBE494:
 1097              	.LBE496:
 120:2Cats1Bag.cpp **** }
 1098              		.loc 12 120 1 view .LVU281
 1099 0024 7047     		bx	lr
 1100              		.cfi_endproc
 1101              	.LFE4428:
 1103 0026 00BF     		.section	.text._Z16setFineFrequencyff,"ax",%progbits
 1104              		.align	1
 1105              		.p2align 2,,3
 1106              		.global	_Z16setFineFrequencyff
 1107              		.syntax unified
 1108              		.thumb
 1109              		.thumb_func
 1110              		.fpu fpv5-d16
 1112              	_Z16setFineFrequencyff:
 1113              	.LVL58:
 1114              	.LFB4429:
 121:2Cats1Bag.cpp **** float setFineFrequency( float baseFrequency, float adjust ){ // FINE ADJUST THE FREQUENCY BY +/- 2 
 1115              		.loc 12 121 60 is_stmt 1 view -0
 1116              		.cfi_startproc
 1117              		@ args = 0, pretend = 0, frame = 0
 1118              		@ frame_needed = 0, uses_anonymous_args = 0
 1119              		@ link register save eliminated.
 122:2Cats1Bag.cpp **** 	return  fmap(
 1120              		.loc 12 122 2 view .LVU283
 123:2Cats1Bag.cpp **** 		adjust, 
 124:2Cats1Bag.cpp **** 		baseFrequency - ( baseFrequency * twoSemitonesRatio ), 
 1121              		.loc 12 124 35 is_stmt 0 view .LVU284
 1122 0000 094B     		ldr	r3, .L26
 122:2Cats1Bag.cpp **** 	return  fmap(
ARM GAS  C:\Users\danst\AppData\Local\Temp\ccAqJ3eO.s 			page 38


 1123              		.loc 12 122 14 view .LVU285
 1124 0002 B0EE407A 		vmov.f32	s14, s0
 1125              		.loc 12 124 35 view .LVU286
 1126 0006 D3ED007A 		vldr.32	s15, [r3]
 122:2Cats1Bag.cpp **** 	return  fmap(
 1127              		.loc 12 122 14 view .LVU287
 1128 000a A7EEC07A 		vfms.f32	s14, s15, s0
 1129 000e A7EE800A 		vfma.f32	s0, s15, s0
 1130              	.LVL59:
 1131              	.LBB497:
 1132              	.LBI497:
 161:../../DaisySP//Source/Utility/dsp.h **** {
 1133              		.loc 13 161 1 is_stmt 1 view .LVU288
 1134              	.LBE497:
 163:../../DaisySP//Source/Utility/dsp.h ****     {
 1135              		.loc 13 163 5 view .LVU289
 1136              	.LBB506:
 1137              	.LBB498:
 172:../../DaisySP//Source/Utility/dsp.h ****         default: return fclamp(min + in * (max - min), min, max);
 1138              		.loc 13 172 9 view .LVU290
 1139              		.loc 13 173 9 view .LVU291
 1140              		.loc 13 173 18 view .LVU292
 1141              		.loc 13 173 31 is_stmt 0 view .LVU293
 1142 0012 F0EE477A 		vmov.f32	s15, s14
 1143              		.loc 13 173 48 view .LVU294
 1144 0016 70EE476A 		vsub.f32	s13, s0, s14
 1145              		.loc 13 173 31 view .LVU295
 1146 001a E0EEA67A 		vfma.f32	s15, s1, s13
 1147              	.LVL60:
 1148              	.LBB499:
 1149              	.LBI499:
  56:../../DaisySP//Source/Utility/dsp.h **** {
 1150              		.loc 13 56 14 is_stmt 1 view .LVU296
 1151              	.LBE499:
 1152              	.LBE498:
 1153              	.LBE506:
  58:../../DaisySP//Source/Utility/dsp.h **** }
 1154              		.loc 13 58 5 view .LVU297
 1155              	.LBB507:
 1156              	.LBB505:
 1157              	.LBB504:
 1158              	.LBB500:
 1159              	.LBI500:
  32:../../DaisySP//Source/Utility/dsp.h **** {
 1160              		.loc 13 32 14 view .LVU298
 1161              	.LBB501:
  34:../../DaisySP//Source/Utility/dsp.h **** #ifdef __arm__
 1162              		.loc 13 34 5 view .LVU299
  36:../../DaisySP//Source/Utility/dsp.h **** #else
 1163              		.loc 13 36 5 view .LVU300
 1164              		.syntax unified
 1165              	@ 36 "../../DaisySP//Source/Utility/dsp.h" 1
 1166 001e C7FE877A 		vmaxnm.f32 s15, s15, s14
 1167              	@ 0 "" 2
 1168              	.LVL61:
  40:../../DaisySP//Source/Utility/dsp.h **** }
 1169              		.loc 13 40 5 view .LVU301
ARM GAS  C:\Users\danst\AppData\Local\Temp\ccAqJ3eO.s 			page 39


  40:../../DaisySP//Source/Utility/dsp.h **** }
 1170              		.loc 13 40 5 is_stmt 0 view .LVU302
 1171              		.thumb
 1172              		.syntax unified
 1173              	.LBE501:
 1174              	.LBE500:
 1175              	.LBB502:
 1176              	.LBI502:
  43:../../DaisySP//Source/Utility/dsp.h **** {
 1177              		.loc 13 43 14 is_stmt 1 view .LVU303
 1178              	.LBB503:
  45:../../DaisySP//Source/Utility/dsp.h **** #ifdef __arm__
 1179              		.loc 13 45 5 view .LVU304
  47:../../DaisySP//Source/Utility/dsp.h **** #else
 1180              		.loc 13 47 5 view .LVU305
 1181              		.syntax unified
 1182              	@ 47 "../../DaisySP//Source/Utility/dsp.h" 1
 1183 0022 87FEC00A 		vminnm.f32 s0, s15, s0
 1184              	@ 0 "" 2
 1185              	.LVL62:
  51:../../DaisySP//Source/Utility/dsp.h **** }
 1186              		.loc 13 51 5 view .LVU306
  51:../../DaisySP//Source/Utility/dsp.h **** }
 1187              		.loc 13 51 5 is_stmt 0 view .LVU307
 1188              		.thumb
 1189              		.syntax unified
 1190              	.LBE503:
 1191              	.LBE502:
 1192              	.LBE504:
 1193              	.LBE505:
 1194              	.LBE507:
 125:2Cats1Bag.cpp **** 		baseFrequency + ( baseFrequency * twoSemitonesRatio )
 126:2Cats1Bag.cpp **** 	);
 127:2Cats1Bag.cpp **** }
 1195              		.loc 12 127 1 view .LVU308
 1196 0026 7047     		bx	lr
 1197              	.L27:
 1198              		.align	2
 1199              	.L26:
 1200 0028 00000000 		.word	.LANCHOR20
 1201              		.cfi_endproc
 1202              	.LFE4429:
 1204              		.section	.text._Z19setPrimaryFrequencyv,"ax",%progbits
 1205              		.align	1
 1206              		.p2align 2,,3
 1207              		.global	_Z19setPrimaryFrequencyv
 1208              		.syntax unified
 1209              		.thumb
 1210              		.thumb_func
 1211              		.fpu fpv5-d16
 1213              	_Z19setPrimaryFrequencyv:
 1214              	.LFB4430:
 128:2Cats1Bag.cpp **** void setPrimaryFrequency(){  // CALCULATE AND SET PRIMARY FREQUENCY
 1215              		.loc 12 128 27 is_stmt 1 view -0
 1216              		.cfi_startproc
 1217              		@ args = 0, pretend = 0, frame = 0
 1218              		@ frame_needed = 0, uses_anonymous_args = 0
ARM GAS  C:\Users\danst\AppData\Local\Temp\ccAqJ3eO.s 			page 40


 129:2Cats1Bag.cpp **** 	primaryFrequency = setCoarseFrequency( mtof( primaryMidiNote ), primaryCoarsePitchAdjust );
 1219              		.loc 12 129 2 view .LVU310
 1220              	.LVL63:
 1221              	.LBB528:
 1222              	.LBI528:
 123:../../DaisySP//Source/Utility/dsp.h **** {
 1223              		.loc 13 123 14 view .LVU311
 1224              	.LBB529:
 125:../../DaisySP//Source/Utility/dsp.h **** }
 1225              		.loc 13 125 5 view .LVU312
 1226              	.LBE529:
 1227              	.LBE528:
 128:2Cats1Bag.cpp **** 	primaryFrequency = setCoarseFrequency( mtof( primaryMidiNote ), primaryCoarsePitchAdjust );
 1228              		.loc 12 128 27 is_stmt 0 view .LVU313
 1229 0000 08B5     		push	{r3, lr}
 1230              		.cfi_def_cfa_offset 8
 1231              		.cfi_offset 3, -8
 1232              		.cfi_offset 14, -4
 1233              		.loc 12 129 39 view .LVU314
 1234 0002 224B     		ldr	r3, .L30
 1235              	.LBB533:
 1236              	.LBB530:
 125:../../DaisySP//Source/Utility/dsp.h **** }
 1237              		.loc 13 125 16 view .LVU315
 1238 0004 F2EE080A 		vmov.f32	s1, #1.2e+1
 125:../../DaisySP//Source/Utility/dsp.h **** }
 1239              		.loc 13 125 23 view .LVU316
 1240 0008 9FED217A 		vldr.32	s14, .L30+4
 125:../../DaisySP//Source/Utility/dsp.h **** }
 1241              		.loc 13 125 16 view .LVU317
 1242 000c B0EE000A 		vmov.f32	s0, #2.0e+0
 1243              	.LBE530:
 1244              	.LBE533:
 1245              		.loc 12 129 39 view .LVU318
 1246 0010 D3ED007A 		vldr.32	s15, [r3]	@ int
 1247 0014 F8EEE77A 		vcvt.f32.s32	s15, s15
 1248              	.LVL64:
 1249              	.LBB534:
 1250              	.LBB531:
 125:../../DaisySP//Source/Utility/dsp.h **** }
 1251              		.loc 13 125 23 view .LVU319
 1252 0018 77EEC77A 		vsub.f32	s15, s15, s14
 1253              	.LVL65:
 125:../../DaisySP//Source/Utility/dsp.h **** }
 1254              		.loc 13 125 16 view .LVU320
 1255 001c C7EEA00A 		vdiv.f32	s1, s15, s1
 1256 0020 FFF7FEFF 		bl	powf
 1257              	.LVL66:
 125:../../DaisySP//Source/Utility/dsp.h **** }
 1258              		.loc 13 125 43 view .LVU321
 1259 0024 DFED1B6A 		vldr.32	s13, .L30+8
 1260              	.LBE531:
 1261              	.LBE534:
 1262              		.loc 12 129 39 view .LVU322
 1263 0028 1B4A     		ldr	r2, .L30+12
 1264              	.LBB535:
 1265              	.LBB536:
ARM GAS  C:\Users\danst\AppData\Local\Temp\ccAqJ3eO.s 			page 41


 124:2Cats1Bag.cpp **** 		baseFrequency + ( baseFrequency * twoSemitonesRatio )
 1266              		.loc 12 124 35 view .LVU323
 1267 002a 1C4B     		ldr	r3, .L30+16
 1268              	.LBE536:
 1269              	.LBE535:
 1270              	.LBB552:
 1271              	.LBB553:
 1272              	.LBB554:
 1273              	.LBB555:
 1274              		.loc 13 173 31 view .LVU324
 1275 002c 92ED005A 		vldr.32	s10, [r2]
 1276              	.LBE555:
 1277              	.LBE554:
 1278              	.LBE553:
 1279              	.LBE552:
 1280              	.LBB573:
 1281              	.LBB532:
 125:../../DaisySP//Source/Utility/dsp.h **** }
 1282              		.loc 13 125 43 view .LVU325
 1283 0030 20EE260A 		vmul.f32	s0, s0, s13
 1284              	.LVL67:
 125:../../DaisySP//Source/Utility/dsp.h **** }
 1285              		.loc 13 125 43 view .LVU326
 1286              	.LBE532:
 1287              	.LBE573:
 1288              	.LBB574:
 1289              	.LBI552:
 118:2Cats1Bag.cpp **** 	return fmap( adjust,  baseFrequency / 4.0, baseFrequency * 4.0 );
 1290              		.loc 12 118 7 is_stmt 1 view .LVU327
 1291              	.LBB567:
 119:2Cats1Bag.cpp **** }
 1292              		.loc 12 119 2 view .LVU328
 1293              	.LBE567:
 1294              	.LBE574:
 1295              	.LBB575:
 1296              	.LBB548:
 124:2Cats1Bag.cpp **** 		baseFrequency + ( baseFrequency * twoSemitonesRatio )
 1297              		.loc 12 124 35 is_stmt 0 view .LVU329
 1298 0034 D3ED006A 		vldr.32	s13, [r3]
 1299              	.LBE548:
 1300              	.LBE575:
 1301              	.LBB576:
 1302              	.LBB568:
 119:2Cats1Bag.cpp **** }
 1303              		.loc 12 119 13 view .LVU330
 1304 0038 B5EE007A 		vmov.f32	s14, #2.5e-1
 1305              	.LBE568:
 1306              	.LBE576:
 130:2Cats1Bag.cpp **** 	primaryFrequency = setFineFrequency ( primaryFrequency, primaryFinePitchAdjust );
 1307              		.loc 12 130 38 view .LVU331
 1308 003c 184A     		ldr	r2, .L30+20
 1309              	.LBB577:
 1310              	.LBB569:
 119:2Cats1Bag.cpp **** }
 1311              		.loc 12 119 13 view .LVU332
 1312 003e F1EE007A 		vmov.f32	s15, #4.0e+0
 1313              	.LBE569:
ARM GAS  C:\Users\danst\AppData\Local\Temp\ccAqJ3eO.s 			page 42


 1314              	.LBE577:
 1315              		.loc 12 130 19 view .LVU333
 1316 0042 184B     		ldr	r3, .L30+24
 1317              		.loc 12 130 38 view .LVU334
 1318 0044 92ED006A 		vldr.32	s12, [r2]
 1319              	.LBB578:
 1320              	.LBB570:
 119:2Cats1Bag.cpp **** }
 1321              		.loc 12 119 13 view .LVU335
 1322 0048 20EE077A 		vmul.f32	s14, s0, s14
 1323 004c 60EE277A 		vmul.f32	s15, s0, s15
 1324              	.LVL68:
 1325              	.LBB564:
 1326              	.LBI554:
 161:../../DaisySP//Source/Utility/dsp.h **** {
 1327              		.loc 13 161 1 is_stmt 1 view .LVU336
 1328              	.LBE564:
 1329              	.LBE570:
 1330              	.LBE578:
 163:../../DaisySP//Source/Utility/dsp.h ****     {
 1331              		.loc 13 163 5 view .LVU337
 1332              	.LBB579:
 1333              	.LBB571:
 1334              	.LBB565:
 1335              	.LBB562:
 172:../../DaisySP//Source/Utility/dsp.h ****         default: return fclamp(min + in * (max - min), min, max);
 1336              		.loc 13 172 9 view .LVU338
 1337              		.loc 13 173 9 view .LVU339
 1338              		.loc 13 173 18 view .LVU340
 1339              		.loc 13 173 31 is_stmt 0 view .LVU341
 1340 0050 B0EE470A 		vmov.f32	s0, s14
 1341              	.LVL69:
 1342              		.loc 13 173 48 view .LVU342
 1343 0054 77EEC75A 		vsub.f32	s11, s15, s14
 1344              		.loc 13 173 31 view .LVU343
 1345 0058 A5EE250A 		vfma.f32	s0, s10, s11
 1346              	.LVL70:
 1347              	.LBB556:
 1348              	.LBI556:
  56:../../DaisySP//Source/Utility/dsp.h **** {
 1349              		.loc 13 56 14 is_stmt 1 view .LVU344
 1350              	.LBE556:
 1351              	.LBE562:
 1352              	.LBE565:
 1353              	.LBE571:
 1354              	.LBE579:
  58:../../DaisySP//Source/Utility/dsp.h **** }
 1355              		.loc 13 58 5 view .LVU345
 1356              	.LBB580:
 1357              	.LBB572:
 1358              	.LBB566:
 1359              	.LBB563:
 1360              	.LBB561:
 1361              	.LBB557:
 1362              	.LBI557:
  32:../../DaisySP//Source/Utility/dsp.h **** {
 1363              		.loc 13 32 14 view .LVU346
ARM GAS  C:\Users\danst\AppData\Local\Temp\ccAqJ3eO.s 			page 43


 1364              	.LBB558:
  34:../../DaisySP//Source/Utility/dsp.h **** #ifdef __arm__
 1365              		.loc 13 34 5 view .LVU347
  36:../../DaisySP//Source/Utility/dsp.h **** #else
 1366              		.loc 13 36 5 view .LVU348
 1367              		.syntax unified
 1368              	@ 36 "../../DaisySP//Source/Utility/dsp.h" 1
 1369 005c 80FE070A 		vmaxnm.f32 s0, s0, s14
 1370              	@ 0 "" 2
 1371              	.LVL71:
  40:../../DaisySP//Source/Utility/dsp.h **** }
 1372              		.loc 13 40 5 view .LVU349
  40:../../DaisySP//Source/Utility/dsp.h **** }
 1373              		.loc 13 40 5 is_stmt 0 view .LVU350
 1374              		.thumb
 1375              		.syntax unified
 1376              	.LBE558:
 1377              	.LBE557:
 1378              	.LBB559:
 1379              	.LBI559:
  43:../../DaisySP//Source/Utility/dsp.h **** {
 1380              		.loc 13 43 14 is_stmt 1 view .LVU351
 1381              	.LBB560:
  45:../../DaisySP//Source/Utility/dsp.h **** #ifdef __arm__
 1382              		.loc 13 45 5 view .LVU352
  47:../../DaisySP//Source/Utility/dsp.h **** #else
 1383              		.loc 13 47 5 view .LVU353
 1384              		.syntax unified
 1385              	@ 47 "../../DaisySP//Source/Utility/dsp.h" 1
 1386 0060 80FE670A 		vminnm.f32 s0, s0, s15
 1387              	@ 0 "" 2
 1388              	.LVL72:
  51:../../DaisySP//Source/Utility/dsp.h **** }
 1389              		.loc 13 51 5 view .LVU354
  51:../../DaisySP//Source/Utility/dsp.h **** }
 1390              		.loc 13 51 5 is_stmt 0 view .LVU355
 1391              		.thumb
 1392              		.syntax unified
 1393              	.LBE560:
 1394              	.LBE559:
 1395              	.LBE561:
 1396              	.LBE563:
 1397              	.LBE566:
 1398              	.LBE572:
 1399              	.LBE580:
 1400              		.loc 12 130 2 is_stmt 1 view .LVU356
 1401              	.LBB581:
 1402              	.LBI535:
 121:2Cats1Bag.cpp **** 	return  fmap(
 1403              		.loc 12 121 7 view .LVU357
 1404              	.LBB549:
 122:2Cats1Bag.cpp **** 		adjust, 
 1405              		.loc 12 122 2 view .LVU358
 122:2Cats1Bag.cpp **** 		adjust, 
 1406              		.loc 12 122 14 is_stmt 0 view .LVU359
 1407 0064 B0EE407A 		vmov.f32	s14, s0
 1408 0068 A6EEC07A 		vfms.f32	s14, s13, s0
ARM GAS  C:\Users\danst\AppData\Local\Temp\ccAqJ3eO.s 			page 44


 1409 006c A6EE800A 		vfma.f32	s0, s13, s0
 1410              	.LVL73:
 1411              	.LBB537:
 1412              	.LBI537:
 161:../../DaisySP//Source/Utility/dsp.h **** {
 1413              		.loc 13 161 1 is_stmt 1 view .LVU360
 1414              	.LBE537:
 1415              	.LBE549:
 1416              	.LBE581:
 163:../../DaisySP//Source/Utility/dsp.h ****     {
 1417              		.loc 13 163 5 view .LVU361
 1418              	.LBB582:
 1419              	.LBB550:
 1420              	.LBB546:
 1421              	.LBB538:
 172:../../DaisySP//Source/Utility/dsp.h ****         default: return fclamp(min + in * (max - min), min, max);
 1422              		.loc 13 172 9 view .LVU362
 1423              		.loc 13 173 9 view .LVU363
 1424              		.loc 13 173 18 view .LVU364
 1425              		.loc 13 173 31 is_stmt 0 view .LVU365
 1426 0070 F0EE477A 		vmov.f32	s15, s14
 1427              		.loc 13 173 48 view .LVU366
 1428 0074 70EE476A 		vsub.f32	s13, s0, s14
 1429              		.loc 13 173 31 view .LVU367
 1430 0078 E6EE267A 		vfma.f32	s15, s12, s13
 1431              	.LVL74:
 1432              	.LBB539:
 1433              	.LBI539:
  56:../../DaisySP//Source/Utility/dsp.h **** {
 1434              		.loc 13 56 14 is_stmt 1 view .LVU368
 1435              	.LBE539:
 1436              	.LBE538:
 1437              	.LBE546:
 1438              	.LBE550:
 1439              	.LBE582:
  58:../../DaisySP//Source/Utility/dsp.h **** }
 1440              		.loc 13 58 5 view .LVU369
 1441              	.LBB583:
 1442              	.LBB551:
 1443              	.LBB547:
 1444              	.LBB545:
 1445              	.LBB544:
 1446              	.LBB540:
 1447              	.LBI540:
  32:../../DaisySP//Source/Utility/dsp.h **** {
 1448              		.loc 13 32 14 view .LVU370
 1449              	.LBB541:
  34:../../DaisySP//Source/Utility/dsp.h **** #ifdef __arm__
 1450              		.loc 13 34 5 view .LVU371
  36:../../DaisySP//Source/Utility/dsp.h **** #else
 1451              		.loc 13 36 5 view .LVU372
 1452              		.syntax unified
 1453              	@ 36 "../../DaisySP//Source/Utility/dsp.h" 1
 1454 007c C7FE877A 		vmaxnm.f32 s15, s15, s14
 1455              	@ 0 "" 2
 1456              	.LVL75:
  40:../../DaisySP//Source/Utility/dsp.h **** }
ARM GAS  C:\Users\danst\AppData\Local\Temp\ccAqJ3eO.s 			page 45


 1457              		.loc 13 40 5 view .LVU373
  40:../../DaisySP//Source/Utility/dsp.h **** }
 1458              		.loc 13 40 5 is_stmt 0 view .LVU374
 1459              		.thumb
 1460              		.syntax unified
 1461              	.LBE541:
 1462              	.LBE540:
 1463              	.LBB542:
 1464              	.LBI542:
  43:../../DaisySP//Source/Utility/dsp.h **** {
 1465              		.loc 13 43 14 is_stmt 1 view .LVU375
 1466              	.LBB543:
  45:../../DaisySP//Source/Utility/dsp.h **** #ifdef __arm__
 1467              		.loc 13 45 5 view .LVU376
  47:../../DaisySP//Source/Utility/dsp.h **** #else
 1468              		.loc 13 47 5 view .LVU377
 1469              		.syntax unified
 1470              	@ 47 "../../DaisySP//Source/Utility/dsp.h" 1
 1471 0080 87FEC00A 		vminnm.f32 s0, s15, s0
 1472              	@ 0 "" 2
 1473              	.LVL76:
  51:../../DaisySP//Source/Utility/dsp.h **** }
 1474              		.loc 13 51 5 view .LVU378
  51:../../DaisySP//Source/Utility/dsp.h **** }
 1475              		.loc 13 51 5 is_stmt 0 view .LVU379
 1476              		.thumb
 1477              		.syntax unified
 1478              	.LBE543:
 1479              	.LBE542:
 1480              	.LBE544:
 1481              	.LBE545:
 1482              	.LBE547:
 1483              	.LBE551:
 1484              	.LBE583:
 1485              		.loc 12 130 19 view .LVU380
 1486 0084 83ED000A 		vstr.32	s0, [r3]
 131:2Cats1Bag.cpp **** }
 1487              		.loc 12 131 1 view .LVU381
 1488 0088 08BD     		pop	{r3, pc}
 1489              	.L31:
 1490 008a 00BF     		.align	2
 1491              	.L30:
 1492 008c 00000000 		.word	.LANCHOR21
 1493 0090 00008A42 		.word	1116340224
 1494 0094 0000DC43 		.word	1138491392
 1495 0098 00000000 		.word	.LANCHOR17
 1496 009c 00000000 		.word	.LANCHOR20
 1497 00a0 00000000 		.word	.LANCHOR18
 1498 00a4 00000000 		.word	.LANCHOR8
 1499              		.cfi_endproc
 1500              	.LFE4430:
 1502              		.section	.text._Z21setModulatorFrequencyv,"ax",%progbits
 1503              		.align	1
 1504              		.p2align 2,,3
 1505              		.global	_Z21setModulatorFrequencyv
 1506              		.syntax unified
 1507              		.thumb
ARM GAS  C:\Users\danst\AppData\Local\Temp\ccAqJ3eO.s 			page 46


 1508              		.thumb_func
 1509              		.fpu fpv5-d16
 1511              	_Z21setModulatorFrequencyv:
 1512              	.LFB4431:
 132:2Cats1Bag.cpp **** void setModulatorFrequency(){ // CALCULATE AND SET MODULATOR FREQUENCY
 1513              		.loc 12 132 29 is_stmt 1 view -0
 1514              		.cfi_startproc
 1515              		@ args = 0, pretend = 0, frame = 0
 1516              		@ frame_needed = 0, uses_anonymous_args = 0
 133:2Cats1Bag.cpp **** 	// IF RANGE IS LFO, IGNORE MIDI AND MAP THE COARSE AND FINE KNOBS TO A RANGE OF 0.05 - 20HZ
 134:2Cats1Bag.cpp **** 	if( !modulatorRangeSelectButton.Pressed() )
 1517              		.loc 12 134 2 view .LVU383
 1518              	.LVL77:
 1519              	.LBB615:
 1520              	.LBI615:
  43:../../libDaisy//src/hid/switch.h **** 
  44:../../libDaisy//src/hid/switch.h ****     /** 
  45:../../libDaisy//src/hid/switch.h ****     Initializes the switch object with a given port/pin combo.
  46:../../libDaisy//src/hid/switch.h ****     \param pin port/pin object to tell the switch which hardware pin to use.
  47:../../libDaisy//src/hid/switch.h ****     \param update_rate Does nothing. Backwards compatibility until next breaking update.
  48:../../libDaisy//src/hid/switch.h ****     \param t switch type -- Default: TYPE_MOMENTARY
  49:../../libDaisy//src/hid/switch.h ****     \param pol switch polarity -- Default: POLARITY_INVERTED
  50:../../libDaisy//src/hid/switch.h ****     \param pu switch pull up/down -- Default: PULL_UP
  51:../../libDaisy//src/hid/switch.h ****     */
  52:../../libDaisy//src/hid/switch.h ****     void
  53:../../libDaisy//src/hid/switch.h ****     Init(dsy_gpio_pin pin, float update_rate, Type t, Polarity pol, Pull pu);
  54:../../libDaisy//src/hid/switch.h **** 
  55:../../libDaisy//src/hid/switch.h ****     /**
  56:../../libDaisy//src/hid/switch.h ****        Simplified Init.
  57:../../libDaisy//src/hid/switch.h ****        \param pin port/pin object to tell the switch which hardware pin to use.
  58:../../libDaisy//src/hid/switch.h ****        \param update_rate Left for backwards compatibility until next breaking change.
  59:../../libDaisy//src/hid/switch.h ****     */
  60:../../libDaisy//src/hid/switch.h ****     void Init(dsy_gpio_pin pin, float update_rate = 0.f);
  61:../../libDaisy//src/hid/switch.h **** 
  62:../../libDaisy//src/hid/switch.h ****     /** 
  63:../../libDaisy//src/hid/switch.h ****     Called at update_rate to debounce and handle timing for the switch.
  64:../../libDaisy//src/hid/switch.h ****     In order for events not to be missed, its important that the Edge/Pressed checks
  65:../../libDaisy//src/hid/switch.h ****     be made at the same rate as the debounce function is being called.
  66:../../libDaisy//src/hid/switch.h ****     */
  67:../../libDaisy//src/hid/switch.h ****     void Debounce();
  68:../../libDaisy//src/hid/switch.h **** 
  69:../../libDaisy//src/hid/switch.h ****     /** \return true if a button was just pressed. */
  70:../../libDaisy//src/hid/switch.h ****     inline bool RisingEdge() const { return updated_ ? state_ == 0x7f : false; }
  71:../../libDaisy//src/hid/switch.h **** 
  72:../../libDaisy//src/hid/switch.h ****     /** \return true if the button was just released */
  73:../../libDaisy//src/hid/switch.h ****     inline bool FallingEdge() const
  74:../../libDaisy//src/hid/switch.h ****     {
  75:../../libDaisy//src/hid/switch.h ****         return updated_ ? state_ == 0x80 : false;
  76:../../libDaisy//src/hid/switch.h ****     }
  77:../../libDaisy//src/hid/switch.h **** 
  78:../../libDaisy//src/hid/switch.h ****     /** \return true if the button is held down (or if the toggle is on) */
  79:../../libDaisy//src/hid/switch.h ****     inline bool Pressed() const { return state_ == 0xff; }
 1521              		.loc 1 79 17 view .LVU384
 1522              	.LBB616:
 1523              		.loc 1 79 35 view .LVU385
 1524              		.loc 1 79 35 is_stmt 0 view .LVU386
 1525              	.LBE616:
ARM GAS  C:\Users\danst\AppData\Local\Temp\ccAqJ3eO.s 			page 47


 1526              	.LBE615:
 132:2Cats1Bag.cpp **** 	// IF RANGE IS LFO, IGNORE MIDI AND MAP THE COARSE AND FINE KNOBS TO A RANGE OF 0.05 - 20HZ
 1527              		.loc 12 132 29 view .LVU387
 1528 0000 08B5     		push	{r3, lr}
 1529              		.cfi_def_cfa_offset 8
 1530              		.cfi_offset 3, -8
 1531              		.cfi_offset 14, -4
 1532              	.LBB618:
 1533              	.LBB617:
 1534              		.loc 1 79 42 view .LVU388
 1535 0002 234B     		ldr	r3, .L36
 1536              	.LBE617:
 1537              	.LBE618:
 1538              		.loc 12 134 2 view .LVU389
 1539 0004 9B7A     		ldrb	r3, [r3, #10]	@ zero_extendqisi2
 1540 0006 FF2B     		cmp	r3, #255
 1541 0008 14D0     		beq	.L33
 135:2Cats1Bag.cpp **** 		modulatorFrequency = fmap( modulatorCoarsePitchAdjust, 0.05, 20 );		
 1542              		.loc 12 135 3 is_stmt 1 view .LVU390
 1543              	.LVL78:
 1544              	.LBB619:
 1545              	.LBI619:
 161:../../DaisySP//Source/Utility/dsp.h **** {
 1546              		.loc 13 161 1 view .LVU391
 1547              	.LBE619:
 163:../../DaisySP//Source/Utility/dsp.h ****     {
 1548              		.loc 13 163 5 view .LVU392
 1549              	.LBB633:
 1550              	.LBB620:
 172:../../DaisySP//Source/Utility/dsp.h ****         default: return fclamp(min + in * (max - min), min, max);
 1551              		.loc 13 172 9 view .LVU393
 1552              		.loc 13 173 9 view .LVU394
 1553              		.loc 13 173 18 view .LVU395
 1554              		.loc 13 173 31 is_stmt 0 view .LVU396
 1555 000a 9FED227A 		vldr.32	s14, .L36+4
 1556              	.LBB621:
 1557              	.LBB622:
 1558              	.LBB623:
  47:../../DaisySP//Source/Utility/dsp.h **** #else
 1559              		.loc 13 47 5 view .LVU397
 1560 000e F3EE046A 		vmov.f32	s13, #2.0e+1
 1561              	.LBE623:
 1562              	.LBE622:
 1563              	.LBE621:
 1564              	.LBE620:
 1565              	.LBE633:
 1566              		.loc 12 135 28 view .LVU398
 1567 0012 214A     		ldr	r2, .L36+8
 1568              	.LBB634:
 1569              	.LBB630:
 1570              		.loc 13 173 31 view .LVU399
 1571 0014 F0EE477A 		vmov.f32	s15, s14
 1572 0018 9FED206A 		vldr.32	s12, .L36+12
 1573              	.LBE630:
 1574              	.LBE634:
 1575              		.loc 12 135 22 view .LVU400
 1576 001c 204B     		ldr	r3, .L36+16
ARM GAS  C:\Users\danst\AppData\Local\Temp\ccAqJ3eO.s 			page 48


 1577              	.LBB635:
 1578              	.LBB631:
 1579              		.loc 13 173 31 view .LVU401
 1580 001e D2ED005A 		vldr.32	s11, [r2]
 1581 0022 E5EE867A 		vfma.f32	s15, s11, s12
 1582              	.LVL79:
 1583              	.LBB628:
 1584              	.LBI621:
  56:../../DaisySP//Source/Utility/dsp.h **** {
 1585              		.loc 13 56 14 is_stmt 1 view .LVU402
 1586              	.LBE628:
 1587              	.LBE631:
 1588              	.LBE635:
  58:../../DaisySP//Source/Utility/dsp.h **** }
 1589              		.loc 13 58 5 view .LVU403
 1590              	.LBB636:
 1591              	.LBB632:
 1592              	.LBB629:
 1593              	.LBB625:
 1594              	.LBI625:
  32:../../DaisySP//Source/Utility/dsp.h **** {
 1595              		.loc 13 32 14 view .LVU404
 1596              	.LBB626:
  34:../../DaisySP//Source/Utility/dsp.h **** #ifdef __arm__
 1597              		.loc 13 34 5 view .LVU405
  36:../../DaisySP//Source/Utility/dsp.h **** #else
 1598              		.loc 13 36 5 view .LVU406
 1599              		.syntax unified
 1600              	@ 36 "../../DaisySP//Source/Utility/dsp.h" 1
 1601 0026 C7FE877A 		vmaxnm.f32 s15, s15, s14
 1602              	@ 0 "" 2
 1603              	.LVL80:
  40:../../DaisySP//Source/Utility/dsp.h **** }
 1604              		.loc 13 40 5 view .LVU407
  40:../../DaisySP//Source/Utility/dsp.h **** }
 1605              		.loc 13 40 5 is_stmt 0 view .LVU408
 1606              		.thumb
 1607              		.syntax unified
 1608              	.LBE626:
 1609              	.LBE625:
 1610              	.LBB627:
 1611              	.LBI622:
  43:../../DaisySP//Source/Utility/dsp.h **** {
 1612              		.loc 13 43 14 is_stmt 1 view .LVU409
 1613              	.LBB624:
  45:../../DaisySP//Source/Utility/dsp.h **** #ifdef __arm__
 1614              		.loc 13 45 5 view .LVU410
  47:../../DaisySP//Source/Utility/dsp.h **** #else
 1615              		.loc 13 47 5 view .LVU411
 1616              		.syntax unified
 1617              	@ 47 "../../DaisySP//Source/Utility/dsp.h" 1
 1618 002a C7FEE67A 		vminnm.f32 s15, s15, s13
 1619              	@ 0 "" 2
 1620              	.LVL81:
  51:../../DaisySP//Source/Utility/dsp.h **** }
 1621              		.loc 13 51 5 view .LVU412
  51:../../DaisySP//Source/Utility/dsp.h **** }
ARM GAS  C:\Users\danst\AppData\Local\Temp\ccAqJ3eO.s 			page 49


 1622              		.loc 13 51 5 is_stmt 0 view .LVU413
 1623              		.thumb
 1624              		.syntax unified
 1625              	.LBE624:
 1626              	.LBE627:
 1627              	.LBE629:
 1628              	.LBE632:
 1629              	.LBE636:
 1630              		.loc 12 135 22 view .LVU414
 1631 002e C3ED007A 		vstr.32	s15, [r3]
 136:2Cats1Bag.cpp **** 	else // ELSE SET FREQUENCY TO MIDI NOTE, COARSE, AND FINE KNOBS
 137:2Cats1Bag.cpp **** 		modulatorFrequency = setCoarseFrequency( mtof( modulatorMidiNote ), modulatorCoarsePitchAdjust );
 138:2Cats1Bag.cpp **** }
 1632              		.loc 12 138 1 view .LVU415
 1633 0032 08BD     		pop	{r3, pc}
 1634              	.L33:
 1635              	.LBB637:
 1636              	.LBI637:
 132:2Cats1Bag.cpp **** 	// IF RANGE IS LFO, IGNORE MIDI AND MAP THE COARSE AND FINE KNOBS TO A RANGE OF 0.05 - 20HZ
 1637              		.loc 12 132 6 is_stmt 1 view .LVU416
 1638              	.LBB638:
 137:2Cats1Bag.cpp **** }
 1639              		.loc 12 137 3 view .LVU417
 1640              	.LVL82:
 1641              	.LBB639:
 1642              	.LBI639:
 123:../../DaisySP//Source/Utility/dsp.h **** {
 1643              		.loc 13 123 14 view .LVU418
 1644              	.LBB640:
 125:../../DaisySP//Source/Utility/dsp.h **** }
 1645              		.loc 13 125 5 view .LVU419
 1646              	.LBE640:
 1647              	.LBE639:
 137:2Cats1Bag.cpp **** }
 1648              		.loc 12 137 42 is_stmt 0 view .LVU420
 1649 0034 1B4B     		ldr	r3, .L36+20
 1650              	.LBB644:
 1651              	.LBB641:
 125:../../DaisySP//Source/Utility/dsp.h **** }
 1652              		.loc 13 125 16 view .LVU421
 1653 0036 F2EE080A 		vmov.f32	s1, #1.2e+1
 125:../../DaisySP//Source/Utility/dsp.h **** }
 1654              		.loc 13 125 23 view .LVU422
 1655 003a 9FED1B7A 		vldr.32	s14, .L36+24
 125:../../DaisySP//Source/Utility/dsp.h **** }
 1656              		.loc 13 125 16 view .LVU423
 1657 003e B0EE000A 		vmov.f32	s0, #2.0e+0
 1658              	.LBE641:
 1659              	.LBE644:
 137:2Cats1Bag.cpp **** }
 1660              		.loc 12 137 42 view .LVU424
 1661 0042 D3ED007A 		vldr.32	s15, [r3]	@ int
 1662 0046 F8EEE77A 		vcvt.f32.s32	s15, s15
 1663              	.LVL83:
 1664              	.LBB645:
 1665              	.LBB642:
 125:../../DaisySP//Source/Utility/dsp.h **** }
ARM GAS  C:\Users\danst\AppData\Local\Temp\ccAqJ3eO.s 			page 50


 1666              		.loc 13 125 23 view .LVU425
 1667 004a 77EEC77A 		vsub.f32	s15, s15, s14
 1668              	.LVL84:
 125:../../DaisySP//Source/Utility/dsp.h **** }
 1669              		.loc 13 125 16 view .LVU426
 1670 004e C7EEA00A 		vdiv.f32	s1, s15, s1
 1671 0052 FFF7FEFF 		bl	powf
 1672              	.LVL85:
 125:../../DaisySP//Source/Utility/dsp.h **** }
 1673              		.loc 13 125 43 view .LVU427
 1674 0056 9FED157A 		vldr.32	s14, .L36+28
 1675              	.LBE642:
 1676              	.LBE645:
 137:2Cats1Bag.cpp **** }
 1677              		.loc 12 137 42 view .LVU428
 1678 005a 0F4A     		ldr	r2, .L36+8
 137:2Cats1Bag.cpp **** }
 1679              		.loc 12 137 22 view .LVU429
 1680 005c 104B     		ldr	r3, .L36+16
 1681              	.LBB646:
 1682              	.LBB647:
 1683              	.LBB648:
 1684              	.LBB649:
 1685              		.loc 13 173 31 view .LVU430
 1686 005e 92ED006A 		vldr.32	s12, [r2]
 1687              	.LBE649:
 1688              	.LBE648:
 119:2Cats1Bag.cpp **** }
 1689              		.loc 12 119 13 view .LVU431
 1690 0062 F5EE007A 		vmov.f32	s15, #2.5e-1
 1691 0066 F1EE006A 		vmov.f32	s13, #4.0e+0
 1692              	.LBE647:
 1693              	.LBE646:
 1694              	.LBB664:
 1695              	.LBB643:
 125:../../DaisySP//Source/Utility/dsp.h **** }
 1696              		.loc 13 125 43 view .LVU432
 1697 006a 20EE070A 		vmul.f32	s0, s0, s14
 1698              	.LVL86:
 125:../../DaisySP//Source/Utility/dsp.h **** }
 1699              		.loc 13 125 43 view .LVU433
 1700              	.LBE643:
 1701              	.LBE664:
 1702              	.LBB665:
 1703              	.LBI646:
 118:2Cats1Bag.cpp **** 	return fmap( adjust,  baseFrequency / 4.0, baseFrequency * 4.0 );
 1704              		.loc 12 118 7 is_stmt 1 view .LVU434
 1705              	.LBB661:
 119:2Cats1Bag.cpp **** }
 1706              		.loc 12 119 2 view .LVU435
 119:2Cats1Bag.cpp **** }
 1707              		.loc 12 119 13 is_stmt 0 view .LVU436
 1708 006e 20EE277A 		vmul.f32	s14, s0, s15
 1709 0072 20EE260A 		vmul.f32	s0, s0, s13
 1710              	.LVL87:
 1711              	.LBB658:
 1712              	.LBI648:
ARM GAS  C:\Users\danst\AppData\Local\Temp\ccAqJ3eO.s 			page 51


 161:../../DaisySP//Source/Utility/dsp.h **** {
 1713              		.loc 13 161 1 is_stmt 1 view .LVU437
 1714              	.LBE658:
 1715              	.LBE661:
 1716              	.LBE665:
 1717              	.LBE638:
 1718              	.LBE637:
 163:../../DaisySP//Source/Utility/dsp.h ****     {
 1719              		.loc 13 163 5 view .LVU438
 1720              	.LBB670:
 1721              	.LBB668:
 1722              	.LBB666:
 1723              	.LBB662:
 1724              	.LBB659:
 1725              	.LBB656:
 172:../../DaisySP//Source/Utility/dsp.h ****         default: return fclamp(min + in * (max - min), min, max);
 1726              		.loc 13 172 9 view .LVU439
 1727              		.loc 13 173 9 view .LVU440
 1728              		.loc 13 173 18 view .LVU441
 1729              		.loc 13 173 31 is_stmt 0 view .LVU442
 1730 0076 F0EE477A 		vmov.f32	s15, s14
 1731              		.loc 13 173 48 view .LVU443
 1732 007a 70EE476A 		vsub.f32	s13, s0, s14
 1733              		.loc 13 173 31 view .LVU444
 1734 007e E6EE267A 		vfma.f32	s15, s12, s13
 1735              	.LVL88:
 1736              	.LBB650:
 1737              	.LBI650:
  56:../../DaisySP//Source/Utility/dsp.h **** {
 1738              		.loc 13 56 14 is_stmt 1 view .LVU445
 1739              	.LBE650:
 1740              	.LBE656:
 1741              	.LBE659:
 1742              	.LBE662:
 1743              	.LBE666:
 1744              	.LBE668:
 1745              	.LBE670:
  58:../../DaisySP//Source/Utility/dsp.h **** }
 1746              		.loc 13 58 5 view .LVU446
 1747              	.LBB671:
 1748              	.LBB669:
 1749              	.LBB667:
 1750              	.LBB663:
 1751              	.LBB660:
 1752              	.LBB657:
 1753              	.LBB655:
 1754              	.LBB651:
 1755              	.LBI651:
  32:../../DaisySP//Source/Utility/dsp.h **** {
 1756              		.loc 13 32 14 view .LVU447
 1757              	.LBB652:
  34:../../DaisySP//Source/Utility/dsp.h **** #ifdef __arm__
 1758              		.loc 13 34 5 view .LVU448
  36:../../DaisySP//Source/Utility/dsp.h **** #else
 1759              		.loc 13 36 5 view .LVU449
 1760              		.syntax unified
 1761              	@ 36 "../../DaisySP//Source/Utility/dsp.h" 1
ARM GAS  C:\Users\danst\AppData\Local\Temp\ccAqJ3eO.s 			page 52


 1762 0082 C7FE877A 		vmaxnm.f32 s15, s15, s14
 1763              	@ 0 "" 2
 1764              	.LVL89:
  40:../../DaisySP//Source/Utility/dsp.h **** }
 1765              		.loc 13 40 5 view .LVU450
  40:../../DaisySP//Source/Utility/dsp.h **** }
 1766              		.loc 13 40 5 is_stmt 0 view .LVU451
 1767              		.thumb
 1768              		.syntax unified
 1769              	.LBE652:
 1770              	.LBE651:
 1771              	.LBB653:
 1772              	.LBI653:
  43:../../DaisySP//Source/Utility/dsp.h **** {
 1773              		.loc 13 43 14 is_stmt 1 view .LVU452
 1774              	.LBB654:
  45:../../DaisySP//Source/Utility/dsp.h **** #ifdef __arm__
 1775              		.loc 13 45 5 view .LVU453
  47:../../DaisySP//Source/Utility/dsp.h **** #else
 1776              		.loc 13 47 5 view .LVU454
 1777              		.syntax unified
 1778              	@ 47 "../../DaisySP//Source/Utility/dsp.h" 1
 1779 0086 87FEC00A 		vminnm.f32 s0, s15, s0
 1780              	@ 0 "" 2
 1781              	.LVL90:
  51:../../DaisySP//Source/Utility/dsp.h **** }
 1782              		.loc 13 51 5 view .LVU455
  51:../../DaisySP//Source/Utility/dsp.h **** }
 1783              		.loc 13 51 5 is_stmt 0 view .LVU456
 1784              		.thumb
 1785              		.syntax unified
 1786              	.LBE654:
 1787              	.LBE653:
 1788              	.LBE655:
 1789              	.LBE657:
 1790              	.LBE660:
 1791              	.LBE663:
 1792              	.LBE667:
 137:2Cats1Bag.cpp **** }
 1793              		.loc 12 137 22 view .LVU457
 1794 008a 83ED000A 		vstr.32	s0, [r3]
 1795              	.LBE669:
 1796              	.LBE671:
 1797              		.loc 12 138 1 view .LVU458
 1798 008e 08BD     		pop	{r3, pc}
 1799              	.L37:
 1800              		.align	2
 1801              	.L36:
 1802 0090 00000000 		.word	.LANCHOR22
 1803 0094 CDCC4C3D 		.word	1028443341
 1804 0098 00000000 		.word	.LANCHOR15
 1805 009c 9A999F41 		.word	1100978586
 1806 00a0 00000000 		.word	.LANCHOR2
 1807 00a4 00000000 		.word	.LANCHOR23
 1808 00a8 00008A42 		.word	1116340224
 1809 00ac 0000DC43 		.word	1138491392
 1810              		.cfi_endproc
ARM GAS  C:\Users\danst\AppData\Local\Temp\ccAqJ3eO.s 			page 53


 1811              	.LFE4431:
 1813              		.section	.text._Z15debounceButtonsv,"ax",%progbits
 1814              		.align	1
 1815              		.p2align 2,,3
 1816              		.global	_Z15debounceButtonsv
 1817              		.syntax unified
 1818              		.thumb
 1819              		.thumb_func
 1820              		.fpu fpv5-d16
 1822              	_Z15debounceButtonsv:
 1823              	.LFB4432:
 139:2Cats1Bag.cpp **** void debounceButtons(){
 1824              		.loc 12 139 23 is_stmt 1 view -0
 1825              		.cfi_startproc
 1826              		@ args = 0, pretend = 0, frame = 0
 1827              		@ frame_needed = 0, uses_anonymous_args = 0
 140:2Cats1Bag.cpp **** 	modulatorRangeSelectButton.Debounce();
 1828              		.loc 12 140 2 view .LVU460
 139:2Cats1Bag.cpp **** void debounceButtons(){
 1829              		.loc 12 139 23 is_stmt 0 view .LVU461
 1830 0000 08B5     		push	{r3, lr}
 1831              		.cfi_def_cfa_offset 8
 1832              		.cfi_offset 3, -8
 1833              		.cfi_offset 14, -4
 1834              		.loc 12 140 37 view .LVU462
 1835 0002 0748     		ldr	r0, .L40
 1836 0004 FFF7FEFF 		bl	_ZN5daisy6Switch8DebounceEv
 1837              	.LVL91:
 141:2Cats1Bag.cpp **** 	modulatorWaveSelectButton.Debounce();
 1838              		.loc 12 141 2 is_stmt 1 view .LVU463
 1839              		.loc 12 141 36 is_stmt 0 view .LVU464
 1840 0008 0648     		ldr	r0, .L40+4
 1841 000a FFF7FEFF 		bl	_ZN5daisy6Switch8DebounceEv
 1842              	.LVL92:
 142:2Cats1Bag.cpp **** 	primaryWaveSelectButton.Debounce(); 
 1843              		.loc 12 142 2 is_stmt 1 view .LVU465
 1844              		.loc 12 142 34 is_stmt 0 view .LVU466
 1845 000e 0648     		ldr	r0, .L40+8
 1846 0010 FFF7FEFF 		bl	_ZN5daisy6Switch8DebounceEv
 1847              	.LVL93:
 143:2Cats1Bag.cpp **** 	syncSelectButton.Debounce();
 1848              		.loc 12 143 2 is_stmt 1 view .LVU467
 1849              		.loc 12 143 27 is_stmt 0 view .LVU468
 1850 0014 0548     		ldr	r0, .L40+12
 144:2Cats1Bag.cpp **** }
 1851              		.loc 12 144 1 view .LVU469
 1852 0016 BDE80840 		pop	{r3, lr}
 1853              		.cfi_restore 14
 1854              		.cfi_restore 3
 1855              		.cfi_def_cfa_offset 0
 143:2Cats1Bag.cpp **** 	syncSelectButton.Debounce();
 1856              		.loc 12 143 27 view .LVU470
 1857 001a FFF7FEBF 		b	_ZN5daisy6Switch8DebounceEv
 1858              	.LVL94:
 1859              	.L41:
 1860 001e 00BF     		.align	2
 1861              	.L40:
ARM GAS  C:\Users\danst\AppData\Local\Temp\ccAqJ3eO.s 			page 54


 1862 0020 00000000 		.word	.LANCHOR22
 1863 0024 00000000 		.word	.LANCHOR24
 1864 0028 00000000 		.word	.LANCHOR25
 1865 002c 00000000 		.word	.LANCHOR26
 1866              		.cfi_endproc
 1867              	.LFE4432:
 1869              		.section	.text._ZN5daisy11MidiHandlerINS_16MidiUsbTransportEE5ParseEh,"axG",%progbits,_ZN5daisy11M
 1870              		.align	1
 1871              		.p2align 2,,3
 1872              		.weak	_ZN5daisy11MidiHandlerINS_16MidiUsbTransportEE5ParseEh
 1873              		.syntax unified
 1874              		.thumb
 1875              		.thumb_func
 1876              		.fpu fpv5-d16
 1878              	_ZN5daisy11MidiHandlerINS_16MidiUsbTransportEE5ParseEh:
 1879              	.LVL95:
 1880              	.LFB4864:
  86:../../libDaisy//src/hid/midi.h **** 
  87:../../libDaisy//src/hid/midi.h ****     struct Config
  88:../../libDaisy//src/hid/midi.h ****     {
  89:../../libDaisy//src/hid/midi.h ****         typename Transport::Config transport_config;
  90:../../libDaisy//src/hid/midi.h ****     };
  91:../../libDaisy//src/hid/midi.h **** 
  92:../../libDaisy//src/hid/midi.h ****     /** Initializes the MidiHandler 
  93:../../libDaisy//src/hid/midi.h ****      *  \param config Configuration structure used to define specifics to the MIDI Handler.
  94:../../libDaisy//src/hid/midi.h ****      */
  95:../../libDaisy//src/hid/midi.h ****     void Init(Config config)
  96:../../libDaisy//src/hid/midi.h ****     {
  97:../../libDaisy//src/hid/midi.h ****         config_ = config;
  98:../../libDaisy//src/hid/midi.h **** 
  99:../../libDaisy//src/hid/midi.h ****         transport_.Init(config_.transport_config);
 100:../../libDaisy//src/hid/midi.h **** 
 101:../../libDaisy//src/hid/midi.h ****         event_q_.Init();
 102:../../libDaisy//src/hid/midi.h ****         incoming_message_.type = MessageLast;
 103:../../libDaisy//src/hid/midi.h ****         pstate_                = ParserEmpty;
 104:../../libDaisy//src/hid/midi.h ****     }
 105:../../libDaisy//src/hid/midi.h **** 
 106:../../libDaisy//src/hid/midi.h ****     /** Starts listening on the selected input mode(s). MidiEvent Queue will begin to fill, and can
 107:../../libDaisy//src/hid/midi.h ****     void StartReceive() { transport_.StartRx(); }
 108:../../libDaisy//src/hid/midi.h **** 
 109:../../libDaisy//src/hid/midi.h ****     /** Start listening */
 110:../../libDaisy//src/hid/midi.h ****     void Listen()
 111:../../libDaisy//src/hid/midi.h ****     {
 112:../../libDaisy//src/hid/midi.h ****         uint32_t now;
 113:../../libDaisy//src/hid/midi.h ****         now = System::GetNow();
 114:../../libDaisy//src/hid/midi.h ****         while(transport_.Readable())
 115:../../libDaisy//src/hid/midi.h ****         {
 116:../../libDaisy//src/hid/midi.h ****             last_read_ = now;
 117:../../libDaisy//src/hid/midi.h ****             Parse(transport_.Rx());
 118:../../libDaisy//src/hid/midi.h ****         }
 119:../../libDaisy//src/hid/midi.h **** 
 120:../../libDaisy//src/hid/midi.h ****         // In case of UART Error, (particularly
 121:../../libDaisy//src/hid/midi.h ****         //  overrun error), UART disables itself.
 122:../../libDaisy//src/hid/midi.h ****         // Flush the buff, and restart.
 123:../../libDaisy//src/hid/midi.h ****         if(!transport_.RxActive())
 124:../../libDaisy//src/hid/midi.h ****         {
 125:../../libDaisy//src/hid/midi.h ****             pstate_ = ParserEmpty;
ARM GAS  C:\Users\danst\AppData\Local\Temp\ccAqJ3eO.s 			page 55


 126:../../libDaisy//src/hid/midi.h ****             transport_.FlushRx();
 127:../../libDaisy//src/hid/midi.h ****             StartReceive();
 128:../../libDaisy//src/hid/midi.h ****         }
 129:../../libDaisy//src/hid/midi.h ****     }
 130:../../libDaisy//src/hid/midi.h **** 
 131:../../libDaisy//src/hid/midi.h ****     /** Checks if there are unhandled messages in the queue 
 132:../../libDaisy//src/hid/midi.h ****     \return True if there are events to be handled, else false.
 133:../../libDaisy//src/hid/midi.h ****      */
 134:../../libDaisy//src/hid/midi.h ****     bool HasEvents() const { return event_q_.readable(); }
 135:../../libDaisy//src/hid/midi.h **** 
 136:../../libDaisy//src/hid/midi.h **** 
 137:../../libDaisy//src/hid/midi.h ****     /** Pops the oldest unhandled MidiEvent from the internal queue
 138:../../libDaisy//src/hid/midi.h ****     \return The event to be handled
 139:../../libDaisy//src/hid/midi.h ****      */
 140:../../libDaisy//src/hid/midi.h ****     MidiEvent PopEvent() { return event_q_.Read(); }
 141:../../libDaisy//src/hid/midi.h **** 
 142:../../libDaisy//src/hid/midi.h ****     /** SendMessage
 143:../../libDaisy//src/hid/midi.h ****     Send raw bytes as message
 144:../../libDaisy//src/hid/midi.h ****     */
 145:../../libDaisy//src/hid/midi.h ****     void SendMessage(uint8_t* bytes, size_t size)
 146:../../libDaisy//src/hid/midi.h ****     {
 147:../../libDaisy//src/hid/midi.h ****         transport_.Tx(bytes, size);
 148:../../libDaisy//src/hid/midi.h ****     }
 149:../../libDaisy//src/hid/midi.h **** 
 150:../../libDaisy//src/hid/midi.h ****     /** Feed in bytes to state machine from a queue.
 151:../../libDaisy//src/hid/midi.h ****     Populates internal FIFO queue with MIDI Messages
 152:../../libDaisy//src/hid/midi.h ****     For example with uart:
 153:../../libDaisy//src/hid/midi.h ****     midi.Parse(uart.PopRx());
 154:../../libDaisy//src/hid/midi.h ****     \param byte &
 155:../../libDaisy//src/hid/midi.h ****     */
 156:../../libDaisy//src/hid/midi.h ****     void Parse(uint8_t byte)
 1881              		.loc 10 156 10 is_stmt 1 view -0
 1882              		.cfi_startproc
 1883              		@ args = 0, pretend = 0, frame = 288
 1884              		@ frame_needed = 0, uses_anonymous_args = 0
 1885              		.loc 10 156 10 is_stmt 0 view .LVU472
 1886 0000 0379     		ldrb	r3, [r0, #4]	@ zero_extendqisi2
 1887 0002 2DE9F041 		push	{r4, r5, r6, r7, r8, lr}
 1888              		.cfi_def_cfa_offset 24
 1889              		.cfi_offset 4, -24
 1890              		.cfi_offset 5, -20
 1891              		.cfi_offset 6, -16
 1892              		.cfi_offset 7, -12
 1893              		.cfi_offset 8, -8
 1894              		.cfi_offset 14, -4
 1895 0006 0446     		mov	r4, r0
 1896 0008 C8B0     		sub	sp, sp, #288
 1897              		.cfi_def_cfa_offset 312
 1898 000a 032B     		cmp	r3, #3
 1899 000c 0CD8     		bhi	.L42
 1900 000e DFE803F0 		tbb	[pc, r3]
 1901              	.L45:
 1902 0012 6A       		.byte	(.L48-.L45)/2
 1903 0013 1D       		.byte	(.L47-.L45)/2
 1904 0014 02       		.byte	(.L46-.L45)/2
 1905 0015 0E       		.byte	(.L44-.L45)/2
 1906              		.p2align 1
ARM GAS  C:\Users\danst\AppData\Local\Temp\ccAqJ3eO.s 			page 56


 1907              	.L46:
 157:../../libDaisy//src/hid/midi.h ****     {
 158:../../libDaisy//src/hid/midi.h ****         switch(pstate_)
 159:../../libDaisy//src/hid/midi.h ****         {
 160:../../libDaisy//src/hid/midi.h ****             case ParserEmpty:
 161:../../libDaisy//src/hid/midi.h ****                 // check byte for valid Status Byte
 162:../../libDaisy//src/hid/midi.h ****                 if(byte & kStatusByteMask)
 163:../../libDaisy//src/hid/midi.h ****                 {
 164:../../libDaisy//src/hid/midi.h ****                     // Get MessageType, and Channel
 165:../../libDaisy//src/hid/midi.h ****                     incoming_message_.channel = byte & kChannelMask;
 166:../../libDaisy//src/hid/midi.h ****                     incoming_message_.type    = static_cast<MidiMessageType>(
 167:../../libDaisy//src/hid/midi.h ****                         (byte & kMessageMask) >> 4);
 168:../../libDaisy//src/hid/midi.h **** 
 169:../../libDaisy//src/hid/midi.h ****                     // Validate, and move on.
 170:../../libDaisy//src/hid/midi.h ****                     if(incoming_message_.type < MessageLast)
 171:../../libDaisy//src/hid/midi.h ****                     {
 172:../../libDaisy//src/hid/midi.h ****                         pstate_ = ParserHasStatus;
 173:../../libDaisy//src/hid/midi.h ****                         // Mark this status byte as running_status
 174:../../libDaisy//src/hid/midi.h ****                         running_status_ = incoming_message_.type;
 175:../../libDaisy//src/hid/midi.h **** 
 176:../../libDaisy//src/hid/midi.h ****                         if(running_status_ == SystemCommon)
 177:../../libDaisy//src/hid/midi.h ****                         {
 178:../../libDaisy//src/hid/midi.h ****                             incoming_message_.channel = 0;
 179:../../libDaisy//src/hid/midi.h ****                             //system real time = 1111 1xxx
 180:../../libDaisy//src/hid/midi.h ****                             if(byte & 0x08)
 181:../../libDaisy//src/hid/midi.h ****                             {
 182:../../libDaisy//src/hid/midi.h ****                                 incoming_message_.type = SystemRealTime;
 183:../../libDaisy//src/hid/midi.h ****                                 running_status_        = SystemRealTime;
 184:../../libDaisy//src/hid/midi.h ****                                 incoming_message_.srt_type
 185:../../libDaisy//src/hid/midi.h ****                                     = static_cast<SystemRealTimeType>(
 186:../../libDaisy//src/hid/midi.h ****                                         byte & kSystemRealTimeMask);
 187:../../libDaisy//src/hid/midi.h **** 
 188:../../libDaisy//src/hid/midi.h ****                                 //short circuit to start
 189:../../libDaisy//src/hid/midi.h ****                                 pstate_ = ParserEmpty;
 190:../../libDaisy//src/hid/midi.h ****                                 event_q_.Write(incoming_message_);
 191:../../libDaisy//src/hid/midi.h ****                             }
 192:../../libDaisy//src/hid/midi.h ****                             //system common
 193:../../libDaisy//src/hid/midi.h ****                             else
 194:../../libDaisy//src/hid/midi.h ****                             {
 195:../../libDaisy//src/hid/midi.h ****                                 incoming_message_.sc_type
 196:../../libDaisy//src/hid/midi.h ****                                     = static_cast<SystemCommonType>(byte
 197:../../libDaisy//src/hid/midi.h ****                                                                     & 0x07);
 198:../../libDaisy//src/hid/midi.h ****                                 //sysex
 199:../../libDaisy//src/hid/midi.h ****                                 if(incoming_message_.sc_type == SystemExclusive)
 200:../../libDaisy//src/hid/midi.h ****                                 {
 201:../../libDaisy//src/hid/midi.h ****                                     pstate_ = ParserSysEx;
 202:../../libDaisy//src/hid/midi.h ****                                     incoming_message_.sysex_message_len = 0;
 203:../../libDaisy//src/hid/midi.h ****                                 }
 204:../../libDaisy//src/hid/midi.h ****                                 //short circuit
 205:../../libDaisy//src/hid/midi.h ****                                 else if(incoming_message_.sc_type > SongSelect)
 206:../../libDaisy//src/hid/midi.h ****                                 {
 207:../../libDaisy//src/hid/midi.h ****                                     pstate_ = ParserEmpty;
 208:../../libDaisy//src/hid/midi.h ****                                     event_q_.Write(incoming_message_);
 209:../../libDaisy//src/hid/midi.h ****                                 }
 210:../../libDaisy//src/hid/midi.h ****                             }
 211:../../libDaisy//src/hid/midi.h ****                         }
 212:../../libDaisy//src/hid/midi.h ****                     }
ARM GAS  C:\Users\danst\AppData\Local\Temp\ccAqJ3eO.s 			page 57


 213:../../libDaisy//src/hid/midi.h ****                     // Else we'll keep waiting for a valid incoming status byte
 214:../../libDaisy//src/hid/midi.h ****                 }
 215:../../libDaisy//src/hid/midi.h ****                 else
 216:../../libDaisy//src/hid/midi.h ****                 {
 217:../../libDaisy//src/hid/midi.h ****                     // Handle as running status
 218:../../libDaisy//src/hid/midi.h ****                     incoming_message_.type    = running_status_;
 219:../../libDaisy//src/hid/midi.h ****                     incoming_message_.data[0] = byte & kDataByteMask;
 220:../../libDaisy//src/hid/midi.h ****                     pstate_                   = ParserHasData0;
 221:../../libDaisy//src/hid/midi.h ****                 }
 222:../../libDaisy//src/hid/midi.h ****                 break;
 223:../../libDaisy//src/hid/midi.h ****             case ParserHasStatus:
 224:../../libDaisy//src/hid/midi.h ****                 if((byte & kStatusByteMask) == 0)
 225:../../libDaisy//src/hid/midi.h ****                 {
 226:../../libDaisy//src/hid/midi.h ****                     incoming_message_.data[0] = byte & kDataByteMask;
 227:../../libDaisy//src/hid/midi.h ****                     if(running_status_ == ChannelPressure
 228:../../libDaisy//src/hid/midi.h ****                        || running_status_ == ProgramChange
 229:../../libDaisy//src/hid/midi.h ****                        || incoming_message_.sc_type == MTCQuarterFrame
 230:../../libDaisy//src/hid/midi.h ****                        || incoming_message_.sc_type == SongSelect)
 231:../../libDaisy//src/hid/midi.h ****                     {
 232:../../libDaisy//src/hid/midi.h ****                         //these are just one data byte, so we short circuit back to start
 233:../../libDaisy//src/hid/midi.h ****                         pstate_ = ParserEmpty;
 234:../../libDaisy//src/hid/midi.h ****                         event_q_.Write(incoming_message_);
 235:../../libDaisy//src/hid/midi.h ****                     }
 236:../../libDaisy//src/hid/midi.h ****                     else
 237:../../libDaisy//src/hid/midi.h ****                     {
 238:../../libDaisy//src/hid/midi.h ****                         pstate_ = ParserHasData0;
 239:../../libDaisy//src/hid/midi.h ****                     }
 240:../../libDaisy//src/hid/midi.h **** 
 241:../../libDaisy//src/hid/midi.h ****                     //ChannelModeMessages (reserved Control Changes)
 242:../../libDaisy//src/hid/midi.h ****                     if(running_status_ == ControlChange
 243:../../libDaisy//src/hid/midi.h ****                        && incoming_message_.data[0] > 119)
 244:../../libDaisy//src/hid/midi.h ****                     {
 245:../../libDaisy//src/hid/midi.h ****                         incoming_message_.type = ChannelMode;
 246:../../libDaisy//src/hid/midi.h ****                         running_status_        = ChannelMode;
 247:../../libDaisy//src/hid/midi.h ****                         incoming_message_.cm_type
 248:../../libDaisy//src/hid/midi.h ****                             = static_cast<ChannelModeType>(
 249:../../libDaisy//src/hid/midi.h ****                                 incoming_message_.data[0] - 120);
 250:../../libDaisy//src/hid/midi.h ****                     }
 251:../../libDaisy//src/hid/midi.h ****                 }
 252:../../libDaisy//src/hid/midi.h ****                 else
 253:../../libDaisy//src/hid/midi.h ****                 {
 254:../../libDaisy//src/hid/midi.h ****                     // invalid message go back to start ;p
 255:../../libDaisy//src/hid/midi.h ****                     pstate_ = ParserEmpty;
 256:../../libDaisy//src/hid/midi.h ****                 }
 257:../../libDaisy//src/hid/midi.h ****                 break;
 258:../../libDaisy//src/hid/midi.h ****             case ParserHasData0:
 259:../../libDaisy//src/hid/midi.h ****                 if((byte & kStatusByteMask) == 0)
 1908              		.loc 10 259 28 view .LVU473
 1909 0016 00F51045 		add	r5, r0, #36864
 1910              		.loc 10 259 26 view .LVU474
 1911 001a 95F8AC30 		ldrb	r3, [r5, #172]	@ zero_extendqisi2
 1912              		.loc 10 259 17 view .LVU475
 1913 001e 0B40     		ands	r3, r1, r3
 1914 0020 00F09580 		beq	.L92
 1915              	.L56:
 255:../../libDaisy//src/hid/midi.h ****                 }
 1916              		.loc 10 255 29 view .LVU476
ARM GAS  C:\Users\danst\AppData\Local\Temp\ccAqJ3eO.s 			page 58


 1917 0024 0023     		movs	r3, #0
 1918 0026 2371     		strb	r3, [r4, #4]
 1919              	.LVL96:
 1920              	.L42:
 260:../../libDaisy//src/hid/midi.h ****                 {
 261:../../libDaisy//src/hid/midi.h ****                     incoming_message_.data[1] = byte & kDataByteMask;
 262:../../libDaisy//src/hid/midi.h **** 
 263:../../libDaisy//src/hid/midi.h ****                     //velocity 0 NoteOns are NoteOffs
 264:../../libDaisy//src/hid/midi.h ****                     if(running_status_ == NoteOn
 265:../../libDaisy//src/hid/midi.h ****                        && incoming_message_.data[1] == 0)
 266:../../libDaisy//src/hid/midi.h ****                     {
 267:../../libDaisy//src/hid/midi.h ****                         incoming_message_.type = running_status_ = NoteOff;
 268:../../libDaisy//src/hid/midi.h ****                     }
 269:../../libDaisy//src/hid/midi.h **** 
 270:../../libDaisy//src/hid/midi.h ****                     // At this point the message is valid, and we can add this MidiEvent to the que
 271:../../libDaisy//src/hid/midi.h ****                     event_q_.Write(incoming_message_);
 272:../../libDaisy//src/hid/midi.h ****                 }
 273:../../libDaisy//src/hid/midi.h ****                 // Regardless, of whether the data was valid or not we go back to empty
 274:../../libDaisy//src/hid/midi.h ****                 // because either the message is queued for handling or its not.
 275:../../libDaisy//src/hid/midi.h ****                 pstate_ = ParserEmpty;
 276:../../libDaisy//src/hid/midi.h ****                 break;
 277:../../libDaisy//src/hid/midi.h ****             case ParserSysEx:
 278:../../libDaisy//src/hid/midi.h ****                 // end of sysex
 279:../../libDaisy//src/hid/midi.h ****                 if(byte == 0xf7)
 280:../../libDaisy//src/hid/midi.h ****                 {
 281:../../libDaisy//src/hid/midi.h ****                     pstate_ = ParserEmpty;
 282:../../libDaisy//src/hid/midi.h ****                     event_q_.Write(incoming_message_);
 283:../../libDaisy//src/hid/midi.h ****                 }
 284:../../libDaisy//src/hid/midi.h ****                 else if(incoming_message_.sysex_message_len < SYSEX_BUFFER_LEN)
 285:../../libDaisy//src/hid/midi.h ****                 {
 286:../../libDaisy//src/hid/midi.h ****                     incoming_message_
 287:../../libDaisy//src/hid/midi.h ****                         .sysex_data[incoming_message_.sysex_message_len]
 288:../../libDaisy//src/hid/midi.h ****                         = byte;
 289:../../libDaisy//src/hid/midi.h ****                     incoming_message_.sysex_message_len++;
 290:../../libDaisy//src/hid/midi.h ****                 }
 291:../../libDaisy//src/hid/midi.h ****                 break;
 292:../../libDaisy//src/hid/midi.h ****             default: break;
 293:../../libDaisy//src/hid/midi.h ****         }
 294:../../libDaisy//src/hid/midi.h ****     }
 1921              		.loc 10 294 5 view .LVU477
 1922 0028 48B0     		add	sp, sp, #288
 1923              		.cfi_remember_state
 1924              		.cfi_def_cfa_offset 24
 1925              		@ sp needed
 1926 002a BDE8F081 		pop	{r4, r5, r6, r7, r8, pc}
 1927              	.LVL97:
 1928              	.L44:
 1929              		.cfi_restore_state
 279:../../libDaisy//src/hid/midi.h ****                 {
 1930              		.loc 10 279 17 view .LVU478
 1931 002e F729     		cmp	r1, #247
 1932 0030 00F0BF80 		beq	.L93
 284:../../libDaisy//src/hid/midi.h ****                 {
 1933              		.loc 10 284 22 view .LVU479
 1934 0034 90F99220 		ldrsb	r2, [r0, #146]
 284:../../libDaisy//src/hid/midi.h ****                 {
 1935              		.loc 10 284 43 view .LVU480
ARM GAS  C:\Users\danst\AppData\Local\Temp\ccAqJ3eO.s 			page 59


 1936 0038 90F89230 		ldrb	r3, [r0, #146]	@ zero_extendqisi2
 284:../../libDaisy//src/hid/midi.h ****                 {
 1937              		.loc 10 284 22 view .LVU481
 1938 003c 002A     		cmp	r2, #0
 1939 003e F3DB     		blt	.L42
 288:../../libDaisy//src/hid/midi.h ****                     incoming_message_.sysex_message_len++;
 1940              		.loc 10 288 25 view .LVU482
 1941 0040 C218     		adds	r2, r0, r3
 289:../../libDaisy//src/hid/midi.h ****                 }
 1942              		.loc 10 289 21 view .LVU483
 1943 0042 0133     		adds	r3, r3, #1
 288:../../libDaisy//src/hid/midi.h ****                     incoming_message_.sysex_message_len++;
 1944              		.loc 10 288 25 view .LVU484
 1945 0044 9174     		strb	r1, [r2, #18]
 289:../../libDaisy//src/hid/midi.h ****                 }
 1946              		.loc 10 289 21 view .LVU485
 1947 0046 80F89230 		strb	r3, [r0, #146]
 1948              		.loc 10 294 5 view .LVU486
 1949 004a EDE7     		b	.L42
 1950              	.L47:
 224:../../libDaisy//src/hid/midi.h ****                 {
 1951              		.loc 10 224 28 view .LVU487
 1952 004c 00F51045 		add	r5, r0, #36864
 224:../../libDaisy//src/hid/midi.h ****                 {
 1953              		.loc 10 224 26 view .LVU488
 1954 0050 95F8AC30 		ldrb	r3, [r5, #172]	@ zero_extendqisi2
 224:../../libDaisy//src/hid/midi.h ****                 {
 1955              		.loc 10 224 17 view .LVU489
 1956 0054 1942     		tst	r1, r3
 1957 0056 E5D1     		bne	.L56
 226:../../libDaisy//src/hid/midi.h ****                     if(running_status_ == ChannelPressure
 1958              		.loc 10 226 54 view .LVU490
 1959 0058 95F8AE80 		ldrb	r8, [r5, #174]	@ zero_extendqisi2
 1960 005c 01EA0808 		and	r8, r1, r8
 226:../../libDaisy//src/hid/midi.h ****                     if(running_status_ == ChannelPressure
 1961              		.loc 10 226 47 view .LVU491
 1962 0060 80F81080 		strb	r8, [r0, #16]
 227:../../libDaisy//src/hid/midi.h ****                        || running_status_ == ProgramChange
 1963              		.loc 10 227 24 view .LVU492
 1964 0064 95F8A470 		ldrb	r7, [r5, #164]	@ zero_extendqisi2
 227:../../libDaisy//src/hid/midi.h ****                        || running_status_ == ProgramChange
 1965              		.loc 10 227 21 view .LVU493
 1966 0068 3B1F     		subs	r3, r7, #4
 1967 006a 012B     		cmp	r3, #1
 1968 006c 06D9     		bls	.L57
 229:../../libDaisy//src/hid/midi.h ****                        || incoming_message_.sc_type == SongSelect)
 1969              		.loc 10 229 24 view .LVU494
 1970 006e 90F89330 		ldrb	r3, [r0, #147]	@ zero_extendqisi2
 230:../../libDaisy//src/hid/midi.h ****                     {
 1971              		.loc 10 230 24 view .LVU495
 1972 0072 03F0FD03 		and	r3, r3, #253
 1973 0076 012B     		cmp	r3, #1
 1974 0078 40F0C580 		bne	.L58
 1975              	.L57:
 233:../../libDaisy//src/hid/midi.h ****                         event_q_.Write(incoming_message_);
 1976              		.loc 10 233 33 view .LVU496
 1977 007c 0023     		movs	r3, #0
ARM GAS  C:\Users\danst\AppData\Local\Temp\ccAqJ3eO.s 			page 60


 1978 007e 6E46     		mov	r6, sp
 1979 0080 9022     		movs	r2, #144
 1980 0082 04F10801 		add	r1, r4, #8
 1981              	.LVL98:
 233:../../libDaisy//src/hid/midi.h ****                         event_q_.Write(incoming_message_);
 1982              		.loc 10 233 33 view .LVU497
 1983 0086 3046     		mov	r0, r6
 1984              	.LVL99:
 233:../../libDaisy//src/hid/midi.h ****                         event_q_.Write(incoming_message_);
 1985              		.loc 10 233 33 view .LVU498
 1986 0088 2371     		strb	r3, [r4, #4]
 1987              	.LVL100:
 233:../../libDaisy//src/hid/midi.h ****                         event_q_.Write(incoming_message_);
 1988              		.loc 10 233 33 view .LVU499
 1989 008a FFF7FEFF 		bl	memcpy
 1990              	.LVL101:
 1991              	.LBB702:
 1992              	.LBI702:
 1993              		.file 14 "../../libDaisy//src/util/ringbuffer.h"
   1:../../libDaisy//src/util/ringbuffer.h **** #pragma once
   2:../../libDaisy//src/util/ringbuffer.h **** #ifndef DSY_RINGBUFFER_H
   3:../../libDaisy//src/util/ringbuffer.h **** #define DSY_RINGBUFFER_H
   4:../../libDaisy//src/util/ringbuffer.h **** 
   5:../../libDaisy//src/util/ringbuffer.h **** #include <algorithm>
   6:../../libDaisy//src/util/ringbuffer.h **** 
   7:../../libDaisy//src/util/ringbuffer.h **** namespace daisy
   8:../../libDaisy//src/util/ringbuffer.h **** {
   9:../../libDaisy//src/util/ringbuffer.h **** /** @addtogroup utility
  10:../../libDaisy//src/util/ringbuffer.h ****     @{
  11:../../libDaisy//src/util/ringbuffer.h **** */
  12:../../libDaisy//src/util/ringbuffer.h **** 
  13:../../libDaisy//src/util/ringbuffer.h **** /**
  14:../../libDaisy//src/util/ringbuffer.h **** Utility Ring Buffer \n 
  15:../../libDaisy//src/util/ringbuffer.h **** imported from pichenettes/stmlib
  16:../../libDaisy//src/util/ringbuffer.h **** */
  17:../../libDaisy//src/util/ringbuffer.h **** template <typename T, size_t size>
  18:../../libDaisy//src/util/ringbuffer.h **** class RingBuffer
  19:../../libDaisy//src/util/ringbuffer.h **** {
  20:../../libDaisy//src/util/ringbuffer.h ****   public:
  21:../../libDaisy//src/util/ringbuffer.h ****     RingBuffer() {}
  22:../../libDaisy//src/util/ringbuffer.h **** 
  23:../../libDaisy//src/util/ringbuffer.h ****     /** Initializes the Ring Buffer */
  24:../../libDaisy//src/util/ringbuffer.h ****     inline void Init() { read_ptr_ = write_ptr_ = 0; }
  25:../../libDaisy//src/util/ringbuffer.h **** 
  26:../../libDaisy//src/util/ringbuffer.h ****     /** \return The total size of the ring buffer */
  27:../../libDaisy//src/util/ringbuffer.h ****     inline size_t capacity() const { return size; }
  28:../../libDaisy//src/util/ringbuffer.h **** 
  29:../../libDaisy//src/util/ringbuffer.h ****     /** \return the number of samples that can be written to ring buffer without overwriting unread
  30:../../libDaisy//src/util/ringbuffer.h ****     inline size_t writable() const
  31:../../libDaisy//src/util/ringbuffer.h ****     {
  32:../../libDaisy//src/util/ringbuffer.h ****         return (read_ptr_ - write_ptr_ - 1) % size;
  33:../../libDaisy//src/util/ringbuffer.h ****     }
  34:../../libDaisy//src/util/ringbuffer.h **** 
  35:../../libDaisy//src/util/ringbuffer.h ****     /** \return number of unread elements in ring buffer */
  36:../../libDaisy//src/util/ringbuffer.h ****     inline size_t readable() const { return (write_ptr_ - read_ptr_) % size; }
  37:../../libDaisy//src/util/ringbuffer.h **** 
  38:../../libDaisy//src/util/ringbuffer.h ****     /** \returns True, if the buffer is empty. */
ARM GAS  C:\Users\danst\AppData\Local\Temp\ccAqJ3eO.s 			page 61


  39:../../libDaisy//src/util/ringbuffer.h ****     inline bool isEmpty() const { return write_ptr_ == read_ptr_; }
  40:../../libDaisy//src/util/ringbuffer.h **** 
  41:../../libDaisy//src/util/ringbuffer.h ****     /** Writes the value to the next available position in the ring buffer
  42:../../libDaisy//src/util/ringbuffer.h ****     \param v Value to write
  43:../../libDaisy//src/util/ringbuffer.h ****     */
  44:../../libDaisy//src/util/ringbuffer.h ****     inline void Write(T v)
 1994              		.loc 14 44 17 is_stmt 1 view .LVU500
 1995              	.L59:
 1996              	.LBB703:
  45:../../libDaisy//src/util/ringbuffer.h ****     {
  46:../../libDaisy//src/util/ringbuffer.h ****         while(!writable())
 1997              		.loc 14 46 24 view .LVU501
 1998              	.LBB704:
 1999              	.LBI704:
  30:../../libDaisy//src/util/ringbuffer.h ****     {
 2000              		.loc 14 30 19 view .LVU502
 2001              	.LBB705:
  32:../../libDaisy//src/util/ringbuffer.h ****     }
 2002              		.loc 14 32 17 is_stmt 0 view .LVU503
 2003 008e D5F89830 		ldr	r3, [r5, #152]
  32:../../libDaisy//src/util/ringbuffer.h ****     }
 2004              		.loc 14 32 29 view .LVU504
 2005 0092 D5F89C20 		ldr	r2, [r5, #156]
 2006              	.LVL102:
  32:../../libDaisy//src/util/ringbuffer.h ****     }
 2007              		.loc 14 32 40 view .LVU505
 2008 0096 013B     		subs	r3, r3, #1
 2009 0098 9B1A     		subs	r3, r3, r2
  32:../../libDaisy//src/util/ringbuffer.h ****     }
 2010              		.loc 14 32 47 view .LVU506
 2011 009a DBB2     		uxtb	r3, r3
 2012              	.LBE705:
 2013              	.LBE704:
 2014              		.loc 14 46 24 view .LVU507
 2015 009c 002B     		cmp	r3, #0
 2016 009e F6D0     		beq	.L59
 2017              	.LVL103:
 2018              		.loc 14 46 24 view .LVU508
 2019 00a0 9022     		movs	r2, #144
 2020 00a2 3146     		mov	r1, r6
 2021 00a4 0DEB0200 		add	r0, sp, r2
 2022 00a8 FFF7FEFF 		bl	memcpy
 2023              	.LVL104:
 2024              	.LBB706:
 2025              	.LBI706:
  47:../../libDaisy//src/util/ringbuffer.h ****             ;
  48:../../libDaisy//src/util/ringbuffer.h ****         Overwrite(v);
  49:../../libDaisy//src/util/ringbuffer.h ****     }
  50:../../libDaisy//src/util/ringbuffer.h **** 
  51:../../libDaisy//src/util/ringbuffer.h ****     /** Writes the new element to the ring buffer, overwriting unread data if necessary. 
  52:../../libDaisy//src/util/ringbuffer.h ****     \param v Value to overwrite
  53:../../libDaisy//src/util/ringbuffer.h ****      */
  54:../../libDaisy//src/util/ringbuffer.h ****     inline void Overwrite(T v)
 2026              		.loc 14 54 17 is_stmt 1 view .LVU509
 2027              	.LBB707:
  55:../../libDaisy//src/util/ringbuffer.h ****     {
  56:../../libDaisy//src/util/ringbuffer.h ****         size_t w   = write_ptr_;
ARM GAS  C:\Users\danst\AppData\Local\Temp\ccAqJ3eO.s 			page 62


 2028              		.loc 14 56 16 is_stmt 0 view .LVU510
 2029 00ac D5F89C60 		ldr	r6, [r5, #156]
 2030              	.LVL105:
  57:../../libDaisy//src/util/ringbuffer.h ****         buffer_[w] = v;
 2031              		.loc 14 57 9 view .LVU511
 2032 00b0 24A9     		add	r1, sp, #144
 2033 00b2 9022     		movs	r2, #144
 2034 00b4 06EBC600 		add	r0, r6, r6, lsl #3
  58:../../libDaisy//src/util/ringbuffer.h ****         write_ptr_ = (w + 1) % size;
 2035              		.loc 14 58 25 view .LVU512
 2036 00b8 0136     		adds	r6, r6, #1
 2037              	.LVL106:
  57:../../libDaisy//src/util/ringbuffer.h ****         buffer_[w] = v;
 2038              		.loc 14 57 9 view .LVU513
 2039 00ba 04EB0010 		add	r0, r4, r0, lsl #4
 2040              		.loc 14 58 30 view .LVU514
 2041 00be F6B2     		uxtb	r6, r6
 2042              	.LVL107:
  57:../../libDaisy//src/util/ringbuffer.h ****         buffer_[w] = v;
 2043              		.loc 14 57 9 view .LVU515
 2044 00c0 9830     		adds	r0, r0, #152
 2045 00c2 FFF7FEFF 		bl	memcpy
 2046              	.LVL108:
 2047              		.loc 14 58 20 view .LVU516
 2048 00c6 C5F89C60 		str	r6, [r5, #156]
 2049              	.LVL109:
 2050              	.L60:
 2051              		.loc 14 58 20 view .LVU517
 2052              	.LBE707:
 2053              	.LBE706:
 2054              	.LBE703:
 2055              	.LBE702:
 243:../../libDaisy//src/hid/midi.h ****                     {
 2056              		.loc 10 243 24 view .LVU518
 2057 00ca B8F1770F 		cmp	r8, #119
 2058 00ce ABD9     		bls	.L42
 2059 00d0 032F     		cmp	r7, #3
 2060 00d2 A9D1     		bne	.L42
 245:../../libDaisy//src/hid/midi.h ****                         running_status_        = ChannelMode;
 2061              		.loc 10 245 48 view .LVU519
 2062 00d4 0923     		movs	r3, #9
 249:../../libDaisy//src/hid/midi.h ****                     }
 2063              		.loc 10 249 59 view .LVU520
 2064 00d6 A8F17801 		sub	r1, r8, #120
 245:../../libDaisy//src/hid/midi.h ****                         running_status_        = ChannelMode;
 2065              		.loc 10 245 48 view .LVU521
 2066 00da 2372     		strb	r3, [r4, #8]
 246:../../libDaisy//src/hid/midi.h ****                         incoming_message_.cm_type
 2067              		.loc 10 246 48 view .LVU522
 2068 00dc 85F8A430 		strb	r3, [r5, #164]
 248:../../libDaisy//src/hid/midi.h ****                                 incoming_message_.data[0] - 120);
 2069              		.loc 10 248 29 view .LVU523
 2070 00e0 84F89510 		strb	r1, [r4, #149]
 2071 00e4 A0E7     		b	.L42
 2072              	.LVL110:
 2073              	.L48:
 162:../../libDaisy//src/hid/midi.h ****                 {
ARM GAS  C:\Users\danst\AppData\Local\Temp\ccAqJ3eO.s 			page 63


 2074              		.loc 10 162 27 view .LVU524
 2075 00e6 00F51045 		add	r5, r0, #36864
 162:../../libDaisy//src/hid/midi.h ****                 {
 2076              		.loc 10 162 25 view .LVU525
 2077 00ea 95F8AC30 		ldrb	r3, [r5, #172]	@ zero_extendqisi2
 162:../../libDaisy//src/hid/midi.h ****                 {
 2078              		.loc 10 162 17 view .LVU526
 2079 00ee 1942     		tst	r1, r3
 2080 00f0 21D0     		beq	.L49
 165:../../libDaisy//src/hid/midi.h ****                     incoming_message_.type    = static_cast<MidiMessageType>(
 2081              		.loc 10 165 54 view .LVU527
 2082 00f2 95F8B030 		ldrb	r3, [r5, #176]	@ zero_extendqisi2
 2083 00f6 0B40     		ands	r3, r3, r1
 2084 00f8 C360     		str	r3, [r0, #12]
 167:../../libDaisy//src/hid/midi.h **** 
 2085              		.loc 10 167 31 view .LVU528
 2086 00fa 95F8AD30 		ldrb	r3, [r5, #173]	@ zero_extendqisi2
 167:../../libDaisy//src/hid/midi.h **** 
 2087              		.loc 10 167 47 view .LVU529
 2088 00fe 0B40     		ands	r3, r3, r1
 2089 0100 1B09     		lsrs	r3, r3, #4
 170:../../libDaisy//src/hid/midi.h ****                     {
 2090              		.loc 10 170 21 view .LVU530
 2091 0102 092B     		cmp	r3, #9
 166:../../libDaisy//src/hid/midi.h ****                         (byte & kMessageMask) >> 4);
 2092              		.loc 10 166 47 view .LVU531
 2093 0104 0372     		strb	r3, [r0, #8]
 170:../../libDaisy//src/hid/midi.h ****                     {
 2094              		.loc 10 170 21 view .LVU532
 2095 0106 8FD8     		bhi	.L42
 172:../../libDaisy//src/hid/midi.h ****                         // Mark this status byte as running_status
 2096              		.loc 10 172 33 view .LVU533
 2097 0108 0122     		movs	r2, #1
 176:../../libDaisy//src/hid/midi.h ****                         {
 2098              		.loc 10 176 25 view .LVU534
 2099 010a 072B     		cmp	r3, #7
 172:../../libDaisy//src/hid/midi.h ****                         // Mark this status byte as running_status
 2100              		.loc 10 172 33 view .LVU535
 2101 010c 0271     		strb	r2, [r0, #4]
 174:../../libDaisy//src/hid/midi.h **** 
 2102              		.loc 10 174 41 view .LVU536
 2103 010e 85F8A430 		strb	r3, [r5, #164]
 176:../../libDaisy//src/hid/midi.h ****                         {
 2104              		.loc 10 176 25 view .LVU537
 2105 0112 89D1     		bne	.L42
 178:../../libDaisy//src/hid/midi.h ****                             //system real time = 1111 1xxx
 2106              		.loc 10 178 55 view .LVU538
 2107 0114 0023     		movs	r3, #0
 2108 0116 C360     		str	r3, [r0, #12]
 180:../../libDaisy//src/hid/midi.h ****                             {
 2109              		.loc 10 180 29 view .LVU539
 2110 0118 11F00800 		ands	r0, r1, #8
 2111              	.LVL111:
 180:../../libDaisy//src/hid/midi.h ****                             {
 2112              		.loc 10 180 29 view .LVU540
 2113 011c 40F0A480 		bne	.L94
 197:../../libDaisy//src/hid/midi.h ****                                 //sysex
ARM GAS  C:\Users\danst\AppData\Local\Temp\ccAqJ3eO.s 			page 64


 2114              		.loc 10 197 69 view .LVU541
 2115 0120 01F00703 		and	r3, r1, #7
 196:../../libDaisy//src/hid/midi.h ****                                                                     & 0x07);
 2116              		.loc 10 196 37 view .LVU542
 2117 0124 84F89330 		strb	r3, [r4, #147]
 199:../../libDaisy//src/hid/midi.h ****                                 {
 2118              		.loc 10 199 33 view .LVU543
 2119 0128 002B     		cmp	r3, #0
 2120 012a 73D1     		bne	.L54
 201:../../libDaisy//src/hid/midi.h ****                                     incoming_message_.sysex_message_len = 0;
 2121              		.loc 10 201 45 view .LVU544
 2122 012c 0322     		movs	r2, #3
 202:../../libDaisy//src/hid/midi.h ****                                 }
 2123              		.loc 10 202 73 view .LVU545
 2124 012e 84F89230 		strb	r3, [r4, #146]
 201:../../libDaisy//src/hid/midi.h ****                                     incoming_message_.sysex_message_len = 0;
 2125              		.loc 10 201 45 view .LVU546
 2126 0132 2271     		strb	r2, [r4, #4]
 2127 0134 78E7     		b	.L42
 2128              	.LVL112:
 2129              	.L49:
 218:../../libDaisy//src/hid/midi.h ****                     incoming_message_.data[0] = byte & kDataByteMask;
 2130              		.loc 10 218 47 view .LVU547
 2131 0136 95F8A430 		ldrb	r3, [r5, #164]	@ zero_extendqisi2
 220:../../libDaisy//src/hid/midi.h ****                 }
 2132              		.loc 10 220 47 view .LVU548
 2133 013a 0222     		movs	r2, #2
 218:../../libDaisy//src/hid/midi.h ****                     incoming_message_.data[0] = byte & kDataByteMask;
 2134              		.loc 10 218 47 view .LVU549
 2135 013c 0372     		strb	r3, [r0, #8]
 219:../../libDaisy//src/hid/midi.h ****                     pstate_                   = ParserHasData0;
 2136              		.loc 10 219 54 view .LVU550
 2137 013e 95F8AE30 		ldrb	r3, [r5, #174]	@ zero_extendqisi2
 220:../../libDaisy//src/hid/midi.h ****                 }
 2138              		.loc 10 220 47 view .LVU551
 2139 0142 0271     		strb	r2, [r0, #4]
 219:../../libDaisy//src/hid/midi.h ****                     pstate_                   = ParserHasData0;
 2140              		.loc 10 219 54 view .LVU552
 2141 0144 1940     		ands	r1, r1, r3
 2142              	.LVL113:
 219:../../libDaisy//src/hid/midi.h ****                     pstate_                   = ParserHasData0;
 2143              		.loc 10 219 47 view .LVU553
 2144 0146 0174     		strb	r1, [r0, #16]
 2145              		.loc 10 294 5 view .LVU554
 2146 0148 48B0     		add	sp, sp, #288
 2147              		.cfi_remember_state
 2148              		.cfi_def_cfa_offset 24
 2149              		@ sp needed
 2150 014a BDE8F081 		pop	{r4, r5, r6, r7, r8, pc}
 2151              	.LVL114:
 2152              	.L92:
 2153              		.cfi_restore_state
 261:../../libDaisy//src/hid/midi.h **** 
 2154              		.loc 10 261 54 view .LVU555
 2155 014e 95F8AE20 		ldrb	r2, [r5, #174]	@ zero_extendqisi2
 2156 0152 1140     		ands	r1, r1, r2
 2157              	.LVL115:
ARM GAS  C:\Users\danst\AppData\Local\Temp\ccAqJ3eO.s 			page 65


 261:../../libDaisy//src/hid/midi.h **** 
 2158              		.loc 10 261 47 view .LVU556
 2159 0154 4174     		strb	r1, [r0, #17]
 264:../../libDaisy//src/hid/midi.h ****                        && incoming_message_.data[1] == 0)
 2160              		.loc 10 264 21 view .LVU557
 2161 0156 95F8A420 		ldrb	r2, [r5, #164]	@ zero_extendqisi2
 265:../../libDaisy//src/hid/midi.h ****                     {
 2162              		.loc 10 265 24 view .LVU558
 2163 015a 012A     		cmp	r2, #1
 2164 015c 01D1     		bne	.L61
 2165 015e 0029     		cmp	r1, #0
 2166 0160 54D0     		beq	.L95
 2167              	.L61:
 2168              	.LVL116:
 265:../../libDaisy//src/hid/midi.h ****                     {
 2169              		.loc 10 265 24 view .LVU559
 2170 0162 6E46     		mov	r6, sp
 2171 0164 9022     		movs	r2, #144
 2172 0166 04F10801 		add	r1, r4, #8
 2173 016a 3046     		mov	r0, r6
 2174              	.LVL117:
 265:../../libDaisy//src/hid/midi.h ****                     {
 2175              		.loc 10 265 24 view .LVU560
 2176 016c FFF7FEFF 		bl	memcpy
 2177              	.LVL118:
 2178              	.LBB708:
 2179              	.LBI708:
  44:../../libDaisy//src/util/ringbuffer.h ****     {
 2180              		.loc 14 44 17 is_stmt 1 view .LVU561
 2181              	.L62:
 2182              	.LBB709:
  46:../../libDaisy//src/util/ringbuffer.h ****             ;
 2183              		.loc 14 46 24 view .LVU562
 2184              	.LBB710:
 2185              	.LBI710:
  30:../../libDaisy//src/util/ringbuffer.h ****     {
 2186              		.loc 14 30 19 view .LVU563
 2187              	.LBB711:
  32:../../libDaisy//src/util/ringbuffer.h ****     }
 2188              		.loc 14 32 17 is_stmt 0 view .LVU564
 2189 0170 D5F89830 		ldr	r3, [r5, #152]
  32:../../libDaisy//src/util/ringbuffer.h ****     }
 2190              		.loc 14 32 29 view .LVU565
 2191 0174 D5F89C20 		ldr	r2, [r5, #156]
 2192              	.LVL119:
  32:../../libDaisy//src/util/ringbuffer.h ****     }
 2193              		.loc 14 32 40 view .LVU566
 2194 0178 013B     		subs	r3, r3, #1
 2195 017a 9B1A     		subs	r3, r3, r2
  32:../../libDaisy//src/util/ringbuffer.h ****     }
 2196              		.loc 14 32 47 view .LVU567
 2197 017c DBB2     		uxtb	r3, r3
 2198              	.LBE711:
 2199              	.LBE710:
  46:../../libDaisy//src/util/ringbuffer.h ****             ;
 2200              		.loc 14 46 24 view .LVU568
 2201 017e 002B     		cmp	r3, #0
ARM GAS  C:\Users\danst\AppData\Local\Temp\ccAqJ3eO.s 			page 66


 2202 0180 F6D0     		beq	.L62
 2203              	.LVL120:
  46:../../libDaisy//src/util/ringbuffer.h ****             ;
 2204              		.loc 14 46 24 view .LVU569
 2205 0182 9022     		movs	r2, #144
 2206 0184 3146     		mov	r1, r6
 2207 0186 0DEB0200 		add	r0, sp, r2
 2208 018a FFF7FEFF 		bl	memcpy
 2209              	.LVL121:
 2210              	.LBB712:
 2211              	.LBI712:
  54:../../libDaisy//src/util/ringbuffer.h ****     {
 2212              		.loc 14 54 17 is_stmt 1 view .LVU570
 2213              	.LBB713:
  56:../../libDaisy//src/util/ringbuffer.h ****         buffer_[w] = v;
 2214              		.loc 14 56 16 is_stmt 0 view .LVU571
 2215 018e D5F89C60 		ldr	r6, [r5, #156]
 2216              	.LVL122:
  57:../../libDaisy//src/util/ringbuffer.h ****         write_ptr_ = (w + 1) % size;
 2217              		.loc 14 57 9 view .LVU572
 2218 0192 24A9     		add	r1, sp, #144
 2219 0194 9022     		movs	r2, #144
 2220 0196 06EBC600 		add	r0, r6, r6, lsl #3
 2221              		.loc 14 58 25 view .LVU573
 2222 019a 0136     		adds	r6, r6, #1
 2223              	.LVL123:
  57:../../libDaisy//src/util/ringbuffer.h ****         write_ptr_ = (w + 1) % size;
 2224              		.loc 14 57 9 view .LVU574
 2225 019c 04EB0010 		add	r0, r4, r0, lsl #4
 2226              		.loc 14 58 30 view .LVU575
 2227 01a0 F6B2     		uxtb	r6, r6
 2228              	.LVL124:
  57:../../libDaisy//src/util/ringbuffer.h ****         write_ptr_ = (w + 1) % size;
 2229              		.loc 14 57 9 view .LVU576
 2230 01a2 9830     		adds	r0, r0, #152
 2231 01a4 FFF7FEFF 		bl	memcpy
 2232              	.LVL125:
 2233              	.LBE713:
 2234              	.LBE712:
 2235              	.LBE709:
 2236              	.LBE708:
 255:../../libDaisy//src/hid/midi.h ****                 }
 2237              		.loc 10 255 29 view .LVU577
 2238 01a8 0023     		movs	r3, #0
 2239              	.LBB717:
 2240              	.LBB716:
 2241              	.LBB715:
 2242              	.LBB714:
 2243              		.loc 14 58 20 view .LVU578
 2244 01aa C5F89C60 		str	r6, [r5, #156]
 2245              	.LVL126:
 2246              		.loc 14 58 20 view .LVU579
 2247              	.LBE714:
 2248              	.LBE715:
 2249              	.LBE716:
 2250              	.LBE717:
 255:../../libDaisy//src/hid/midi.h ****                 }
ARM GAS  C:\Users\danst\AppData\Local\Temp\ccAqJ3eO.s 			page 67


 2251              		.loc 10 255 29 view .LVU580
 2252 01ae 2371     		strb	r3, [r4, #4]
 2253 01b0 3AE7     		b	.L42
 2254              	.LVL127:
 2255              	.L93:
 281:../../libDaisy//src/hid/midi.h ****                     event_q_.Write(incoming_message_);
 2256              		.loc 10 281 29 view .LVU581
 2257 01b2 0023     		movs	r3, #0
 2258 01b4 6E46     		mov	r6, sp
 2259 01b6 00F10801 		add	r1, r0, #8
 2260              	.LVL128:
 281:../../libDaisy//src/hid/midi.h ****                     event_q_.Write(incoming_message_);
 2261              		.loc 10 281 29 view .LVU582
 2262 01ba 00F51045 		add	r5, r0, #36864
 2263 01be 0371     		strb	r3, [r0, #4]
 2264              	.LVL129:
 281:../../libDaisy//src/hid/midi.h ****                     event_q_.Write(incoming_message_);
 2265              		.loc 10 281 29 view .LVU583
 2266 01c0 9022     		movs	r2, #144
 2267 01c2 3046     		mov	r0, r6
 2268              	.LVL130:
 281:../../libDaisy//src/hid/midi.h ****                     event_q_.Write(incoming_message_);
 2269              		.loc 10 281 29 view .LVU584
 2270 01c4 FFF7FEFF 		bl	memcpy
 2271              	.LVL131:
 2272              	.LBB718:
 2273              	.LBI718:
  44:../../libDaisy//src/util/ringbuffer.h ****     {
 2274              		.loc 14 44 17 is_stmt 1 view .LVU585
 2275              	.L64:
 2276              	.LBB719:
  46:../../libDaisy//src/util/ringbuffer.h ****             ;
 2277              		.loc 14 46 24 view .LVU586
 2278              	.LBB720:
 2279              	.LBI720:
  30:../../libDaisy//src/util/ringbuffer.h ****     {
 2280              		.loc 14 30 19 view .LVU587
 2281              	.LBB721:
  32:../../libDaisy//src/util/ringbuffer.h ****     }
 2282              		.loc 14 32 17 is_stmt 0 view .LVU588
 2283 01c8 D5F89830 		ldr	r3, [r5, #152]
  32:../../libDaisy//src/util/ringbuffer.h ****     }
 2284              		.loc 14 32 29 view .LVU589
 2285 01cc D5F89C20 		ldr	r2, [r5, #156]
 2286              	.LVL132:
  32:../../libDaisy//src/util/ringbuffer.h ****     }
 2287              		.loc 14 32 40 view .LVU590
 2288 01d0 013B     		subs	r3, r3, #1
 2289 01d2 9B1A     		subs	r3, r3, r2
  32:../../libDaisy//src/util/ringbuffer.h ****     }
 2290              		.loc 14 32 47 view .LVU591
 2291 01d4 DBB2     		uxtb	r3, r3
 2292              	.LBE721:
 2293              	.LBE720:
  46:../../libDaisy//src/util/ringbuffer.h ****             ;
 2294              		.loc 14 46 24 view .LVU592
 2295 01d6 002B     		cmp	r3, #0
ARM GAS  C:\Users\danst\AppData\Local\Temp\ccAqJ3eO.s 			page 68


 2296 01d8 F6D0     		beq	.L64
 2297              	.LVL133:
  46:../../libDaisy//src/util/ringbuffer.h ****             ;
 2298              		.loc 14 46 24 view .LVU593
 2299 01da 9022     		movs	r2, #144
 2300 01dc 3146     		mov	r1, r6
 2301 01de 0DEB0200 		add	r0, sp, r2
 2302 01e2 FFF7FEFF 		bl	memcpy
 2303              	.LVL134:
 2304              	.LBB722:
 2305              	.LBI722:
  54:../../libDaisy//src/util/ringbuffer.h ****     {
 2306              		.loc 14 54 17 is_stmt 1 view .LVU594
 2307              	.LBB723:
  56:../../libDaisy//src/util/ringbuffer.h ****         buffer_[w] = v;
 2308              		.loc 14 56 16 is_stmt 0 view .LVU595
 2309 01e6 D5F89C60 		ldr	r6, [r5, #156]
 2310              	.LVL135:
  57:../../libDaisy//src/util/ringbuffer.h ****         write_ptr_ = (w + 1) % size;
 2311              		.loc 14 57 9 view .LVU596
 2312 01ea 24A9     		add	r1, sp, #144
 2313 01ec 9022     		movs	r2, #144
 2314 01ee 06EBC600 		add	r0, r6, r6, lsl #3
 2315              		.loc 14 58 25 view .LVU597
 2316 01f2 0136     		adds	r6, r6, #1
 2317              	.LVL136:
  57:../../libDaisy//src/util/ringbuffer.h ****         write_ptr_ = (w + 1) % size;
 2318              		.loc 14 57 9 view .LVU598
 2319 01f4 04EB0010 		add	r0, r4, r0, lsl #4
 2320              		.loc 14 58 30 view .LVU599
 2321 01f8 F6B2     		uxtb	r6, r6
 2322              	.LVL137:
  57:../../libDaisy//src/util/ringbuffer.h ****         write_ptr_ = (w + 1) % size;
 2323              		.loc 14 57 9 view .LVU600
 2324 01fa 9830     		adds	r0, r0, #152
 2325 01fc FFF7FEFF 		bl	memcpy
 2326              	.LVL138:
 2327              		.loc 14 58 20 view .LVU601
 2328 0200 C5F89C60 		str	r6, [r5, #156]
 2329              	.LVL139:
 2330              		.loc 14 58 20 view .LVU602
 2331              	.LBE723:
 2332              	.LBE722:
 2333              	.LBE719:
 2334              	.LBE718:
 2335 0204 10E7     		b	.L42
 2336              	.LVL140:
 2337              	.L58:
 238:../../libDaisy//src/hid/midi.h ****                     }
 2338              		.loc 10 238 33 view .LVU603
 2339 0206 0223     		movs	r3, #2
 2340 0208 0371     		strb	r3, [r0, #4]
 2341 020a 5EE7     		b	.L60
 2342              	.LVL141:
 2343              	.L95:
 267:../../libDaisy//src/hid/midi.h ****                     }
 2344              		.loc 10 267 66 view .LVU604
ARM GAS  C:\Users\danst\AppData\Local\Temp\ccAqJ3eO.s 			page 69


 2345 020c 85F8A430 		strb	r3, [r5, #164]
 267:../../libDaisy//src/hid/midi.h ****                     }
 2346              		.loc 10 267 48 view .LVU605
 2347 0210 0372     		strb	r3, [r0, #8]
 2348 0212 A6E7     		b	.L61
 2349              	.LVL142:
 2350              	.L54:
 205:../../libDaisy//src/hid/midi.h ****                                 {
 2351              		.loc 10 205 38 view .LVU606
 2352 0214 4B07     		lsls	r3, r1, #29
 2353 0216 7FF507AF 		bpl	.L42
 2354 021a 6E46     		mov	r6, sp
 207:../../libDaisy//src/hid/midi.h ****                                     event_q_.Write(incoming_message_);
 2355              		.loc 10 207 45 view .LVU607
 2356 021c 2071     		strb	r0, [r4, #4]
 2357              	.LVL143:
 207:../../libDaisy//src/hid/midi.h ****                                     event_q_.Write(incoming_message_);
 2358              		.loc 10 207 45 view .LVU608
 2359 021e 9022     		movs	r2, #144
 2360 0220 04F10801 		add	r1, r4, #8
 2361              	.LVL144:
 207:../../libDaisy//src/hid/midi.h ****                                     event_q_.Write(incoming_message_);
 2362              		.loc 10 207 45 view .LVU609
 2363 0224 3046     		mov	r0, r6
 2364 0226 FFF7FEFF 		bl	memcpy
 2365              	.LVL145:
 2366              	.LBB724:
 2367              	.LBI724:
  44:../../libDaisy//src/util/ringbuffer.h ****     {
 2368              		.loc 14 44 17 is_stmt 1 view .LVU610
 2369              	.L55:
 2370              	.LBB725:
  46:../../libDaisy//src/util/ringbuffer.h ****             ;
 2371              		.loc 14 46 24 view .LVU611
 2372              	.LBB726:
 2373              	.LBI726:
  30:../../libDaisy//src/util/ringbuffer.h ****     {
 2374              		.loc 14 30 19 view .LVU612
 2375              	.LBB727:
  32:../../libDaisy//src/util/ringbuffer.h ****     }
 2376              		.loc 14 32 17 is_stmt 0 view .LVU613
 2377 022a D5F89830 		ldr	r3, [r5, #152]
  32:../../libDaisy//src/util/ringbuffer.h ****     }
 2378              		.loc 14 32 29 view .LVU614
 2379 022e D5F89C20 		ldr	r2, [r5, #156]
 2380              	.LVL146:
  32:../../libDaisy//src/util/ringbuffer.h ****     }
 2381              		.loc 14 32 40 view .LVU615
 2382 0232 013B     		subs	r3, r3, #1
 2383 0234 9B1A     		subs	r3, r3, r2
  32:../../libDaisy//src/util/ringbuffer.h ****     }
 2384              		.loc 14 32 47 view .LVU616
 2385 0236 DBB2     		uxtb	r3, r3
 2386              	.LBE727:
 2387              	.LBE726:
  46:../../libDaisy//src/util/ringbuffer.h ****             ;
 2388              		.loc 14 46 24 view .LVU617
ARM GAS  C:\Users\danst\AppData\Local\Temp\ccAqJ3eO.s 			page 70


 2389 0238 002B     		cmp	r3, #0
 2390 023a F6D0     		beq	.L55
 2391              	.LVL147:
 2392              	.L91:
  46:../../libDaisy//src/util/ringbuffer.h ****             ;
 2393              		.loc 14 46 24 view .LVU618
 2394 023c 9022     		movs	r2, #144
 2395 023e 3146     		mov	r1, r6
 2396 0240 0DEB0200 		add	r0, sp, r2
 2397 0244 FFF7FEFF 		bl	memcpy
 2398              	.LVL148:
 2399              	.LBB728:
 2400              	.LBI728:
  54:../../libDaisy//src/util/ringbuffer.h ****     {
 2401              		.loc 14 54 17 is_stmt 1 view .LVU619
 2402              	.LBB729:
  56:../../libDaisy//src/util/ringbuffer.h ****         buffer_[w] = v;
 2403              		.loc 14 56 16 is_stmt 0 view .LVU620
 2404 0248 D5F89C60 		ldr	r6, [r5, #156]
 2405              	.LVL149:
  57:../../libDaisy//src/util/ringbuffer.h ****         write_ptr_ = (w + 1) % size;
 2406              		.loc 14 57 9 view .LVU621
 2407 024c 24A9     		add	r1, sp, #144
 2408 024e 9022     		movs	r2, #144
 2409 0250 06EBC600 		add	r0, r6, r6, lsl #3
 2410 0254 04EB0010 		add	r0, r4, r0, lsl #4
 2411 0258 9830     		adds	r0, r0, #152
 2412 025a FFF7FEFF 		bl	memcpy
 2413              	.LVL150:
 2414              		.loc 14 58 25 view .LVU622
 2415 025e 731C     		adds	r3, r6, #1
 2416              		.loc 14 58 30 view .LVU623
 2417 0260 DBB2     		uxtb	r3, r3
 2418              		.loc 14 58 20 view .LVU624
 2419 0262 C5F89C30 		str	r3, [r5, #156]
 2420              	.LVL151:
 2421              		.loc 14 58 20 view .LVU625
 2422              	.LBE729:
 2423              	.LBE728:
 2424              	.LBE725:
 2425              	.LBE724:
 2426 0266 DFE6     		b	.L42
 2427              	.LVL152:
 2428              	.L94:
 182:../../libDaisy//src/hid/midi.h ****                                 running_status_        = SystemRealTime;
 2429              		.loc 10 182 56 view .LVU626
 2430 0268 0822     		movs	r2, #8
 2431 026a 6E46     		mov	r6, sp
 2432 026c 2272     		strb	r2, [r4, #8]
 2433 026e 3046     		mov	r0, r6
 183:../../libDaisy//src/hid/midi.h ****                                 incoming_message_.srt_type
 2434              		.loc 10 183 56 view .LVU627
 2435 0270 85F8A420 		strb	r2, [r5, #164]
 186:../../libDaisy//src/hid/midi.h **** 
 2436              		.loc 10 186 46 view .LVU628
 2437 0274 95F8B220 		ldrb	r2, [r5, #178]	@ zero_extendqisi2
 189:../../libDaisy//src/hid/midi.h ****                                 event_q_.Write(incoming_message_);
ARM GAS  C:\Users\danst\AppData\Local\Temp\ccAqJ3eO.s 			page 71


 2438              		.loc 10 189 41 view .LVU629
 2439 0278 2371     		strb	r3, [r4, #4]
 2440              	.LVL153:
 186:../../libDaisy//src/hid/midi.h **** 
 2441              		.loc 10 186 46 view .LVU630
 2442 027a 1140     		ands	r1, r1, r2
 2443              	.LVL154:
 186:../../libDaisy//src/hid/midi.h **** 
 2444              		.loc 10 186 46 view .LVU631
 2445 027c 9022     		movs	r2, #144
 185:../../libDaisy//src/hid/midi.h ****                                         byte & kSystemRealTimeMask);
 2446              		.loc 10 185 37 view .LVU632
 2447 027e 84F89410 		strb	r1, [r4, #148]
 2448 0282 04F10801 		add	r1, r4, #8
 2449 0286 FFF7FEFF 		bl	memcpy
 2450              	.LVL155:
 2451              	.LBB730:
 2452              	.LBI730:
  44:../../libDaisy//src/util/ringbuffer.h ****     {
 2453              		.loc 14 44 17 is_stmt 1 view .LVU633
 2454              	.L53:
 2455              	.LBB731:
  46:../../libDaisy//src/util/ringbuffer.h ****             ;
 2456              		.loc 14 46 24 view .LVU634
 2457              	.LBB732:
 2458              	.LBI732:
  30:../../libDaisy//src/util/ringbuffer.h ****     {
 2459              		.loc 14 30 19 view .LVU635
 2460              	.LBB733:
  32:../../libDaisy//src/util/ringbuffer.h ****     }
 2461              		.loc 14 32 17 is_stmt 0 view .LVU636
 2462 028a D5F89830 		ldr	r3, [r5, #152]
  32:../../libDaisy//src/util/ringbuffer.h ****     }
 2463              		.loc 14 32 29 view .LVU637
 2464 028e D5F89C20 		ldr	r2, [r5, #156]
 2465              	.LVL156:
  32:../../libDaisy//src/util/ringbuffer.h ****     }
 2466              		.loc 14 32 40 view .LVU638
 2467 0292 013B     		subs	r3, r3, #1
 2468 0294 9B1A     		subs	r3, r3, r2
  32:../../libDaisy//src/util/ringbuffer.h ****     }
 2469              		.loc 14 32 47 view .LVU639
 2470 0296 DBB2     		uxtb	r3, r3
 2471              	.LBE733:
 2472              	.LBE732:
  46:../../libDaisy//src/util/ringbuffer.h ****             ;
 2473              		.loc 14 46 24 view .LVU640
 2474 0298 002B     		cmp	r3, #0
 2475 029a F6D0     		beq	.L53
 2476 029c CEE7     		b	.L91
 2477              	.LBE731:
 2478              	.LBE730:
 2479              		.cfi_endproc
 2480              	.LFE4864:
 2482 029e 00BF     		.section	.text._Z10handleMidiv,"ax",%progbits
 2483              		.align	1
 2484              		.p2align 2,,3
ARM GAS  C:\Users\danst\AppData\Local\Temp\ccAqJ3eO.s 			page 72


 2485              		.global	_Z10handleMidiv
 2486              		.syntax unified
 2487              		.thumb
 2488              		.thumb_func
 2489              		.fpu fpv5-d16
 2491              	_Z10handleMidiv:
 2492              	.LFB4426:
  87:2Cats1Bag.cpp **** 	midi.Listen();
 2493              		.loc 12 87 18 is_stmt 1 view -0
 2494              		.cfi_startproc
 2495              		@ args = 0, pretend = 0, frame = 0
 2496              		@ frame_needed = 0, uses_anonymous_args = 0
  88:2Cats1Bag.cpp **** 	while( midi.HasEvents() ){
 2497              		.loc 12 88 2 view .LVU642
 2498              	.LVL157:
 2499              	.LBB754:
 2500              	.LBI754:
 110:../../libDaisy//src/hid/midi.h ****     {
 2501              		.loc 10 110 10 view .LVU643
 2502              	.LBE754:
  87:2Cats1Bag.cpp **** 	midi.Listen();
 2503              		.loc 12 87 18 is_stmt 0 view .LVU644
 2504 0000 70B5     		push	{r4, r5, r6, lr}
 2505              		.cfi_def_cfa_offset 16
 2506              		.cfi_offset 4, -16
 2507              		.cfi_offset 5, -12
 2508              		.cfi_offset 6, -8
 2509              		.cfi_offset 14, -4
 2510              	.LBB759:
 2511              	.LBB755:
 113:../../libDaisy//src/hid/midi.h ****         while(transport_.Readable())
 2512              		.loc 10 113 29 view .LVU645
 2513 0002 FFF7FEFF 		bl	_ZN5daisy6System6GetNowEv
 2514              	.LVL158:
 2515 0006 2C4C     		ldr	r4, .L118
 2516 0008 0546     		mov	r5, r0
 2517              	.LVL159:
 113:../../libDaisy//src/hid/midi.h ****         while(transport_.Readable())
 2518              		.loc 10 113 29 view .LVU646
 2519 000a 07E0     		b	.L98
 2520              	.LVL160:
 2521              	.L115:
 116:../../libDaisy//src/hid/midi.h ****             Parse(transport_.Rx());
 2522              		.loc 10 116 24 view .LVU647
 2523 000c C4F8A050 		str	r5, [r4, #160]
 117:../../libDaisy//src/hid/midi.h ****         }
 2524              		.loc 10 117 18 view .LVU648
 2525 0010 FFF7FEFF 		bl	_ZN5daisy16MidiUsbTransport2RxEv
 2526              	.LVL161:
 2527 0014 0146     		mov	r1, r0
 2528 0016 2948     		ldr	r0, .L118+4
 2529 0018 FFF7FEFF 		bl	_ZN5daisy11MidiHandlerINS_16MidiUsbTransportEE5ParseEh
 2530              	.LVL162:
 2531              	.L98:
 114:../../libDaisy//src/hid/midi.h ****         {
 2532              		.loc 10 114 34 is_stmt 1 view .LVU649
 2533 001c 2848     		ldr	r0, .L118+8
ARM GAS  C:\Users\danst\AppData\Local\Temp\ccAqJ3eO.s 			page 73


 2534 001e FFF7FEFF 		bl	_ZN5daisy16MidiUsbTransport8ReadableEv
 2535              	.LVL163:
 2536 0022 0346     		mov	r3, r0
 117:../../libDaisy//src/hid/midi.h ****         }
 2537              		.loc 10 117 18 is_stmt 0 view .LVU650
 2538 0024 2648     		ldr	r0, .L118+8
 114:../../libDaisy//src/hid/midi.h ****         {
 2539              		.loc 10 114 34 view .LVU651
 2540 0026 002B     		cmp	r3, #0
 2541 0028 F0D1     		bne	.L115
 123:../../libDaisy//src/hid/midi.h ****         {
 2542              		.loc 10 123 32 view .LVU652
 2543 002a 2548     		ldr	r0, .L118+8
 2544 002c FFF7FEFF 		bl	_ZN5daisy16MidiUsbTransport8RxActiveEv
 2545              	.LVL164:
 123:../../libDaisy//src/hid/midi.h ****         {
 2546              		.loc 10 123 9 view .LVU653
 2547 0030 0346     		mov	r3, r0
 2548 0032 0028     		cmp	r0, #0
 2549 0034 37D0     		beq	.L116
 2550              	.L99:
 2551              	.LVL165:
 123:../../libDaisy//src/hid/midi.h ****         {
 2552              		.loc 10 123 9 view .LVU654
 2553              	.LBE755:
 2554              	.LBE759:
  89:2Cats1Bag.cpp **** 		auto midiEvent = midi.PopEvent();
 2555              		.loc 12 89 2 is_stmt 1 view .LVU655
  89:2Cats1Bag.cpp **** 		auto midiEvent = midi.PopEvent();
 2556              		.loc 12 89 23 view .LVU656
 2557              	.LBB760:
 2558              	.LBI760:
 134:../../libDaisy//src/hid/midi.h **** 
 2559              		.loc 10 134 10 view .LVU657
 2560              	.LBB761:
 2561              	.LBI761:
  36:../../libDaisy//src/util/ringbuffer.h **** 
 2562              		.loc 14 36 19 view .LVU658
 2563              	.LBB762:
  36:../../libDaisy//src/util/ringbuffer.h **** 
 2564              		.loc 14 36 46 is_stmt 0 view .LVU659
 2565 0036 D4F89C30 		ldr	r3, [r4, #156]
  36:../../libDaisy//src/util/ringbuffer.h **** 
 2566              		.loc 14 36 59 view .LVU660
 2567 003a D4F89820 		ldr	r2, [r4, #152]
 2568              	.LVL166:
  36:../../libDaisy//src/util/ringbuffer.h **** 
 2569              		.loc 14 36 57 view .LVU661
 2570 003e 9B1A     		subs	r3, r3, r2
  36:../../libDaisy//src/util/ringbuffer.h **** 
 2571              		.loc 14 36 72 view .LVU662
 2572 0040 DBB2     		uxtb	r3, r3
 2573              	.LBE762:
 2574              	.LBE761:
 2575              	.LBE760:
  89:2Cats1Bag.cpp **** 		auto midiEvent = midi.PopEvent();
 2576              		.loc 12 89 23 view .LVU663
ARM GAS  C:\Users\danst\AppData\Local\Temp\ccAqJ3eO.s 			page 74


 2577 0042 33B3     		cbz	r3, .L96
 2578 0044 1D49     		ldr	r1, .L118+4
 2579 0046 01F19800 		add	r0, r1, #152
 2580              	.L101:
 2581              	.LBB765:
 2582              	.LBB766:
 2583              	.LBB767:
 2584              	.LBB768:
  59:../../libDaisy//src/util/ringbuffer.h ****     }
  60:../../libDaisy//src/util/ringbuffer.h **** 
  61:../../libDaisy//src/util/ringbuffer.h ****     /** Reads the first available element from the ring buffer
  62:../../libDaisy//src/util/ringbuffer.h ****     \return read value
  63:../../libDaisy//src/util/ringbuffer.h ****      */
  64:../../libDaisy//src/util/ringbuffer.h ****     inline T Read()
  65:../../libDaisy//src/util/ringbuffer.h ****     {
  66:../../libDaisy//src/util/ringbuffer.h ****         while(!readable())
 2585              		.loc 14 66 24 is_stmt 1 view .LVU664
 2586              	.LVL167:
 2587              	.LBB769:
 2588              	.LBI769:
  36:../../libDaisy//src/util/ringbuffer.h **** 
 2589              		.loc 14 36 19 view .LVU665
 2590              	.LBB770:
  36:../../libDaisy//src/util/ringbuffer.h **** 
 2591              		.loc 14 36 46 is_stmt 0 view .LVU666
 2592 004a D4F89C30 		ldr	r3, [r4, #156]
  36:../../libDaisy//src/util/ringbuffer.h **** 
 2593              		.loc 14 36 59 view .LVU667
 2594 004e D4F89820 		ldr	r2, [r4, #152]
 2595              	.LVL168:
  36:../../libDaisy//src/util/ringbuffer.h **** 
 2596              		.loc 14 36 57 view .LVU668
 2597 0052 9B1A     		subs	r3, r3, r2
  36:../../libDaisy//src/util/ringbuffer.h **** 
 2598              		.loc 14 36 72 view .LVU669
 2599 0054 DBB2     		uxtb	r3, r3
 2600              	.LBE770:
 2601              	.LBE769:
 2602              		.loc 14 66 24 view .LVU670
 2603 0056 002B     		cmp	r3, #0
 2604 0058 F7D0     		beq	.L101
 2605              	.LVL169:
 2606              	.LBB771:
 2607              	.LBI771:
  67:../../libDaisy//src/util/ringbuffer.h ****             ;
  68:../../libDaisy//src/util/ringbuffer.h ****         return ImmediateRead();
  69:../../libDaisy//src/util/ringbuffer.h ****     }
  70:../../libDaisy//src/util/ringbuffer.h **** 
  71:../../libDaisy//src/util/ringbuffer.h ****     /** Reads next element from ring buffer immediately
  72:../../libDaisy//src/util/ringbuffer.h ****     \return read value
  73:../../libDaisy//src/util/ringbuffer.h ****      */
  74:../../libDaisy//src/util/ringbuffer.h ****     inline T ImmediateRead()
 2608              		.loc 14 74 14 is_stmt 1 view .LVU671
 2609              	.LBB772:
  75:../../libDaisy//src/util/ringbuffer.h ****     {
  76:../../libDaisy//src/util/ringbuffer.h ****         size_t r      = read_ptr_;
 2610              		.loc 14 76 16 is_stmt 0 view .LVU672
ARM GAS  C:\Users\danst\AppData\Local\Temp\ccAqJ3eO.s 			page 75


 2611 005a D4F89830 		ldr	r3, [r4, #152]
 2612              	.LVL170:
  77:../../libDaisy//src/util/ringbuffer.h ****         T      result = buffer_[r];
 2613              		.loc 14 77 16 view .LVU673
 2614 005e 03EBC302 		add	r2, r3, r3, lsl #3
 2615              	.LVL171:
  78:../../libDaisy//src/util/ringbuffer.h ****         read_ptr_     = (r + 1) % size;
 2616              		.loc 14 78 28 view .LVU674
 2617 0062 0133     		adds	r3, r3, #1
 2618              	.LVL172:
  77:../../libDaisy//src/util/ringbuffer.h ****         T      result = buffer_[r];
 2619              		.loc 14 77 16 view .LVU675
 2620 0064 1201     		lsls	r2, r2, #4
 2621              		.loc 14 78 33 view .LVU676
 2622 0066 DBB2     		uxtb	r3, r3
  77:../../libDaisy//src/util/ringbuffer.h ****         T      result = buffer_[r];
 2623              		.loc 14 77 16 view .LVU677
 2624 0068 01EB020C 		add	ip, r1, r2
 2625 006c 825C     		ldrb	r2, [r0, r2]	@ zero_extendqisi2
 2626              	.LVL173:
 2627              		.loc 14 78 23 view .LVU678
 2628 006e C4F89830 		str	r3, [r4, #152]
 2629              	.LVL174:
 2630              		.loc 14 78 23 view .LVU679
 2631              	.LBE772:
 2632              	.LBE771:
 2633              	.LBE768:
 2634              	.LBE767:
 2635              	.LBE766:
 2636              	.LBB777:
  91:2Cats1Bag.cpp **** 			auto noteMessage = midiEvent.AsNoteOn();
 2637              		.loc 12 91 3 view .LVU680
 2638 0072 012A     		cmp	r2, #1
 2639              	.LBE777:
 2640              	.LBB781:
 2641              	.LBB776:
 2642              	.LBB775:
 2643              	.LBB774:
 2644              	.LBB773:
  77:../../libDaisy//src/util/ringbuffer.h ****         T      result = buffer_[r];
 2645              		.loc 14 77 16 view .LVU681
 2646 0074 9CF8A050 		ldrb	r5, [ip, #160]	@ zero_extendqisi2
 2647 0078 DCF89C60 		ldr	r6, [ip, #156]
 2648              	.LVL175:
  77:../../libDaisy//src/util/ringbuffer.h ****         T      result = buffer_[r];
 2649              		.loc 14 77 16 view .LVU682
 2650 007c 9CF8A130 		ldrb	r3, [ip, #161]	@ zero_extendqisi2
 2651              	.LVL176:
  77:../../libDaisy//src/util/ringbuffer.h ****         T      result = buffer_[r];
 2652              		.loc 14 77 16 view .LVU683
 2653              	.LBE773:
 2654              	.LBE774:
 2655              	.LBE775:
 2656              	.LBE776:
 2657              	.LBE781:
  91:2Cats1Bag.cpp **** 			auto noteMessage = midiEvent.AsNoteOn();
 2658              		.loc 12 91 3 is_stmt 1 view .LVU684
ARM GAS  C:\Users\danst\AppData\Local\Temp\ccAqJ3eO.s 			page 76


 2659              	.LBB782:
 2660 0080 08D0     		beq	.L117
 2661              	.LVL177:
 2662              	.L102:
  91:2Cats1Bag.cpp **** 			auto noteMessage = midiEvent.AsNoteOn();
 2663              		.loc 12 91 3 is_stmt 0 view .LVU685
 2664              	.LBE782:
 2665              	.LBE765:
  89:2Cats1Bag.cpp **** 		auto midiEvent = midi.PopEvent();
 2666              		.loc 12 89 2 is_stmt 1 discriminator 2 view .LVU686
  89:2Cats1Bag.cpp **** 		auto midiEvent = midi.PopEvent();
 2667              		.loc 12 89 23 discriminator 2 view .LVU687
 2668              	.LBB784:
 134:../../libDaisy//src/hid/midi.h **** 
 2669              		.loc 10 134 10 discriminator 2 view .LVU688
 2670              	.LBB764:
  36:../../libDaisy//src/util/ringbuffer.h **** 
 2671              		.loc 14 36 19 discriminator 2 view .LVU689
 2672              	.LBB763:
  36:../../libDaisy//src/util/ringbuffer.h **** 
 2673              		.loc 14 36 46 is_stmt 0 discriminator 2 view .LVU690
 2674 0082 D4F89C30 		ldr	r3, [r4, #156]
  36:../../libDaisy//src/util/ringbuffer.h **** 
 2675              		.loc 14 36 59 discriminator 2 view .LVU691
 2676 0086 D4F89820 		ldr	r2, [r4, #152]
 2677              	.LVL178:
  36:../../libDaisy//src/util/ringbuffer.h **** 
 2678              		.loc 14 36 57 discriminator 2 view .LVU692
 2679 008a 9B1A     		subs	r3, r3, r2
  36:../../libDaisy//src/util/ringbuffer.h **** 
 2680              		.loc 14 36 72 discriminator 2 view .LVU693
 2681 008c DBB2     		uxtb	r3, r3
 2682              	.LBE763:
 2683              	.LBE764:
 2684              	.LBE784:
  89:2Cats1Bag.cpp **** 		auto midiEvent = midi.PopEvent();
 2685              		.loc 12 89 23 discriminator 2 view .LVU694
 2686 008e 002B     		cmp	r3, #0
 2687 0090 DBD1     		bne	.L101
 2688              	.L96:
 104:2Cats1Bag.cpp **** void handleKnobs(){
 2689              		.loc 12 104 1 view .LVU695
 2690 0092 70BD     		pop	{r4, r5, r6, pc}
 2691              	.LVL179:
 2692              	.L117:
 2693              	.LBB785:
 2694              	.LBB783:
 2695              	.LBB778:
  92:2Cats1Bag.cpp **** 			if( noteMessage.velocity != 0 ){
 2696              		.loc 12 92 4 is_stmt 1 view .LVU696
 2697              	.LBB779:
 2698              	.LBI779:
 2699              		.file 15 "../../libDaisy//src/hid/MidiEvent.h"
   1:../../libDaisy//src/hid/MidiEvent.h **** namespace daisy
   2:../../libDaisy//src/hid/MidiEvent.h **** {
   3:../../libDaisy//src/hid/MidiEvent.h **** /** @addtogroup midi MIDI
   4:../../libDaisy//src/hid/MidiEvent.h ****  *  @ingroup human_interface
ARM GAS  C:\Users\danst\AppData\Local\Temp\ccAqJ3eO.s 			page 77


   5:../../libDaisy//src/hid/MidiEvent.h ****  *  @ingroup libdaisy
   6:../../libDaisy//src/hid/MidiEvent.h ****  *  @brief MIDI handlers, transports, and message types
   7:../../libDaisy//src/hid/MidiEvent.h ****  *  @{
   8:../../libDaisy//src/hid/MidiEvent.h ****  */
   9:../../libDaisy//src/hid/MidiEvent.h **** 
  10:../../libDaisy//src/hid/MidiEvent.h **** /** @defgroup midi_events MIDI_EVENTS 
  11:../../libDaisy//src/hid/MidiEvent.h ****  *  @{
  12:../../libDaisy//src/hid/MidiEvent.h **** */
  13:../../libDaisy//src/hid/MidiEvent.h **** 
  14:../../libDaisy//src/hid/MidiEvent.h **** /** Parsed from the Status Byte, these are the common Midi Messages that can be handled. \n
  15:../../libDaisy//src/hid/MidiEvent.h **** At this time only 3-byte messages are correctly parsed into MidiEvents.
  16:../../libDaisy//src/hid/MidiEvent.h **** */
  17:../../libDaisy//src/hid/MidiEvent.h **** enum MidiMessageType
  18:../../libDaisy//src/hid/MidiEvent.h **** {
  19:../../libDaisy//src/hid/MidiEvent.h ****     NoteOff,               /**< & */
  20:../../libDaisy//src/hid/MidiEvent.h ****     NoteOn,                /**< & */
  21:../../libDaisy//src/hid/MidiEvent.h ****     PolyphonicKeyPressure, /**< & */
  22:../../libDaisy//src/hid/MidiEvent.h ****     ControlChange,         /**< & */
  23:../../libDaisy//src/hid/MidiEvent.h ****     ProgramChange,         /**< & */
  24:../../libDaisy//src/hid/MidiEvent.h ****     ChannelPressure,       /**< & */
  25:../../libDaisy//src/hid/MidiEvent.h ****     PitchBend,             /**< & */
  26:../../libDaisy//src/hid/MidiEvent.h ****     SystemCommon,          /**< & */
  27:../../libDaisy//src/hid/MidiEvent.h ****     SystemRealTime,        /**< & */
  28:../../libDaisy//src/hid/MidiEvent.h ****     ChannelMode,           /**< & */
  29:../../libDaisy//src/hid/MidiEvent.h ****     MessageLast,           /**< & */
  30:../../libDaisy//src/hid/MidiEvent.h **** };
  31:../../libDaisy//src/hid/MidiEvent.h **** 
  32:../../libDaisy//src/hid/MidiEvent.h **** enum SystemCommonType
  33:../../libDaisy//src/hid/MidiEvent.h **** {
  34:../../libDaisy//src/hid/MidiEvent.h ****     SystemExclusive,     /**< & */
  35:../../libDaisy//src/hid/MidiEvent.h ****     MTCQuarterFrame,     /**< & */
  36:../../libDaisy//src/hid/MidiEvent.h ****     SongPositionPointer, /**< & */
  37:../../libDaisy//src/hid/MidiEvent.h ****     SongSelect,          /**< & */
  38:../../libDaisy//src/hid/MidiEvent.h ****     SCUndefined0,        /**< & */
  39:../../libDaisy//src/hid/MidiEvent.h ****     SCUndefined1,        /**< & */
  40:../../libDaisy//src/hid/MidiEvent.h ****     TuneRequest,         /**< & */
  41:../../libDaisy//src/hid/MidiEvent.h ****     SysExEnd,            /**< & */
  42:../../libDaisy//src/hid/MidiEvent.h ****     SystemCommonLast,    /**< & */
  43:../../libDaisy//src/hid/MidiEvent.h **** };
  44:../../libDaisy//src/hid/MidiEvent.h **** 
  45:../../libDaisy//src/hid/MidiEvent.h **** enum SystemRealTimeType
  46:../../libDaisy//src/hid/MidiEvent.h **** {
  47:../../libDaisy//src/hid/MidiEvent.h ****     TimingClock,        /**< & */
  48:../../libDaisy//src/hid/MidiEvent.h ****     SRTUndefined0,      /**< & */
  49:../../libDaisy//src/hid/MidiEvent.h ****     Start,              /**< & */
  50:../../libDaisy//src/hid/MidiEvent.h ****     Continue,           /**< & */
  51:../../libDaisy//src/hid/MidiEvent.h ****     Stop,               /**< & */
  52:../../libDaisy//src/hid/MidiEvent.h ****     SRTUndefined1,      /**< & */
  53:../../libDaisy//src/hid/MidiEvent.h ****     ActiveSensing,      /**< & */
  54:../../libDaisy//src/hid/MidiEvent.h ****     Reset,              /**< & */
  55:../../libDaisy//src/hid/MidiEvent.h ****     SystemRealTimeLast, /**< & */
  56:../../libDaisy//src/hid/MidiEvent.h **** };
  57:../../libDaisy//src/hid/MidiEvent.h **** 
  58:../../libDaisy//src/hid/MidiEvent.h **** enum ChannelModeType
  59:../../libDaisy//src/hid/MidiEvent.h **** {
  60:../../libDaisy//src/hid/MidiEvent.h ****     AllSoundOff,         /**< & */
  61:../../libDaisy//src/hid/MidiEvent.h ****     ResetAllControllers, /**< & */
ARM GAS  C:\Users\danst\AppData\Local\Temp\ccAqJ3eO.s 			page 78


  62:../../libDaisy//src/hid/MidiEvent.h ****     LocalControl,        /**< & */
  63:../../libDaisy//src/hid/MidiEvent.h ****     AllNotesOff,         /**< & */
  64:../../libDaisy//src/hid/MidiEvent.h ****     OmniModeOff,         /**< & */
  65:../../libDaisy//src/hid/MidiEvent.h ****     OmniModeOn,          /**< & */
  66:../../libDaisy//src/hid/MidiEvent.h ****     MonoModeOn,          /**< & */
  67:../../libDaisy//src/hid/MidiEvent.h ****     PolyModeOn,          /**< & */
  68:../../libDaisy//src/hid/MidiEvent.h ****     ChannelModeLast,     /**< & */
  69:../../libDaisy//src/hid/MidiEvent.h **** };
  70:../../libDaisy//src/hid/MidiEvent.h **** 
  71:../../libDaisy//src/hid/MidiEvent.h **** /** Struct containing note, and velocity data for a given channel.
  72:../../libDaisy//src/hid/MidiEvent.h **** Can be made from MidiEvent
  73:../../libDaisy//src/hid/MidiEvent.h **** */
  74:../../libDaisy//src/hid/MidiEvent.h **** struct NoteOffEvent
  75:../../libDaisy//src/hid/MidiEvent.h **** {
  76:../../libDaisy//src/hid/MidiEvent.h ****     int     channel;  /**< & */
  77:../../libDaisy//src/hid/MidiEvent.h ****     uint8_t note;     /**< & */
  78:../../libDaisy//src/hid/MidiEvent.h ****     uint8_t velocity; /**< & */
  79:../../libDaisy//src/hid/MidiEvent.h **** };
  80:../../libDaisy//src/hid/MidiEvent.h **** 
  81:../../libDaisy//src/hid/MidiEvent.h **** 
  82:../../libDaisy//src/hid/MidiEvent.h **** /** Struct containing note, and velocity data for a given channel.
  83:../../libDaisy//src/hid/MidiEvent.h **** Can be made from MidiEvent
  84:../../libDaisy//src/hid/MidiEvent.h **** */
  85:../../libDaisy//src/hid/MidiEvent.h **** struct NoteOnEvent
  86:../../libDaisy//src/hid/MidiEvent.h **** {
  87:../../libDaisy//src/hid/MidiEvent.h ****     int     channel;  /**< & */
  88:../../libDaisy//src/hid/MidiEvent.h ****     uint8_t note;     /**< & */
  89:../../libDaisy//src/hid/MidiEvent.h ****     uint8_t velocity; /**< & */
  90:../../libDaisy//src/hid/MidiEvent.h **** };
  91:../../libDaisy//src/hid/MidiEvent.h **** /** Struct containing note, and pressure data for a given channel.
  92:../../libDaisy//src/hid/MidiEvent.h **** Can be made from MidiEvent
  93:../../libDaisy//src/hid/MidiEvent.h **** */
  94:../../libDaisy//src/hid/MidiEvent.h **** struct PolyphonicKeyPressureEvent
  95:../../libDaisy//src/hid/MidiEvent.h **** {
  96:../../libDaisy//src/hid/MidiEvent.h ****     int     channel;
  97:../../libDaisy//src/hid/MidiEvent.h ****     uint8_t note;
  98:../../libDaisy//src/hid/MidiEvent.h ****     uint8_t pressure;
  99:../../libDaisy//src/hid/MidiEvent.h **** };
 100:../../libDaisy//src/hid/MidiEvent.h **** /** Struct containing control number, and value for a given channel.
 101:../../libDaisy//src/hid/MidiEvent.h **** Can be made from MidiEvent
 102:../../libDaisy//src/hid/MidiEvent.h **** */
 103:../../libDaisy//src/hid/MidiEvent.h **** struct ControlChangeEvent
 104:../../libDaisy//src/hid/MidiEvent.h **** {
 105:../../libDaisy//src/hid/MidiEvent.h ****     int     channel;        /**< & */
 106:../../libDaisy//src/hid/MidiEvent.h ****     uint8_t control_number; /**< & */
 107:../../libDaisy//src/hid/MidiEvent.h ****     uint8_t value;          /**< & */
 108:../../libDaisy//src/hid/MidiEvent.h **** };
 109:../../libDaisy//src/hid/MidiEvent.h **** /** Struct containing new program number, for a given channel.
 110:../../libDaisy//src/hid/MidiEvent.h **** Can be made from MidiEvent
 111:../../libDaisy//src/hid/MidiEvent.h **** */
 112:../../libDaisy//src/hid/MidiEvent.h **** struct ProgramChangeEvent
 113:../../libDaisy//src/hid/MidiEvent.h **** {
 114:../../libDaisy//src/hid/MidiEvent.h ****     int     channel; /**< & */
 115:../../libDaisy//src/hid/MidiEvent.h ****     uint8_t program; /**< & */
 116:../../libDaisy//src/hid/MidiEvent.h **** };
 117:../../libDaisy//src/hid/MidiEvent.h **** /** Struct containing pressure (aftertouch), for a given channel.
 118:../../libDaisy//src/hid/MidiEvent.h **** Can be made from MidiEvent
ARM GAS  C:\Users\danst\AppData\Local\Temp\ccAqJ3eO.s 			page 79


 119:../../libDaisy//src/hid/MidiEvent.h **** */
 120:../../libDaisy//src/hid/MidiEvent.h **** struct ChannelPressureEvent
 121:../../libDaisy//src/hid/MidiEvent.h **** {
 122:../../libDaisy//src/hid/MidiEvent.h ****     int     channel;  /**< & */
 123:../../libDaisy//src/hid/MidiEvent.h ****     uint8_t pressure; /**< & */
 124:../../libDaisy//src/hid/MidiEvent.h **** };
 125:../../libDaisy//src/hid/MidiEvent.h **** /** Struct containing pitch bend value for a given channel.
 126:../../libDaisy//src/hid/MidiEvent.h **** Can be made from MidiEvent
 127:../../libDaisy//src/hid/MidiEvent.h **** */
 128:../../libDaisy//src/hid/MidiEvent.h **** struct PitchBendEvent
 129:../../libDaisy//src/hid/MidiEvent.h **** {
 130:../../libDaisy//src/hid/MidiEvent.h ****     int     channel; /**< & */
 131:../../libDaisy//src/hid/MidiEvent.h ****     int16_t value;   /**< & */
 132:../../libDaisy//src/hid/MidiEvent.h **** };
 133:../../libDaisy//src/hid/MidiEvent.h **** /** Struct containing channel mode event for a given channel.
 134:../../libDaisy//src/hid/MidiEvent.h **** Can be made from MidiEvent
 135:../../libDaisy//src/hid/MidiEvent.h **** */
 136:../../libDaisy//src/hid/MidiEvent.h **** struct ChannelModeEvent
 137:../../libDaisy//src/hid/MidiEvent.h **** {
 138:../../libDaisy//src/hid/MidiEvent.h ****     int             channel;    /**< & */
 139:../../libDaisy//src/hid/MidiEvent.h ****     ChannelModeType event_type; /**< & */
 140:../../libDaisy//src/hid/MidiEvent.h ****     int16_t         value;      /**< & */
 141:../../libDaisy//src/hid/MidiEvent.h **** };
 142:../../libDaisy//src/hid/MidiEvent.h **** /** Struct containing sysex data.
 143:../../libDaisy//src/hid/MidiEvent.h **** Can be made from MidiEvent
 144:../../libDaisy//src/hid/MidiEvent.h **** */
 145:../../libDaisy//src/hid/MidiEvent.h **** struct SystemExclusiveEvent
 146:../../libDaisy//src/hid/MidiEvent.h **** {
 147:../../libDaisy//src/hid/MidiEvent.h ****     int     length;
 148:../../libDaisy//src/hid/MidiEvent.h ****     uint8_t data[SYSEX_BUFFER_LEN]; /**< & */
 149:../../libDaisy//src/hid/MidiEvent.h **** };
 150:../../libDaisy//src/hid/MidiEvent.h **** /** Struct containing QuarterFrame data.
 151:../../libDaisy//src/hid/MidiEvent.h **** Can be made from MidiEvent
 152:../../libDaisy//src/hid/MidiEvent.h **** */
 153:../../libDaisy//src/hid/MidiEvent.h **** struct MTCQuarterFrameEvent
 154:../../libDaisy//src/hid/MidiEvent.h **** {
 155:../../libDaisy//src/hid/MidiEvent.h ****     uint8_t message_type; /**< & */
 156:../../libDaisy//src/hid/MidiEvent.h ****     uint8_t value;        /**< & */
 157:../../libDaisy//src/hid/MidiEvent.h **** };
 158:../../libDaisy//src/hid/MidiEvent.h **** /** Struct containing song position data.
 159:../../libDaisy//src/hid/MidiEvent.h **** Can be made from MidiEvent
 160:../../libDaisy//src/hid/MidiEvent.h **** */
 161:../../libDaisy//src/hid/MidiEvent.h **** struct SongPositionPointerEvent
 162:../../libDaisy//src/hid/MidiEvent.h **** {
 163:../../libDaisy//src/hid/MidiEvent.h ****     uint16_t position; /**< & */
 164:../../libDaisy//src/hid/MidiEvent.h **** };
 165:../../libDaisy//src/hid/MidiEvent.h **** /** Struct containing song select data.
 166:../../libDaisy//src/hid/MidiEvent.h **** Can be made from MidiEvent
 167:../../libDaisy//src/hid/MidiEvent.h **** */
 168:../../libDaisy//src/hid/MidiEvent.h **** struct SongSelectEvent
 169:../../libDaisy//src/hid/MidiEvent.h **** {
 170:../../libDaisy//src/hid/MidiEvent.h ****     uint8_t song; /**< & */
 171:../../libDaisy//src/hid/MidiEvent.h **** };
 172:../../libDaisy//src/hid/MidiEvent.h **** /** Struct containing sound off data.
 173:../../libDaisy//src/hid/MidiEvent.h **** Can be made from MidiEvent
 174:../../libDaisy//src/hid/MidiEvent.h **** */
 175:../../libDaisy//src/hid/MidiEvent.h **** struct AllSoundOffEvent
ARM GAS  C:\Users\danst\AppData\Local\Temp\ccAqJ3eO.s 			page 80


 176:../../libDaisy//src/hid/MidiEvent.h **** {
 177:../../libDaisy//src/hid/MidiEvent.h ****     int channel; /**< & */
 178:../../libDaisy//src/hid/MidiEvent.h **** };
 179:../../libDaisy//src/hid/MidiEvent.h **** /** Struct containing ResetAllControllersEvent data.
 180:../../libDaisy//src/hid/MidiEvent.h **** Can be made from MidiEvent
 181:../../libDaisy//src/hid/MidiEvent.h **** */
 182:../../libDaisy//src/hid/MidiEvent.h **** struct ResetAllControllersEvent
 183:../../libDaisy//src/hid/MidiEvent.h **** {
 184:../../libDaisy//src/hid/MidiEvent.h ****     int     channel; /**< & */
 185:../../libDaisy//src/hid/MidiEvent.h ****     uint8_t value;   /**< & */
 186:../../libDaisy//src/hid/MidiEvent.h **** };
 187:../../libDaisy//src/hid/MidiEvent.h **** /** Struct containing LocalControlEvent data.
 188:../../libDaisy//src/hid/MidiEvent.h **** Can be made from MidiEvent
 189:../../libDaisy//src/hid/MidiEvent.h **** */
 190:../../libDaisy//src/hid/MidiEvent.h **** struct LocalControlEvent
 191:../../libDaisy//src/hid/MidiEvent.h **** {
 192:../../libDaisy//src/hid/MidiEvent.h ****     int  channel;           /**< & */
 193:../../libDaisy//src/hid/MidiEvent.h ****     bool local_control_off; /**< & */
 194:../../libDaisy//src/hid/MidiEvent.h ****     bool local_control_on;  /**< & */
 195:../../libDaisy//src/hid/MidiEvent.h **** };
 196:../../libDaisy//src/hid/MidiEvent.h **** /** Struct containing AllNotesOffEvent data.
 197:../../libDaisy//src/hid/MidiEvent.h **** Can be made from MidiEvent
 198:../../libDaisy//src/hid/MidiEvent.h **** */
 199:../../libDaisy//src/hid/MidiEvent.h **** struct AllNotesOffEvent
 200:../../libDaisy//src/hid/MidiEvent.h **** {
 201:../../libDaisy//src/hid/MidiEvent.h ****     int channel; /**< & */
 202:../../libDaisy//src/hid/MidiEvent.h **** };
 203:../../libDaisy//src/hid/MidiEvent.h **** /** Struct containing OmniModeOffEvent data. 
 204:../../libDaisy//src/hid/MidiEvent.h ****  * Can be made from MidiEvent
 205:../../libDaisy//src/hid/MidiEvent.h **** */
 206:../../libDaisy//src/hid/MidiEvent.h **** struct OmniModeOffEvent
 207:../../libDaisy//src/hid/MidiEvent.h **** {
 208:../../libDaisy//src/hid/MidiEvent.h ****     int channel; /**< & */
 209:../../libDaisy//src/hid/MidiEvent.h **** };
 210:../../libDaisy//src/hid/MidiEvent.h **** /** Struct containing OmniModeOnEvent data.
 211:../../libDaisy//src/hid/MidiEvent.h **** Can be made from MidiEvent
 212:../../libDaisy//src/hid/MidiEvent.h **** */
 213:../../libDaisy//src/hid/MidiEvent.h **** struct OmniModeOnEvent
 214:../../libDaisy//src/hid/MidiEvent.h **** {
 215:../../libDaisy//src/hid/MidiEvent.h ****     int channel; /**< & */
 216:../../libDaisy//src/hid/MidiEvent.h **** };
 217:../../libDaisy//src/hid/MidiEvent.h **** /** Struct containing MonoModeOnEvent data.
 218:../../libDaisy//src/hid/MidiEvent.h **** Can be made from MidiEvent
 219:../../libDaisy//src/hid/MidiEvent.h **** */
 220:../../libDaisy//src/hid/MidiEvent.h **** struct MonoModeOnEvent
 221:../../libDaisy//src/hid/MidiEvent.h **** {
 222:../../libDaisy//src/hid/MidiEvent.h ****     int     channel;      /**< & */
 223:../../libDaisy//src/hid/MidiEvent.h ****     uint8_t num_channels; /**< & */
 224:../../libDaisy//src/hid/MidiEvent.h **** };
 225:../../libDaisy//src/hid/MidiEvent.h **** /** Struct containing PolyModeOnEvent data.
 226:../../libDaisy//src/hid/MidiEvent.h **** Can be made from MidiEvent
 227:../../libDaisy//src/hid/MidiEvent.h **** */
 228:../../libDaisy//src/hid/MidiEvent.h **** struct PolyModeOnEvent
 229:../../libDaisy//src/hid/MidiEvent.h **** {
 230:../../libDaisy//src/hid/MidiEvent.h ****     int channel; /**< & */
 231:../../libDaisy//src/hid/MidiEvent.h **** };
 232:../../libDaisy//src/hid/MidiEvent.h **** 
ARM GAS  C:\Users\danst\AppData\Local\Temp\ccAqJ3eO.s 			page 81


 233:../../libDaisy//src/hid/MidiEvent.h **** 
 234:../../libDaisy//src/hid/MidiEvent.h **** /** Simple MidiEvent with message type, channel, and data[2] members.
 235:../../libDaisy//src/hid/MidiEvent.h **** */
 236:../../libDaisy//src/hid/MidiEvent.h **** struct MidiEvent
 237:../../libDaisy//src/hid/MidiEvent.h **** {
 238:../../libDaisy//src/hid/MidiEvent.h ****     // Newer ish.
 239:../../libDaisy//src/hid/MidiEvent.h ****     MidiMessageType    type;                         /**< & */
 240:../../libDaisy//src/hid/MidiEvent.h ****     int                channel;                      /**< & */
 241:../../libDaisy//src/hid/MidiEvent.h ****     uint8_t            data[2];                      /**< & */
 242:../../libDaisy//src/hid/MidiEvent.h ****     uint8_t            sysex_data[SYSEX_BUFFER_LEN]; /**< & */
 243:../../libDaisy//src/hid/MidiEvent.h ****     uint8_t            sysex_message_len;
 244:../../libDaisy//src/hid/MidiEvent.h ****     SystemCommonType   sc_type;
 245:../../libDaisy//src/hid/MidiEvent.h ****     SystemRealTimeType srt_type;
 246:../../libDaisy//src/hid/MidiEvent.h ****     ChannelModeType    cm_type;
 247:../../libDaisy//src/hid/MidiEvent.h **** 
 248:../../libDaisy//src/hid/MidiEvent.h ****     /** Returns the data within the MidiEvent as a NoteOffEvent struct */
 249:../../libDaisy//src/hid/MidiEvent.h ****     NoteOffEvent AsNoteOff()
 250:../../libDaisy//src/hid/MidiEvent.h ****     {
 251:../../libDaisy//src/hid/MidiEvent.h ****         NoteOffEvent m;
 252:../../libDaisy//src/hid/MidiEvent.h ****         m.channel  = channel;
 253:../../libDaisy//src/hid/MidiEvent.h ****         m.note     = data[0];
 254:../../libDaisy//src/hid/MidiEvent.h ****         m.velocity = data[1];
 255:../../libDaisy//src/hid/MidiEvent.h ****         return m;
 256:../../libDaisy//src/hid/MidiEvent.h ****     }
 257:../../libDaisy//src/hid/MidiEvent.h **** 
 258:../../libDaisy//src/hid/MidiEvent.h ****     /** Returns the data within the MidiEvent as a NoteOnEvent struct */
 259:../../libDaisy//src/hid/MidiEvent.h ****     NoteOnEvent AsNoteOn()
 2700              		.loc 15 259 17 view .LVU697
 2701              	.LBB780:
 260:../../libDaisy//src/hid/MidiEvent.h ****     {
 261:../../libDaisy//src/hid/MidiEvent.h ****         NoteOnEvent m;
 2702              		.loc 15 261 9 view .LVU698
 262:../../libDaisy//src/hid/MidiEvent.h ****         m.channel  = channel;
 2703              		.loc 15 262 9 view .LVU699
 263:../../libDaisy//src/hid/MidiEvent.h ****         m.note     = data[0];
 2704              		.loc 15 263 9 view .LVU700
 264:../../libDaisy//src/hid/MidiEvent.h ****         m.velocity = data[1];
 2705              		.loc 15 264 9 view .LVU701
 265:../../libDaisy//src/hid/MidiEvent.h ****         return m;
 2706              		.loc 15 265 9 view .LVU702
 2707              		.loc 15 265 9 is_stmt 0 view .LVU703
 2708              	.LBE780:
 2709              	.LBE779:
  93:2Cats1Bag.cpp **** 				switch( noteMessage.channel ){
 2710              		.loc 12 93 4 is_stmt 1 view .LVU704
  94:2Cats1Bag.cpp **** 					case 0:
 2711              		.loc 12 94 5 view .LVU705
  93:2Cats1Bag.cpp **** 				switch( noteMessage.channel ){
 2712              		.loc 12 93 4 is_stmt 0 view .LVU706
 2713 0094 002B     		cmp	r3, #0
 2714 0096 F4D0     		beq	.L102
  95:2Cats1Bag.cpp **** 						modulatorMidiNote = noteMessage.note;
 2715              		.loc 12 95 6 is_stmt 1 view .LVU707
  96:2Cats1Bag.cpp **** 						break;
 2716              		.loc 12 96 7 view .LVU708
  98:2Cats1Bag.cpp **** 						primaryMidiNote = noteMessage.note;
 2717              		.loc 12 98 6 view .LVU709
ARM GAS  C:\Users\danst\AppData\Local\Temp\ccAqJ3eO.s 			page 82


  99:2Cats1Bag.cpp **** 				}
 2718              		.loc 12 99 7 view .LVU710
  96:2Cats1Bag.cpp **** 						break;
 2719              		.loc 12 96 25 is_stmt 0 view .LVU711
 2720 0098 0A4A     		ldr	r2, .L118+12
 2721              	.LVL180:
  99:2Cats1Bag.cpp **** 				}
 2722              		.loc 12 99 23 view .LVU712
 2723 009a 0B4B     		ldr	r3, .L118+16
 2724              	.LVL181:
  94:2Cats1Bag.cpp **** 					case 0:
 2725              		.loc 12 94 5 view .LVU713
 2726 009c 0EB9     		cbnz	r6, .L103
  96:2Cats1Bag.cpp **** 						break;
 2727              		.loc 12 96 39 view .LVU714
 2728 009e 1560     		str	r5, [r2]
  97:2Cats1Bag.cpp **** 					default: 
 2729              		.loc 12 97 7 is_stmt 1 view .LVU715
 2730 00a0 EFE7     		b	.L102
 2731              	.L103:
  99:2Cats1Bag.cpp **** 				}
 2732              		.loc 12 99 37 is_stmt 0 view .LVU716
 2733 00a2 1D60     		str	r5, [r3]
 2734 00a4 EDE7     		b	.L102
 2735              	.LVL182:
 2736              	.L116:
  99:2Cats1Bag.cpp **** 				}
 2737              		.loc 12 99 37 view .LVU717
 2738              	.LBE778:
 2739              	.LBE783:
 2740              	.LBE785:
 2741              	.LBB786:
 2742              	.LBB758:
 125:../../libDaisy//src/hid/midi.h ****             transport_.FlushRx();
 2743              		.loc 10 125 21 view .LVU718
 2744 00a6 0549     		ldr	r1, .L118+4
 126:../../libDaisy//src/hid/midi.h ****             StartReceive();
 2745              		.loc 10 126 31 view .LVU719
 2746 00a8 0548     		ldr	r0, .L118+8
 125:../../libDaisy//src/hid/midi.h ****             transport_.FlushRx();
 2747              		.loc 10 125 21 view .LVU720
 2748 00aa 0B71     		strb	r3, [r1, #4]
 126:../../libDaisy//src/hid/midi.h ****             StartReceive();
 2749              		.loc 10 126 31 view .LVU721
 2750 00ac FFF7FEFF 		bl	_ZN5daisy16MidiUsbTransport7FlushRxEv
 2751              	.LVL183:
 2752              	.LBB756:
 2753              	.LBI756:
 107:../../libDaisy//src/hid/midi.h **** 
 2754              		.loc 10 107 10 is_stmt 1 view .LVU722
 2755              	.LBB757:
 107:../../libDaisy//src/hid/midi.h **** 
 2756              		.loc 10 107 45 is_stmt 0 view .LVU723
 2757 00b0 0348     		ldr	r0, .L118+8
 2758 00b2 FFF7FEFF 		bl	_ZN5daisy16MidiUsbTransport7StartRxEv
 2759              	.LVL184:
 107:../../libDaisy//src/hid/midi.h **** 
ARM GAS  C:\Users\danst\AppData\Local\Temp\ccAqJ3eO.s 			page 83


 2760              		.loc 10 107 49 view .LVU724
 2761 00b6 BEE7     		b	.L99
 2762              	.L119:
 2763              		.align	2
 2764              	.L118:
